ARM GAS  /tmp/ccMX9qRY.s 			page 1


   1              		.cpu cortex-m4
   2              		.eabi_attribute 20, 1
   3              		.eabi_attribute 21, 1
   4              		.eabi_attribute 23, 3
   5              		.eabi_attribute 24, 1
   6              		.eabi_attribute 25, 1
   7              		.eabi_attribute 26, 1
   8              		.eabi_attribute 30, 1
   9              		.eabi_attribute 34, 1
  10              		.eabi_attribute 18, 4
  11              		.file	"at32f403a_407_board.c"
  12              		.text
  13              	.Ltext0:
  14              		.cfi_sections	.debug_frame
  15              		.section	.text.__io_putchar,"ax",%progbits
  16              		.align	1
  17              		.global	__io_putchar
  18              		.syntax unified
  19              		.thumb
  20              		.thumb_func
  21              		.fpu softvfp
  23              	__io_putchar:
  24              	.LFB134:
  25              		.file 1 "Core/Src/at32f403a_407_board.c"
   1:Core/Src/at32f403a_407_board.c **** /**
   2:Core/Src/at32f403a_407_board.c ****   **************************************************************************
   3:Core/Src/at32f403a_407_board.c ****   * @file     at32f403a_407_board.c
   4:Core/Src/at32f403a_407_board.c ****   * @version  v2.0.8
   5:Core/Src/at32f403a_407_board.c ****   * @date     2022-04-02
   6:Core/Src/at32f403a_407_board.c ****   * @brief    set of firmware functions to manage leds and push-button.
   7:Core/Src/at32f403a_407_board.c ****   *           initialize delay function.
   8:Core/Src/at32f403a_407_board.c ****   **************************************************************************
   9:Core/Src/at32f403a_407_board.c ****   *                       Copyright notice & Disclaimer
  10:Core/Src/at32f403a_407_board.c ****   *
  11:Core/Src/at32f403a_407_board.c ****   * The software Board Support Package (BSP) that is made available to
  12:Core/Src/at32f403a_407_board.c ****   * download from Artery official website is the copyrighted work of Artery.
  13:Core/Src/at32f403a_407_board.c ****   * Artery authorizes customers to use, copy, and distribute the BSP
  14:Core/Src/at32f403a_407_board.c ****   * software and its related documentation for the purpose of design and
  15:Core/Src/at32f403a_407_board.c ****   * development in conjunction with Artery microcontrollers. Use of the
  16:Core/Src/at32f403a_407_board.c ****   * software is governed by this copyright notice and the following disclaimer.
  17:Core/Src/at32f403a_407_board.c ****   *
  18:Core/Src/at32f403a_407_board.c ****   * THIS SOFTWARE IS PROVIDED ON "AS IS" BASIS WITHOUT WARRANTIES,
  19:Core/Src/at32f403a_407_board.c ****   * GUARANTEES OR REPRESENTATIONS OF ANY KIND. ARTERY EXPRESSLY DISCLAIMS,
  20:Core/Src/at32f403a_407_board.c ****   * TO THE FULLEST EXTENT PERMITTED BY LAW, ALL EXPRESS, IMPLIED OR
  21:Core/Src/at32f403a_407_board.c ****   * STATUTORY OR OTHER WARRANTIES, GUARANTEES OR REPRESENTATIONS,
  22:Core/Src/at32f403a_407_board.c ****   * INCLUDING BUT NOT LIMITED TO, THE IMPLIED WARRANTIES OF MERCHANTABILITY,
  23:Core/Src/at32f403a_407_board.c ****   * FITNESS FOR A PARTICULAR PURPOSE, OR NON-INFRINGEMENT.
  24:Core/Src/at32f403a_407_board.c ****   *
  25:Core/Src/at32f403a_407_board.c ****   **************************************************************************
  26:Core/Src/at32f403a_407_board.c ****   */
  27:Core/Src/at32f403a_407_board.c **** 
  28:Core/Src/at32f403a_407_board.c **** #include "at32f403a_407_board.h"
  29:Core/Src/at32f403a_407_board.c **** 
  30:Core/Src/at32f403a_407_board.c **** /** @addtogroup AT32F403A_407_board
  31:Core/Src/at32f403a_407_board.c ****   * @{
  32:Core/Src/at32f403a_407_board.c ****   */
  33:Core/Src/at32f403a_407_board.c **** 
ARM GAS  /tmp/ccMX9qRY.s 			page 2


  34:Core/Src/at32f403a_407_board.c **** /** @defgroup BOARD
  35:Core/Src/at32f403a_407_board.c ****   * @brief onboard periph driver
  36:Core/Src/at32f403a_407_board.c ****   * @{
  37:Core/Src/at32f403a_407_board.c ****   */
  38:Core/Src/at32f403a_407_board.c **** 
  39:Core/Src/at32f403a_407_board.c **** /* delay macros */
  40:Core/Src/at32f403a_407_board.c **** #define STEP_DELAY_MS                    50
  41:Core/Src/at32f403a_407_board.c **** 
  42:Core/Src/at32f403a_407_board.c **** /* at-start led resouce array */
  43:Core/Src/at32f403a_407_board.c **** gpio_type *led_gpio_port[LED_NUM]        = {LED2_GPIO, LED3_GPIO, LED4_GPIO};
  44:Core/Src/at32f403a_407_board.c **** uint16_t led_gpio_pin[LED_NUM]           = {LED2_PIN, LED3_PIN, LED4_PIN};
  45:Core/Src/at32f403a_407_board.c **** crm_periph_clock_type led_gpio_crm_clk[LED_NUM] = {LED2_GPIO_CRM_CLK, LED3_GPIO_CRM_CLK, LED4_GPIO_
  46:Core/Src/at32f403a_407_board.c **** 
  47:Core/Src/at32f403a_407_board.c **** /* delay variable */
  48:Core/Src/at32f403a_407_board.c **** static __IO uint32_t fac_us;
  49:Core/Src/at32f403a_407_board.c **** static __IO uint32_t fac_ms;
  50:Core/Src/at32f403a_407_board.c **** 
  51:Core/Src/at32f403a_407_board.c **** /* support printf function, usemicrolib is unnecessary */
  52:Core/Src/at32f403a_407_board.c **** #if (__ARMCC_VERSION > 6000000)
  53:Core/Src/at32f403a_407_board.c ****   __asm (".global __use_no_semihosting\n\t");
  54:Core/Src/at32f403a_407_board.c ****   void _sys_exit(int x)
  55:Core/Src/at32f403a_407_board.c ****   {
  56:Core/Src/at32f403a_407_board.c ****     x = x;
  57:Core/Src/at32f403a_407_board.c ****   }
  58:Core/Src/at32f403a_407_board.c ****   /* __use_no_semihosting was requested, but _ttywrch was */
  59:Core/Src/at32f403a_407_board.c ****   void _ttywrch(int ch)
  60:Core/Src/at32f403a_407_board.c ****   {
  61:Core/Src/at32f403a_407_board.c ****     ch = ch;
  62:Core/Src/at32f403a_407_board.c ****   }
  63:Core/Src/at32f403a_407_board.c ****   FILE __stdout;
  64:Core/Src/at32f403a_407_board.c **** #else
  65:Core/Src/at32f403a_407_board.c ****  #ifdef __CC_ARM
  66:Core/Src/at32f403a_407_board.c ****   #pragma import(__use_no_semihosting)
  67:Core/Src/at32f403a_407_board.c ****   struct __FILE
  68:Core/Src/at32f403a_407_board.c ****   {
  69:Core/Src/at32f403a_407_board.c ****     int handle;
  70:Core/Src/at32f403a_407_board.c ****   };
  71:Core/Src/at32f403a_407_board.c ****   FILE __stdout;
  72:Core/Src/at32f403a_407_board.c ****   void _sys_exit(int x)
  73:Core/Src/at32f403a_407_board.c ****   {
  74:Core/Src/at32f403a_407_board.c ****     x = x;
  75:Core/Src/at32f403a_407_board.c ****   }
  76:Core/Src/at32f403a_407_board.c ****   /* __use_no_semihosting was requested, but _ttywrch was */
  77:Core/Src/at32f403a_407_board.c ****   void _ttywrch(int ch)
  78:Core/Src/at32f403a_407_board.c ****   {
  79:Core/Src/at32f403a_407_board.c ****     ch = ch;
  80:Core/Src/at32f403a_407_board.c ****   }
  81:Core/Src/at32f403a_407_board.c ****  #endif
  82:Core/Src/at32f403a_407_board.c **** #endif
  83:Core/Src/at32f403a_407_board.c **** 
  84:Core/Src/at32f403a_407_board.c **** #if defined (__GNUC__) && !defined (__clang__)
  85:Core/Src/at32f403a_407_board.c ****   #define PUTCHAR_PROTOTYPE int __io_putchar(int ch)
  86:Core/Src/at32f403a_407_board.c **** #else
  87:Core/Src/at32f403a_407_board.c ****   #define PUTCHAR_PROTOTYPE int fputc(int ch, FILE *f)
  88:Core/Src/at32f403a_407_board.c **** #endif
  89:Core/Src/at32f403a_407_board.c **** 
  90:Core/Src/at32f403a_407_board.c **** /**
ARM GAS  /tmp/ccMX9qRY.s 			page 3


  91:Core/Src/at32f403a_407_board.c ****   * @brief  retargets the c library printf function to the usart.
  92:Core/Src/at32f403a_407_board.c ****   * @param  none
  93:Core/Src/at32f403a_407_board.c ****   * @retval none
  94:Core/Src/at32f403a_407_board.c ****   */
  95:Core/Src/at32f403a_407_board.c **** PUTCHAR_PROTOTYPE
  96:Core/Src/at32f403a_407_board.c **** {
  26              		.loc 1 96 0
  27              		.cfi_startproc
  28              		@ args = 0, pretend = 0, frame = 0
  29              		@ frame_needed = 0, uses_anonymous_args = 0
  30              	.LVL0:
  31 0000 10B5     		push	{r4, lr}
  32              	.LCFI0:
  33              		.cfi_def_cfa_offset 8
  34              		.cfi_offset 4, -8
  35              		.cfi_offset 14, -4
  36 0002 0446     		mov	r4, r0
  37              	.LVL1:
  38              	.L2:
  97:Core/Src/at32f403a_407_board.c ****   while(usart_flag_get(PRINT_UART, USART_TDBE_FLAG) == RESET);
  39              		.loc 1 97 0 discriminator 1
  40 0004 8021     		movs	r1, #128
  41 0006 0548     		ldr	r0, .L4
  42 0008 FFF7FEFF 		bl	usart_flag_get
  43              	.LVL2:
  44 000c 0028     		cmp	r0, #0
  45 000e F9D0     		beq	.L2
  98:Core/Src/at32f403a_407_board.c ****   usart_data_transmit(PRINT_UART, ch);
  46              		.loc 1 98 0
  47 0010 A1B2     		uxth	r1, r4
  48 0012 0248     		ldr	r0, .L4
  49 0014 FFF7FEFF 		bl	usart_data_transmit
  50              	.LVL3:
  99:Core/Src/at32f403a_407_board.c ****   return ch;
 100:Core/Src/at32f403a_407_board.c **** }
  51              		.loc 1 100 0
  52 0018 2046     		mov	r0, r4
  53 001a 10BD     		pop	{r4, pc}
  54              	.LVL4:
  55              	.L5:
  56              		.align	2
  57              	.L4:
  58 001c 00380140 		.word	1073821696
  59              		.cfi_endproc
  60              	.LFE134:
  62              		.section	.text.uart_print_init,"ax",%progbits
  63              		.align	1
  64              		.global	uart_print_init
  65              		.syntax unified
  66              		.thumb
  67              		.thumb_func
  68              		.fpu softvfp
  70              	uart_print_init:
  71              	.LFB135:
 101:Core/Src/at32f403a_407_board.c **** 
 102:Core/Src/at32f403a_407_board.c **** /**
 103:Core/Src/at32f403a_407_board.c ****   * @brief  initialize uart
ARM GAS  /tmp/ccMX9qRY.s 			page 4


 104:Core/Src/at32f403a_407_board.c ****   * @param  baudrate: uart baudrate
 105:Core/Src/at32f403a_407_board.c ****   * @retval none
 106:Core/Src/at32f403a_407_board.c ****   */
 107:Core/Src/at32f403a_407_board.c **** void uart_print_init(uint32_t baudrate)
 108:Core/Src/at32f403a_407_board.c **** {
  72              		.loc 1 108 0
  73              		.cfi_startproc
  74              		@ args = 0, pretend = 0, frame = 8
  75              		@ frame_needed = 0, uses_anonymous_args = 0
  76              	.LVL5:
  77 0000 F0B5     		push	{r4, r5, r6, r7, lr}
  78              	.LCFI1:
  79              		.cfi_def_cfa_offset 20
  80              		.cfi_offset 4, -20
  81              		.cfi_offset 5, -16
  82              		.cfi_offset 6, -12
  83              		.cfi_offset 7, -8
  84              		.cfi_offset 14, -4
  85 0002 83B0     		sub	sp, sp, #12
  86              	.LCFI2:
  87              		.cfi_def_cfa_offset 32
  88 0004 0746     		mov	r7, r0
 109:Core/Src/at32f403a_407_board.c ****   gpio_init_type gpio_init_struct;
 110:Core/Src/at32f403a_407_board.c **** 
 111:Core/Src/at32f403a_407_board.c ****   /* enable the uart and gpio clock */
 112:Core/Src/at32f403a_407_board.c ****   crm_periph_clock_enable(PRINT_UART_CRM_CLK, TRUE);
  89              		.loc 1 112 0
  90 0006 0121     		movs	r1, #1
  91 0008 1648     		ldr	r0, .L8
  92              	.LVL6:
  93 000a FFF7FEFF 		bl	crm_periph_clock_enable
  94              	.LVL7:
 113:Core/Src/at32f403a_407_board.c ****   crm_periph_clock_enable(PRINT_UART_TX_GPIO_CRM_CLK, TRUE);
  95              		.loc 1 113 0
  96 000e 0121     		movs	r1, #1
  97 0010 1548     		ldr	r0, .L8+4
  98 0012 FFF7FEFF 		bl	crm_periph_clock_enable
  99              	.LVL8:
 114:Core/Src/at32f403a_407_board.c **** 
 115:Core/Src/at32f403a_407_board.c ****   gpio_default_para_init(&gpio_init_struct);
 100              		.loc 1 115 0
 101 0016 6846     		mov	r0, sp
 102 0018 FFF7FEFF 		bl	gpio_default_para_init
 103              	.LVL9:
 116:Core/Src/at32f403a_407_board.c **** 
 117:Core/Src/at32f403a_407_board.c ****   /* configure the uart tx pin */
 118:Core/Src/at32f403a_407_board.c ****   gpio_init_struct.gpio_drive_strength = GPIO_DRIVE_STRENGTH_STRONGER;
 104              		.loc 1 118 0
 105 001c 0125     		movs	r5, #1
 106 001e 8DF80750 		strb	r5, [sp, #7]
 119:Core/Src/at32f403a_407_board.c ****   gpio_init_struct.gpio_out_type  = GPIO_OUTPUT_PUSH_PULL;
 107              		.loc 1 119 0
 108 0022 0026     		movs	r6, #0
 109 0024 8DF80460 		strb	r6, [sp, #4]
 120:Core/Src/at32f403a_407_board.c ****   gpio_init_struct.gpio_mode = GPIO_MODE_MUX;
 110              		.loc 1 120 0
 111 0028 0823     		movs	r3, #8
ARM GAS  /tmp/ccMX9qRY.s 			page 5


 112 002a 8DF80630 		strb	r3, [sp, #6]
 121:Core/Src/at32f403a_407_board.c ****   gpio_init_struct.gpio_pins = PRINT_UART_TX_PIN;
 113              		.loc 1 121 0
 114 002e 4FF40073 		mov	r3, #512
 115 0032 0093     		str	r3, [sp]
 122:Core/Src/at32f403a_407_board.c ****   gpio_init_struct.gpio_pull = GPIO_PULL_NONE;
 116              		.loc 1 122 0
 117 0034 0423     		movs	r3, #4
 118 0036 8DF80530 		strb	r3, [sp, #5]
 123:Core/Src/at32f403a_407_board.c ****   gpio_init(PRINT_UART_TX_GPIO, &gpio_init_struct);
 119              		.loc 1 123 0
 120 003a 6946     		mov	r1, sp
 121 003c 0B48     		ldr	r0, .L8+8
 122 003e FFF7FEFF 		bl	gpio_init
 123              	.LVL10:
 124:Core/Src/at32f403a_407_board.c **** 
 125:Core/Src/at32f403a_407_board.c ****   /* configure uart param */
 126:Core/Src/at32f403a_407_board.c ****   usart_init(PRINT_UART, baudrate, USART_DATA_8BITS, USART_STOP_1_BIT);
 124              		.loc 1 126 0
 125 0042 0B4C     		ldr	r4, .L8+12
 126 0044 3346     		mov	r3, r6
 127 0046 3246     		mov	r2, r6
 128 0048 3946     		mov	r1, r7
 129 004a 2046     		mov	r0, r4
 130 004c FFF7FEFF 		bl	usart_init
 131              	.LVL11:
 127:Core/Src/at32f403a_407_board.c ****   usart_transmitter_enable(PRINT_UART, TRUE);
 132              		.loc 1 127 0
 133 0050 2946     		mov	r1, r5
 134 0052 2046     		mov	r0, r4
 135 0054 FFF7FEFF 		bl	usart_transmitter_enable
 136              	.LVL12:
 128:Core/Src/at32f403a_407_board.c ****   usart_enable(PRINT_UART, TRUE);
 137              		.loc 1 128 0
 138 0058 2946     		mov	r1, r5
 139 005a 2046     		mov	r0, r4
 140 005c FFF7FEFF 		bl	usart_enable
 141              	.LVL13:
 129:Core/Src/at32f403a_407_board.c **** }
 142              		.loc 1 129 0
 143 0060 03B0     		add	sp, sp, #12
 144              	.LCFI3:
 145              		.cfi_def_cfa_offset 20
 146              		@ sp needed
 147 0062 F0BD     		pop	{r4, r5, r6, r7, pc}
 148              	.LVL14:
 149              	.L9:
 150              		.align	2
 151              	.L8:
 152 0064 0E001800 		.word	1572878
 153 0068 02001800 		.word	1572866
 154 006c 00080140 		.word	1073809408
 155 0070 00380140 		.word	1073821696
 156              		.cfi_endproc
 157              	.LFE135:
 159              		.section	.text.at32_button_init,"ax",%progbits
 160              		.align	1
ARM GAS  /tmp/ccMX9qRY.s 			page 6


 161              		.global	at32_button_init
 162              		.syntax unified
 163              		.thumb
 164              		.thumb_func
 165              		.fpu softvfp
 167              	at32_button_init:
 168              	.LFB137:
 130:Core/Src/at32f403a_407_board.c **** 
 131:Core/Src/at32f403a_407_board.c **** /**
 132:Core/Src/at32f403a_407_board.c ****   * @brief  board initialize interface init led and button
 133:Core/Src/at32f403a_407_board.c ****   * @param  none
 134:Core/Src/at32f403a_407_board.c ****   * @retval none
 135:Core/Src/at32f403a_407_board.c ****   */
 136:Core/Src/at32f403a_407_board.c **** void at32_board_init()
 137:Core/Src/at32f403a_407_board.c **** {
 138:Core/Src/at32f403a_407_board.c ****   /* initialize delay function */
 139:Core/Src/at32f403a_407_board.c ****   delay_init();
 140:Core/Src/at32f403a_407_board.c **** 
 141:Core/Src/at32f403a_407_board.c ****   /* configure led in at_start_board */
 142:Core/Src/at32f403a_407_board.c ****   at32_led_init(LED2);
 143:Core/Src/at32f403a_407_board.c ****   at32_led_init(LED3);
 144:Core/Src/at32f403a_407_board.c ****   at32_led_init(LED4);
 145:Core/Src/at32f403a_407_board.c ****   at32_led_off(LED2);
 146:Core/Src/at32f403a_407_board.c ****   at32_led_off(LED3);
 147:Core/Src/at32f403a_407_board.c ****   at32_led_off(LED4);
 148:Core/Src/at32f403a_407_board.c **** 
 149:Core/Src/at32f403a_407_board.c ****   /* configure button in at_start board */
 150:Core/Src/at32f403a_407_board.c ****   at32_button_init();
 151:Core/Src/at32f403a_407_board.c **** }
 152:Core/Src/at32f403a_407_board.c **** 
 153:Core/Src/at32f403a_407_board.c **** /**
 154:Core/Src/at32f403a_407_board.c ****   * @brief  configure button gpio
 155:Core/Src/at32f403a_407_board.c ****   * @param  button: specifies the button to be configured.
 156:Core/Src/at32f403a_407_board.c ****   * @retval none
 157:Core/Src/at32f403a_407_board.c ****   */
 158:Core/Src/at32f403a_407_board.c **** void at32_button_init(void)
 159:Core/Src/at32f403a_407_board.c **** {
 169              		.loc 1 159 0
 170              		.cfi_startproc
 171              		@ args = 0, pretend = 0, frame = 8
 172              		@ frame_needed = 0, uses_anonymous_args = 0
 173 0000 00B5     		push	{lr}
 174              	.LCFI4:
 175              		.cfi_def_cfa_offset 4
 176              		.cfi_offset 14, -4
 177 0002 83B0     		sub	sp, sp, #12
 178              	.LCFI5:
 179              		.cfi_def_cfa_offset 16
 160:Core/Src/at32f403a_407_board.c ****   gpio_init_type gpio_init_struct;
 161:Core/Src/at32f403a_407_board.c **** 
 162:Core/Src/at32f403a_407_board.c ****   /* enable the button clock */
 163:Core/Src/at32f403a_407_board.c ****   crm_periph_clock_enable(USER_BUTTON_CRM_CLK, TRUE);
 180              		.loc 1 163 0
 181 0004 0121     		movs	r1, #1
 182 0006 0C48     		ldr	r0, .L12
 183 0008 FFF7FEFF 		bl	crm_periph_clock_enable
 184              	.LVL15:
ARM GAS  /tmp/ccMX9qRY.s 			page 7


 164:Core/Src/at32f403a_407_board.c **** 
 165:Core/Src/at32f403a_407_board.c ****   /* set default parameter */
 166:Core/Src/at32f403a_407_board.c ****   gpio_default_para_init(&gpio_init_struct);
 185              		.loc 1 166 0
 186 000c 6846     		mov	r0, sp
 187 000e FFF7FEFF 		bl	gpio_default_para_init
 188              	.LVL16:
 167:Core/Src/at32f403a_407_board.c **** 
 168:Core/Src/at32f403a_407_board.c ****   /* configure button pin as input with pull-up/pull-down */
 169:Core/Src/at32f403a_407_board.c ****   gpio_init_struct.gpio_drive_strength = GPIO_DRIVE_STRENGTH_STRONGER;
 189              		.loc 1 169 0
 190 0012 0123     		movs	r3, #1
 191 0014 8DF80730 		strb	r3, [sp, #7]
 170:Core/Src/at32f403a_407_board.c ****   gpio_init_struct.gpio_out_type  = GPIO_OUTPUT_PUSH_PULL;
 192              		.loc 1 170 0
 193 0018 0022     		movs	r2, #0
 194 001a 8DF80420 		strb	r2, [sp, #4]
 171:Core/Src/at32f403a_407_board.c ****   gpio_init_struct.gpio_mode = GPIO_MODE_INPUT;
 195              		.loc 1 171 0
 196 001e 8DF80620 		strb	r2, [sp, #6]
 172:Core/Src/at32f403a_407_board.c ****   gpio_init_struct.gpio_pins = USER_BUTTON_PIN;
 197              		.loc 1 172 0
 198 0022 0093     		str	r3, [sp]
 173:Core/Src/at32f403a_407_board.c ****   gpio_init_struct.gpio_pull = GPIO_PULL_DOWN;
 199              		.loc 1 173 0
 200 0024 2823     		movs	r3, #40
 201 0026 8DF80530 		strb	r3, [sp, #5]
 174:Core/Src/at32f403a_407_board.c ****   gpio_init(USER_BUTTON_PORT, &gpio_init_struct);
 202              		.loc 1 174 0
 203 002a 6946     		mov	r1, sp
 204 002c 0348     		ldr	r0, .L12+4
 205 002e FFF7FEFF 		bl	gpio_init
 206              	.LVL17:
 175:Core/Src/at32f403a_407_board.c **** }
 207              		.loc 1 175 0
 208 0032 03B0     		add	sp, sp, #12
 209              	.LCFI6:
 210              		.cfi_def_cfa_offset 4
 211              		@ sp needed
 212 0034 5DF804FB 		ldr	pc, [sp], #4
 213              	.L13:
 214              		.align	2
 215              	.L12:
 216 0038 02001800 		.word	1572866
 217 003c 00080140 		.word	1073809408
 218              		.cfi_endproc
 219              	.LFE137:
 221              		.section	.text.at32_button_state,"ax",%progbits
 222              		.align	1
 223              		.global	at32_button_state
 224              		.syntax unified
 225              		.thumb
 226              		.thumb_func
 227              		.fpu softvfp
 229              	at32_button_state:
 230              	.LFB138:
 176:Core/Src/at32f403a_407_board.c **** 
ARM GAS  /tmp/ccMX9qRY.s 			page 8


 177:Core/Src/at32f403a_407_board.c **** /**
 178:Core/Src/at32f403a_407_board.c ****   * @brief  returns the selected button state
 179:Core/Src/at32f403a_407_board.c ****   * @param  none
 180:Core/Src/at32f403a_407_board.c ****   * @retval the button gpio pin value
 181:Core/Src/at32f403a_407_board.c ****   */
 182:Core/Src/at32f403a_407_board.c **** uint8_t at32_button_state(void)
 183:Core/Src/at32f403a_407_board.c **** {
 231              		.loc 1 183 0
 232              		.cfi_startproc
 233              		@ args = 0, pretend = 0, frame = 0
 234              		@ frame_needed = 0, uses_anonymous_args = 0
 235 0000 08B5     		push	{r3, lr}
 236              	.LCFI7:
 237              		.cfi_def_cfa_offset 8
 238              		.cfi_offset 3, -8
 239              		.cfi_offset 14, -4
 184:Core/Src/at32f403a_407_board.c ****   return gpio_input_data_bit_read(USER_BUTTON_PORT, USER_BUTTON_PIN);
 240              		.loc 1 184 0
 241 0002 0121     		movs	r1, #1
 242 0004 0148     		ldr	r0, .L16
 243 0006 FFF7FEFF 		bl	gpio_input_data_bit_read
 244              	.LVL18:
 185:Core/Src/at32f403a_407_board.c **** }
 245              		.loc 1 185 0
 246 000a 08BD     		pop	{r3, pc}
 247              	.L17:
 248              		.align	2
 249              	.L16:
 250 000c 00080140 		.word	1073809408
 251              		.cfi_endproc
 252              	.LFE138:
 254              		.section	.text.at32_led_init,"ax",%progbits
 255              		.align	1
 256              		.global	at32_led_init
 257              		.syntax unified
 258              		.thumb
 259              		.thumb_func
 260              		.fpu softvfp
 262              	at32_led_init:
 263              	.LFB140:
 186:Core/Src/at32f403a_407_board.c **** 
 187:Core/Src/at32f403a_407_board.c **** /**
 188:Core/Src/at32f403a_407_board.c ****   * @brief  returns which button have press down
 189:Core/Src/at32f403a_407_board.c ****   * @param  none
 190:Core/Src/at32f403a_407_board.c ****   * @retval the button have press down
 191:Core/Src/at32f403a_407_board.c ****   */
 192:Core/Src/at32f403a_407_board.c **** button_type at32_button_press()
 193:Core/Src/at32f403a_407_board.c **** {
 194:Core/Src/at32f403a_407_board.c ****   static uint8_t pressed = 1;
 195:Core/Src/at32f403a_407_board.c ****   /* get button state in at_start board */
 196:Core/Src/at32f403a_407_board.c ****   if((pressed == 1) && (at32_button_state() != RESET))
 197:Core/Src/at32f403a_407_board.c ****   {
 198:Core/Src/at32f403a_407_board.c ****     /* debounce */
 199:Core/Src/at32f403a_407_board.c ****     pressed = 0;
 200:Core/Src/at32f403a_407_board.c ****     delay_ms(10);
 201:Core/Src/at32f403a_407_board.c ****     if(at32_button_state() != RESET)
 202:Core/Src/at32f403a_407_board.c ****       return USER_BUTTON;
ARM GAS  /tmp/ccMX9qRY.s 			page 9


 203:Core/Src/at32f403a_407_board.c ****   }
 204:Core/Src/at32f403a_407_board.c ****   else if(at32_button_state() == RESET)
 205:Core/Src/at32f403a_407_board.c ****   {
 206:Core/Src/at32f403a_407_board.c ****     pressed = 1;
 207:Core/Src/at32f403a_407_board.c ****   }
 208:Core/Src/at32f403a_407_board.c ****   return NO_BUTTON;
 209:Core/Src/at32f403a_407_board.c **** }
 210:Core/Src/at32f403a_407_board.c **** 
 211:Core/Src/at32f403a_407_board.c **** /**
 212:Core/Src/at32f403a_407_board.c ****   * @brief  configure led gpio
 213:Core/Src/at32f403a_407_board.c ****   * @param  led: specifies the led to be configured.
 214:Core/Src/at32f403a_407_board.c ****   * @retval none
 215:Core/Src/at32f403a_407_board.c ****   */
 216:Core/Src/at32f403a_407_board.c **** void at32_led_init(led_type led)
 217:Core/Src/at32f403a_407_board.c **** {
 264              		.loc 1 217 0
 265              		.cfi_startproc
 266              		@ args = 0, pretend = 0, frame = 8
 267              		@ frame_needed = 0, uses_anonymous_args = 0
 268              	.LVL19:
 269 0000 10B5     		push	{r4, lr}
 270              	.LCFI8:
 271              		.cfi_def_cfa_offset 8
 272              		.cfi_offset 4, -8
 273              		.cfi_offset 14, -4
 274 0002 82B0     		sub	sp, sp, #8
 275              	.LCFI9:
 276              		.cfi_def_cfa_offset 16
 277 0004 0446     		mov	r4, r0
 218:Core/Src/at32f403a_407_board.c ****   gpio_init_type gpio_init_struct;
 219:Core/Src/at32f403a_407_board.c **** 
 220:Core/Src/at32f403a_407_board.c ****   /* enable the led clock */
 221:Core/Src/at32f403a_407_board.c ****   crm_periph_clock_enable(led_gpio_crm_clk[led], TRUE);
 278              		.loc 1 221 0
 279 0006 0121     		movs	r1, #1
 280 0008 0F4B     		ldr	r3, .L20
 281 000a 53F82000 		ldr	r0, [r3, r0, lsl #2]
 282              	.LVL20:
 283 000e FFF7FEFF 		bl	crm_periph_clock_enable
 284              	.LVL21:
 222:Core/Src/at32f403a_407_board.c **** 
 223:Core/Src/at32f403a_407_board.c ****   /* set default parameter */
 224:Core/Src/at32f403a_407_board.c ****   gpio_default_para_init(&gpio_init_struct);
 285              		.loc 1 224 0
 286 0012 6846     		mov	r0, sp
 287 0014 FFF7FEFF 		bl	gpio_default_para_init
 288              	.LVL22:
 225:Core/Src/at32f403a_407_board.c **** 
 226:Core/Src/at32f403a_407_board.c ****   /* configure the led gpio */
 227:Core/Src/at32f403a_407_board.c ****   gpio_init_struct.gpio_drive_strength = GPIO_DRIVE_STRENGTH_STRONGER;
 289              		.loc 1 227 0
 290 0018 0123     		movs	r3, #1
 291 001a 8DF80730 		strb	r3, [sp, #7]
 228:Core/Src/at32f403a_407_board.c ****   gpio_init_struct.gpio_out_type  = GPIO_OUTPUT_PUSH_PULL;
 292              		.loc 1 228 0
 293 001e 0023     		movs	r3, #0
 294 0020 8DF80430 		strb	r3, [sp, #4]
ARM GAS  /tmp/ccMX9qRY.s 			page 10


 229:Core/Src/at32f403a_407_board.c ****   gpio_init_struct.gpio_mode = GPIO_MODE_OUTPUT;
 295              		.loc 1 229 0
 296 0024 1023     		movs	r3, #16
 297 0026 8DF80630 		strb	r3, [sp, #6]
 230:Core/Src/at32f403a_407_board.c ****   gpio_init_struct.gpio_pins = led_gpio_pin[led];
 298              		.loc 1 230 0
 299 002a 084B     		ldr	r3, .L20+4
 300 002c 33F81430 		ldrh	r3, [r3, r4, lsl #1]
 301 0030 0093     		str	r3, [sp]
 231:Core/Src/at32f403a_407_board.c ****   gpio_init_struct.gpio_pull = GPIO_PULL_NONE;
 302              		.loc 1 231 0
 303 0032 0423     		movs	r3, #4
 304 0034 8DF80530 		strb	r3, [sp, #5]
 232:Core/Src/at32f403a_407_board.c ****   gpio_init(led_gpio_port[led], &gpio_init_struct);
 305              		.loc 1 232 0
 306 0038 6946     		mov	r1, sp
 307 003a 054B     		ldr	r3, .L20+8
 308 003c 53F82400 		ldr	r0, [r3, r4, lsl #2]
 309 0040 FFF7FEFF 		bl	gpio_init
 310              	.LVL23:
 233:Core/Src/at32f403a_407_board.c **** }
 311              		.loc 1 233 0
 312 0044 02B0     		add	sp, sp, #8
 313              	.LCFI10:
 314              		.cfi_def_cfa_offset 8
 315              		@ sp needed
 316 0046 10BD     		pop	{r4, pc}
 317              	.L21:
 318              		.align	2
 319              	.L20:
 320 0048 00000000 		.word	.LANCHOR0
 321 004c 00000000 		.word	.LANCHOR1
 322 0050 00000000 		.word	.LANCHOR2
 323              		.cfi_endproc
 324              	.LFE140:
 326              		.section	.text.at32_led_on,"ax",%progbits
 327              		.align	1
 328              		.global	at32_led_on
 329              		.syntax unified
 330              		.thumb
 331              		.thumb_func
 332              		.fpu softvfp
 334              	at32_led_on:
 335              	.LFB141:
 234:Core/Src/at32f403a_407_board.c **** 
 235:Core/Src/at32f403a_407_board.c **** /**
 236:Core/Src/at32f403a_407_board.c ****   * @brief  turns selected led on.
 237:Core/Src/at32f403a_407_board.c ****   * @param  led: specifies the led to be set on.
 238:Core/Src/at32f403a_407_board.c ****   *   this parameter can be one of following parameters:
 239:Core/Src/at32f403a_407_board.c ****   *     @arg LED2
 240:Core/Src/at32f403a_407_board.c ****   *     @arg LED3
 241:Core/Src/at32f403a_407_board.c ****   *     @arg LED4
 242:Core/Src/at32f403a_407_board.c ****   * @retval none
 243:Core/Src/at32f403a_407_board.c ****   */
 244:Core/Src/at32f403a_407_board.c **** void at32_led_on(led_type led)
 245:Core/Src/at32f403a_407_board.c **** {
 336              		.loc 1 245 0
ARM GAS  /tmp/ccMX9qRY.s 			page 11


 337              		.cfi_startproc
 338              		@ args = 0, pretend = 0, frame = 0
 339              		@ frame_needed = 0, uses_anonymous_args = 0
 340              		@ link register save eliminated.
 341              	.LVL24:
 246:Core/Src/at32f403a_407_board.c ****   if(led > (LED_NUM - 1))
 342              		.loc 1 246 0
 343 0000 0228     		cmp	r0, #2
 344 0002 07D8     		bhi	.L22
 247:Core/Src/at32f403a_407_board.c ****     return;
 248:Core/Src/at32f403a_407_board.c ****   if(led_gpio_pin[led])
 345              		.loc 1 248 0
 346 0004 044B     		ldr	r3, .L24
 347 0006 33F81030 		ldrh	r3, [r3, r0, lsl #1]
 348 000a 1BB1     		cbz	r3, .L22
 249:Core/Src/at32f403a_407_board.c ****     led_gpio_port[led]->clr = led_gpio_pin[led];
 349              		.loc 1 249 0
 350 000c 034A     		ldr	r2, .L24+4
 351 000e 52F82020 		ldr	r2, [r2, r0, lsl #2]
 352 0012 5361     		str	r3, [r2, #20]
 353              	.L22:
 354 0014 7047     		bx	lr
 355              	.L25:
 356 0016 00BF     		.align	2
 357              	.L24:
 358 0018 00000000 		.word	.LANCHOR1
 359 001c 00000000 		.word	.LANCHOR2
 360              		.cfi_endproc
 361              	.LFE141:
 363              		.section	.text.at32_led_off,"ax",%progbits
 364              		.align	1
 365              		.global	at32_led_off
 366              		.syntax unified
 367              		.thumb
 368              		.thumb_func
 369              		.fpu softvfp
 371              	at32_led_off:
 372              	.LFB142:
 250:Core/Src/at32f403a_407_board.c **** }
 251:Core/Src/at32f403a_407_board.c **** 
 252:Core/Src/at32f403a_407_board.c **** /**
 253:Core/Src/at32f403a_407_board.c ****   * @brief  turns selected led off.
 254:Core/Src/at32f403a_407_board.c ****   * @param  led: specifies the led to be set off.
 255:Core/Src/at32f403a_407_board.c ****   *   this parameter can be one of following parameters:
 256:Core/Src/at32f403a_407_board.c ****   *     @arg LED2
 257:Core/Src/at32f403a_407_board.c ****   *     @arg LED3
 258:Core/Src/at32f403a_407_board.c ****   *     @arg LED4
 259:Core/Src/at32f403a_407_board.c ****   * @retval none
 260:Core/Src/at32f403a_407_board.c ****   */
 261:Core/Src/at32f403a_407_board.c **** void at32_led_off(led_type led)
 262:Core/Src/at32f403a_407_board.c **** {
 373              		.loc 1 262 0
 374              		.cfi_startproc
 375              		@ args = 0, pretend = 0, frame = 0
 376              		@ frame_needed = 0, uses_anonymous_args = 0
 377              		@ link register save eliminated.
 378              	.LVL25:
ARM GAS  /tmp/ccMX9qRY.s 			page 12


 263:Core/Src/at32f403a_407_board.c ****   if(led > (LED_NUM - 1))
 379              		.loc 1 263 0
 380 0000 0228     		cmp	r0, #2
 381 0002 07D8     		bhi	.L26
 264:Core/Src/at32f403a_407_board.c ****     return;
 265:Core/Src/at32f403a_407_board.c ****   if(led_gpio_pin[led])
 382              		.loc 1 265 0
 383 0004 044B     		ldr	r3, .L28
 384 0006 33F81030 		ldrh	r3, [r3, r0, lsl #1]
 385 000a 1BB1     		cbz	r3, .L26
 266:Core/Src/at32f403a_407_board.c ****     led_gpio_port[led]->scr = led_gpio_pin[led];
 386              		.loc 1 266 0
 387 000c 034A     		ldr	r2, .L28+4
 388 000e 52F82020 		ldr	r2, [r2, r0, lsl #2]
 389 0012 1361     		str	r3, [r2, #16]
 390              	.L26:
 391 0014 7047     		bx	lr
 392              	.L29:
 393 0016 00BF     		.align	2
 394              	.L28:
 395 0018 00000000 		.word	.LANCHOR1
 396 001c 00000000 		.word	.LANCHOR2
 397              		.cfi_endproc
 398              	.LFE142:
 400              		.section	.text.at32_led_toggle,"ax",%progbits
 401              		.align	1
 402              		.global	at32_led_toggle
 403              		.syntax unified
 404              		.thumb
 405              		.thumb_func
 406              		.fpu softvfp
 408              	at32_led_toggle:
 409              	.LFB143:
 267:Core/Src/at32f403a_407_board.c **** }
 268:Core/Src/at32f403a_407_board.c **** 
 269:Core/Src/at32f403a_407_board.c **** /**
 270:Core/Src/at32f403a_407_board.c ****   * @brief  turns selected led tooggle.
 271:Core/Src/at32f403a_407_board.c ****   * @param  led: specifies the led to be set off.
 272:Core/Src/at32f403a_407_board.c ****   *   this parameter can be one of following parameters:
 273:Core/Src/at32f403a_407_board.c ****   *     @arg LED2
 274:Core/Src/at32f403a_407_board.c ****   *     @arg LED3
 275:Core/Src/at32f403a_407_board.c ****   *     @arg LED4
 276:Core/Src/at32f403a_407_board.c ****   * @retval none
 277:Core/Src/at32f403a_407_board.c ****   */
 278:Core/Src/at32f403a_407_board.c **** void at32_led_toggle(led_type led)
 279:Core/Src/at32f403a_407_board.c **** {
 410              		.loc 1 279 0
 411              		.cfi_startproc
 412              		@ args = 0, pretend = 0, frame = 0
 413              		@ frame_needed = 0, uses_anonymous_args = 0
 414              		@ link register save eliminated.
 415              	.LVL26:
 280:Core/Src/at32f403a_407_board.c ****   if(led > (LED_NUM - 1))
 416              		.loc 1 280 0
 417 0000 0228     		cmp	r0, #2
 418 0002 09D8     		bhi	.L30
 281:Core/Src/at32f403a_407_board.c ****     return;
ARM GAS  /tmp/ccMX9qRY.s 			page 13


 282:Core/Src/at32f403a_407_board.c ****   if(led_gpio_pin[led])
 419              		.loc 1 282 0
 420 0004 054B     		ldr	r3, .L32
 421 0006 33F81030 		ldrh	r3, [r3, r0, lsl #1]
 422 000a 2BB1     		cbz	r3, .L30
 283:Core/Src/at32f403a_407_board.c ****     led_gpio_port[led]->odt ^= led_gpio_pin[led];
 423              		.loc 1 283 0
 424 000c 044A     		ldr	r2, .L32+4
 425 000e 52F82010 		ldr	r1, [r2, r0, lsl #2]
 426 0012 CA68     		ldr	r2, [r1, #12]
 427 0014 5340     		eors	r3, r3, r2
 428 0016 CB60     		str	r3, [r1, #12]
 429              	.L30:
 430 0018 7047     		bx	lr
 431              	.L33:
 432 001a 00BF     		.align	2
 433              	.L32:
 434 001c 00000000 		.word	.LANCHOR1
 435 0020 00000000 		.word	.LANCHOR2
 436              		.cfi_endproc
 437              	.LFE143:
 439              		.section	.text.delay_init,"ax",%progbits
 440              		.align	1
 441              		.global	delay_init
 442              		.syntax unified
 443              		.thumb
 444              		.thumb_func
 445              		.fpu softvfp
 447              	delay_init:
 448              	.LFB144:
 284:Core/Src/at32f403a_407_board.c **** }
 285:Core/Src/at32f403a_407_board.c **** 
 286:Core/Src/at32f403a_407_board.c **** /**
 287:Core/Src/at32f403a_407_board.c ****   * @brief  initialize delay function
 288:Core/Src/at32f403a_407_board.c ****   * @param  none
 289:Core/Src/at32f403a_407_board.c ****   * @retval none
 290:Core/Src/at32f403a_407_board.c ****   */
 291:Core/Src/at32f403a_407_board.c **** void delay_init()
 292:Core/Src/at32f403a_407_board.c **** {
 449              		.loc 1 292 0
 450              		.cfi_startproc
 451              		@ args = 0, pretend = 0, frame = 0
 452              		@ frame_needed = 0, uses_anonymous_args = 0
 453 0000 08B5     		push	{r3, lr}
 454              	.LCFI11:
 455              		.cfi_def_cfa_offset 8
 456              		.cfi_offset 3, -8
 457              		.cfi_offset 14, -4
 293:Core/Src/at32f403a_407_board.c ****   /* configure systick */
 294:Core/Src/at32f403a_407_board.c ****   systick_clock_source_config(SYSTICK_CLOCK_SOURCE_AHBCLK_NODIV);
 458              		.loc 1 294 0
 459 0002 0420     		movs	r0, #4
 460 0004 FFF7FEFF 		bl	systick_clock_source_config
 461              	.LVL27:
 295:Core/Src/at32f403a_407_board.c ****   fac_us = system_core_clock / (1000000U);
 462              		.loc 1 295 0
 463 0008 074B     		ldr	r3, .L36
ARM GAS  /tmp/ccMX9qRY.s 			page 14


 464 000a 1B68     		ldr	r3, [r3]
 465 000c 074A     		ldr	r2, .L36+4
 466 000e A2FB0323 		umull	r2, r3, r2, r3
 467 0012 9B0C     		lsrs	r3, r3, #18
 468 0014 064A     		ldr	r2, .L36+8
 469 0016 1360     		str	r3, [r2]
 296:Core/Src/at32f403a_407_board.c ****   fac_ms = fac_us * (1000U);
 470              		.loc 1 296 0
 471 0018 1268     		ldr	r2, [r2]
 472 001a 4FF47A73 		mov	r3, #1000
 473 001e 03FB02F3 		mul	r3, r3, r2
 474 0022 044A     		ldr	r2, .L36+12
 475 0024 1360     		str	r3, [r2]
 476 0026 08BD     		pop	{r3, pc}
 477              	.L37:
 478              		.align	2
 479              	.L36:
 480 0028 00000000 		.word	system_core_clock
 481 002c 83DE1B43 		.word	1125899907
 482 0030 00000000 		.word	.LANCHOR3
 483 0034 00000000 		.word	.LANCHOR4
 484              		.cfi_endproc
 485              	.LFE144:
 487              		.section	.text.at32_board_init,"ax",%progbits
 488              		.align	1
 489              		.global	at32_board_init
 490              		.syntax unified
 491              		.thumb
 492              		.thumb_func
 493              		.fpu softvfp
 495              	at32_board_init:
 496              	.LFB136:
 137:Core/Src/at32f403a_407_board.c ****   /* initialize delay function */
 497              		.loc 1 137 0
 498              		.cfi_startproc
 499              		@ args = 0, pretend = 0, frame = 0
 500              		@ frame_needed = 0, uses_anonymous_args = 0
 501 0000 08B5     		push	{r3, lr}
 502              	.LCFI12:
 503              		.cfi_def_cfa_offset 8
 504              		.cfi_offset 3, -8
 505              		.cfi_offset 14, -4
 139:Core/Src/at32f403a_407_board.c **** 
 506              		.loc 1 139 0
 507 0002 FFF7FEFF 		bl	delay_init
 508              	.LVL28:
 142:Core/Src/at32f403a_407_board.c ****   at32_led_init(LED3);
 509              		.loc 1 142 0
 510 0006 0020     		movs	r0, #0
 511 0008 FFF7FEFF 		bl	at32_led_init
 512              	.LVL29:
 143:Core/Src/at32f403a_407_board.c ****   at32_led_init(LED4);
 513              		.loc 1 143 0
 514 000c 0120     		movs	r0, #1
 515 000e FFF7FEFF 		bl	at32_led_init
 516              	.LVL30:
 144:Core/Src/at32f403a_407_board.c ****   at32_led_off(LED2);
ARM GAS  /tmp/ccMX9qRY.s 			page 15


 517              		.loc 1 144 0
 518 0012 0220     		movs	r0, #2
 519 0014 FFF7FEFF 		bl	at32_led_init
 520              	.LVL31:
 145:Core/Src/at32f403a_407_board.c ****   at32_led_off(LED3);
 521              		.loc 1 145 0
 522 0018 0020     		movs	r0, #0
 523 001a FFF7FEFF 		bl	at32_led_off
 524              	.LVL32:
 146:Core/Src/at32f403a_407_board.c ****   at32_led_off(LED4);
 525              		.loc 1 146 0
 526 001e 0120     		movs	r0, #1
 527 0020 FFF7FEFF 		bl	at32_led_off
 528              	.LVL33:
 147:Core/Src/at32f403a_407_board.c **** 
 529              		.loc 1 147 0
 530 0024 0220     		movs	r0, #2
 531 0026 FFF7FEFF 		bl	at32_led_off
 532              	.LVL34:
 150:Core/Src/at32f403a_407_board.c **** }
 533              		.loc 1 150 0
 534 002a FFF7FEFF 		bl	at32_button_init
 535              	.LVL35:
 536 002e 08BD     		pop	{r3, pc}
 537              		.cfi_endproc
 538              	.LFE136:
 540              		.section	.text.delay_us,"ax",%progbits
 541              		.align	1
 542              		.global	delay_us
 543              		.syntax unified
 544              		.thumb
 545              		.thumb_func
 546              		.fpu softvfp
 548              	delay_us:
 549              	.LFB145:
 297:Core/Src/at32f403a_407_board.c **** }
 298:Core/Src/at32f403a_407_board.c **** 
 299:Core/Src/at32f403a_407_board.c **** /**
 300:Core/Src/at32f403a_407_board.c ****   * @brief  inserts a delay time.
 301:Core/Src/at32f403a_407_board.c ****   * @param  nus: specifies the delay time length, in microsecond.
 302:Core/Src/at32f403a_407_board.c ****   * @retval none
 303:Core/Src/at32f403a_407_board.c ****   */
 304:Core/Src/at32f403a_407_board.c **** void delay_us(uint32_t nus)
 305:Core/Src/at32f403a_407_board.c **** {
 550              		.loc 1 305 0
 551              		.cfi_startproc
 552              		@ args = 0, pretend = 0, frame = 0
 553              		@ frame_needed = 0, uses_anonymous_args = 0
 554              		@ link register save eliminated.
 555              	.LVL36:
 306:Core/Src/at32f403a_407_board.c ****   uint32_t temp = 0;
 307:Core/Src/at32f403a_407_board.c ****   SysTick->LOAD = (uint32_t)(nus * fac_us);
 556              		.loc 1 307 0
 557 0000 0C4B     		ldr	r3, .L42
 558 0002 1B68     		ldr	r3, [r3]
 559 0004 00FB03F0 		mul	r0, r0, r3
 560              	.LVL37:
ARM GAS  /tmp/ccMX9qRY.s 			page 16


 561 0008 0B4B     		ldr	r3, .L42+4
 562 000a 5860     		str	r0, [r3, #4]
 308:Core/Src/at32f403a_407_board.c ****   SysTick->VAL = 0x00;
 563              		.loc 1 308 0
 564 000c 0022     		movs	r2, #0
 565 000e 9A60     		str	r2, [r3, #8]
 309:Core/Src/at32f403a_407_board.c ****   SysTick->CTRL |= SysTick_CTRL_ENABLE_Msk ;
 566              		.loc 1 309 0
 567 0010 1A68     		ldr	r2, [r3]
 568 0012 42F00102 		orr	r2, r2, #1
 569 0016 1A60     		str	r2, [r3]
 570              	.LVL38:
 571              	.L41:
 310:Core/Src/at32f403a_407_board.c ****   do
 311:Core/Src/at32f403a_407_board.c ****   {
 312:Core/Src/at32f403a_407_board.c ****     temp = SysTick->CTRL;
 572              		.loc 1 312 0 discriminator 1
 573 0018 074B     		ldr	r3, .L42+4
 574 001a 1B68     		ldr	r3, [r3]
 575              	.LVL39:
 313:Core/Src/at32f403a_407_board.c ****   }while((temp & 0x01) && !(temp & (1 << 16)));
 576              		.loc 1 313 0 discriminator 1
 577 001c 03F00113 		and	r3, r3, #65537
 578              	.LVL40:
 579 0020 012B     		cmp	r3, #1
 580 0022 F9D0     		beq	.L41
 314:Core/Src/at32f403a_407_board.c **** 
 315:Core/Src/at32f403a_407_board.c ****   SysTick->CTRL &= ~SysTick_CTRL_ENABLE_Msk;
 581              		.loc 1 315 0
 582 0024 044B     		ldr	r3, .L42+4
 583 0026 1A68     		ldr	r2, [r3]
 584 0028 22F00102 		bic	r2, r2, #1
 585 002c 1A60     		str	r2, [r3]
 316:Core/Src/at32f403a_407_board.c ****   SysTick->VAL = 0x00;
 586              		.loc 1 316 0
 587 002e 0022     		movs	r2, #0
 588 0030 9A60     		str	r2, [r3, #8]
 589 0032 7047     		bx	lr
 590              	.L43:
 591              		.align	2
 592              	.L42:
 593 0034 00000000 		.word	.LANCHOR3
 594 0038 10E000E0 		.word	-536813552
 595              		.cfi_endproc
 596              	.LFE145:
 598              		.section	.text.delay_ms,"ax",%progbits
 599              		.align	1
 600              		.global	delay_ms
 601              		.syntax unified
 602              		.thumb
 603              		.thumb_func
 604              		.fpu softvfp
 606              	delay_ms:
 607              	.LFB146:
 317:Core/Src/at32f403a_407_board.c **** }
 318:Core/Src/at32f403a_407_board.c **** 
 319:Core/Src/at32f403a_407_board.c **** /**
ARM GAS  /tmp/ccMX9qRY.s 			page 17


 320:Core/Src/at32f403a_407_board.c ****   * @brief  inserts a delay time.
 321:Core/Src/at32f403a_407_board.c ****   * @param  nms: specifies the delay time length, in milliseconds.
 322:Core/Src/at32f403a_407_board.c ****   * @retval none
 323:Core/Src/at32f403a_407_board.c ****   */
 324:Core/Src/at32f403a_407_board.c **** void delay_ms(uint16_t nms)
 325:Core/Src/at32f403a_407_board.c **** {
 608              		.loc 1 325 0
 609              		.cfi_startproc
 610              		@ args = 0, pretend = 0, frame = 0
 611              		@ frame_needed = 0, uses_anonymous_args = 0
 612              		@ link register save eliminated.
 613              	.LVL41:
 326:Core/Src/at32f403a_407_board.c ****   uint32_t temp = 0;
 327:Core/Src/at32f403a_407_board.c ****   while(nms)
 614              		.loc 1 327 0
 615 0000 1AE0     		b	.L45
 616              	.LVL42:
 617              	.L46:
 328:Core/Src/at32f403a_407_board.c ****   {
 329:Core/Src/at32f403a_407_board.c ****     if(nms > STEP_DELAY_MS)
 330:Core/Src/at32f403a_407_board.c ****     {
 331:Core/Src/at32f403a_407_board.c ****       SysTick->LOAD = (uint32_t)(STEP_DELAY_MS * fac_ms);
 332:Core/Src/at32f403a_407_board.c ****       nms -= STEP_DELAY_MS;
 333:Core/Src/at32f403a_407_board.c ****     }
 334:Core/Src/at32f403a_407_board.c ****     else
 335:Core/Src/at32f403a_407_board.c ****     {
 336:Core/Src/at32f403a_407_board.c ****       SysTick->LOAD = (uint32_t)(nms * fac_ms);
 618              		.loc 1 336 0
 619 0002 144B     		ldr	r3, .L51
 620 0004 1B68     		ldr	r3, [r3]
 621 0006 03FB00F0 		mul	r0, r3, r0
 622              	.LVL43:
 623 000a 134B     		ldr	r3, .L51+4
 624 000c 5860     		str	r0, [r3, #4]
 625              	.LVL44:
 337:Core/Src/at32f403a_407_board.c ****       nms = 0;
 626              		.loc 1 337 0
 627 000e 0020     		movs	r0, #0
 628              	.LVL45:
 629              	.L47:
 338:Core/Src/at32f403a_407_board.c ****     }
 339:Core/Src/at32f403a_407_board.c ****     SysTick->VAL = 0x00;
 630              		.loc 1 339 0
 631 0010 114B     		ldr	r3, .L51+4
 632 0012 0022     		movs	r2, #0
 633 0014 9A60     		str	r2, [r3, #8]
 340:Core/Src/at32f403a_407_board.c ****     SysTick->CTRL |= SysTick_CTRL_ENABLE_Msk;
 634              		.loc 1 340 0
 635 0016 1A68     		ldr	r2, [r3]
 636 0018 42F00102 		orr	r2, r2, #1
 637 001c 1A60     		str	r2, [r3]
 638              	.L48:
 341:Core/Src/at32f403a_407_board.c ****     do
 342:Core/Src/at32f403a_407_board.c ****     {
 343:Core/Src/at32f403a_407_board.c ****       temp = SysTick->CTRL;
 639              		.loc 1 343 0 discriminator 1
 640 001e 0E4B     		ldr	r3, .L51+4
ARM GAS  /tmp/ccMX9qRY.s 			page 18


 641 0020 1B68     		ldr	r3, [r3]
 642              	.LVL46:
 344:Core/Src/at32f403a_407_board.c ****     }while((temp & 0x01) && !(temp & (1 << 16)));
 643              		.loc 1 344 0 discriminator 1
 644 0022 03F00113 		and	r3, r3, #65537
 645              	.LVL47:
 646 0026 012B     		cmp	r3, #1
 647 0028 F9D0     		beq	.L48
 345:Core/Src/at32f403a_407_board.c **** 
 346:Core/Src/at32f403a_407_board.c ****     SysTick->CTRL &= ~SysTick_CTRL_ENABLE_Msk;
 648              		.loc 1 346 0
 649 002a 0B4B     		ldr	r3, .L51+4
 650 002c 1A68     		ldr	r2, [r3]
 651 002e 22F00102 		bic	r2, r2, #1
 652 0032 1A60     		str	r2, [r3]
 347:Core/Src/at32f403a_407_board.c ****     SysTick->VAL = 0x00;
 653              		.loc 1 347 0
 654 0034 0022     		movs	r2, #0
 655 0036 9A60     		str	r2, [r3, #8]
 656              	.L45:
 327:Core/Src/at32f403a_407_board.c ****   {
 657              		.loc 1 327 0
 658 0038 58B1     		cbz	r0, .L50
 329:Core/Src/at32f403a_407_board.c ****     {
 659              		.loc 1 329 0
 660 003a 3228     		cmp	r0, #50
 661 003c E1D9     		bls	.L46
 331:Core/Src/at32f403a_407_board.c ****       nms -= STEP_DELAY_MS;
 662              		.loc 1 331 0
 663 003e 054B     		ldr	r3, .L51
 664 0040 1A68     		ldr	r2, [r3]
 665 0042 3223     		movs	r3, #50
 666 0044 03FB02F3 		mul	r3, r3, r2
 667 0048 034A     		ldr	r2, .L51+4
 668 004a 5360     		str	r3, [r2, #4]
 332:Core/Src/at32f403a_407_board.c ****     }
 669              		.loc 1 332 0
 670 004c 3238     		subs	r0, r0, #50
 671              	.LVL48:
 672 004e 80B2     		uxth	r0, r0
 673              	.LVL49:
 674 0050 DEE7     		b	.L47
 675              	.L50:
 348:Core/Src/at32f403a_407_board.c ****   }
 349:Core/Src/at32f403a_407_board.c **** }
 676              		.loc 1 349 0
 677 0052 7047     		bx	lr
 678              	.L52:
 679              		.align	2
 680              	.L51:
 681 0054 00000000 		.word	.LANCHOR4
 682 0058 10E000E0 		.word	-536813552
 683              		.cfi_endproc
 684              	.LFE146:
 686              		.section	.text.at32_button_press,"ax",%progbits
 687              		.align	1
 688              		.global	at32_button_press
ARM GAS  /tmp/ccMX9qRY.s 			page 19


 689              		.syntax unified
 690              		.thumb
 691              		.thumb_func
 692              		.fpu softvfp
 694              	at32_button_press:
 695              	.LFB139:
 193:Core/Src/at32f403a_407_board.c ****   static uint8_t pressed = 1;
 696              		.loc 1 193 0
 697              		.cfi_startproc
 698              		@ args = 0, pretend = 0, frame = 0
 699              		@ frame_needed = 0, uses_anonymous_args = 0
 700 0000 08B5     		push	{r3, lr}
 701              	.LCFI13:
 702              		.cfi_def_cfa_offset 8
 703              		.cfi_offset 3, -8
 704              		.cfi_offset 14, -4
 196:Core/Src/at32f403a_407_board.c ****   {
 705              		.loc 1 196 0
 706 0002 0F4B     		ldr	r3, .L60
 707 0004 1B78     		ldrb	r3, [r3]	@ zero_extendqisi2
 708 0006 012B     		cmp	r3, #1
 709 0008 06D0     		beq	.L59
 710              	.L54:
 204:Core/Src/at32f403a_407_board.c ****   {
 711              		.loc 1 204 0
 712 000a FFF7FEFF 		bl	at32_button_state
 713              	.LVL50:
 714 000e A0B9     		cbnz	r0, .L57
 206:Core/Src/at32f403a_407_board.c ****   }
 715              		.loc 1 206 0
 716 0010 0120     		movs	r0, #1
 717 0012 0B4B     		ldr	r3, .L60
 718 0014 1870     		strb	r0, [r3]
 719 0016 08BD     		pop	{r3, pc}
 720              	.L59:
 196:Core/Src/at32f403a_407_board.c ****   {
 721              		.loc 1 196 0 discriminator 1
 722 0018 FFF7FEFF 		bl	at32_button_state
 723              	.LVL51:
 724 001c 0028     		cmp	r0, #0
 725 001e F4D0     		beq	.L54
 199:Core/Src/at32f403a_407_board.c ****     delay_ms(10);
 726              		.loc 1 199 0
 727 0020 0022     		movs	r2, #0
 728 0022 074B     		ldr	r3, .L60
 729 0024 1A70     		strb	r2, [r3]
 200:Core/Src/at32f403a_407_board.c ****     if(at32_button_state() != RESET)
 730              		.loc 1 200 0
 731 0026 0A20     		movs	r0, #10
 732 0028 FFF7FEFF 		bl	delay_ms
 733              	.LVL52:
 201:Core/Src/at32f403a_407_board.c ****       return USER_BUTTON;
 734              		.loc 1 201 0
 735 002c FFF7FEFF 		bl	at32_button_state
 736              	.LVL53:
 737 0030 08B1     		cbz	r0, .L56
 202:Core/Src/at32f403a_407_board.c ****   }
ARM GAS  /tmp/ccMX9qRY.s 			page 20


 738              		.loc 1 202 0
 739 0032 0020     		movs	r0, #0
 740 0034 08BD     		pop	{r3, pc}
 741              	.L56:
 208:Core/Src/at32f403a_407_board.c **** }
 742              		.loc 1 208 0
 743 0036 0120     		movs	r0, #1
 744 0038 08BD     		pop	{r3, pc}
 745              	.L57:
 746 003a 0120     		movs	r0, #1
 209:Core/Src/at32f403a_407_board.c **** 
 747              		.loc 1 209 0
 748 003c 08BD     		pop	{r3, pc}
 749              	.L61:
 750 003e 00BF     		.align	2
 751              	.L60:
 752 0040 00000000 		.word	.LANCHOR5
 753              		.cfi_endproc
 754              	.LFE139:
 756              		.section	.text.delay_sec,"ax",%progbits
 757              		.align	1
 758              		.global	delay_sec
 759              		.syntax unified
 760              		.thumb
 761              		.thumb_func
 762              		.fpu softvfp
 764              	delay_sec:
 765              	.LFB147:
 350:Core/Src/at32f403a_407_board.c **** 
 351:Core/Src/at32f403a_407_board.c **** /**
 352:Core/Src/at32f403a_407_board.c ****   * @brief  inserts a delay time.
 353:Core/Src/at32f403a_407_board.c ****   * @param  sec: specifies the delay time, in seconds.
 354:Core/Src/at32f403a_407_board.c ****   * @retval none
 355:Core/Src/at32f403a_407_board.c ****   */
 356:Core/Src/at32f403a_407_board.c **** void delay_sec(uint16_t sec)
 357:Core/Src/at32f403a_407_board.c **** {
 766              		.loc 1 357 0
 767              		.cfi_startproc
 768              		@ args = 0, pretend = 0, frame = 0
 769              		@ frame_needed = 0, uses_anonymous_args = 0
 770              	.LVL54:
 771 0000 38B5     		push	{r3, r4, r5, lr}
 772              	.LCFI14:
 773              		.cfi_def_cfa_offset 16
 774              		.cfi_offset 3, -16
 775              		.cfi_offset 4, -12
 776              		.cfi_offset 5, -8
 777              		.cfi_offset 14, -4
 778 0002 0546     		mov	r5, r0
 779              	.LVL55:
 358:Core/Src/at32f403a_407_board.c ****   uint16_t index;
 359:Core/Src/at32f403a_407_board.c ****   for(index = 0; index < sec; index++)
 780              		.loc 1 359 0
 781 0004 0024     		movs	r4, #0
 782 0006 09E0     		b	.L63
 783              	.LVL56:
 784              	.L64:
ARM GAS  /tmp/ccMX9qRY.s 			page 21


 360:Core/Src/at32f403a_407_board.c ****   {
 361:Core/Src/at32f403a_407_board.c ****     delay_ms(500);
 785              		.loc 1 361 0 discriminator 3
 786 0008 4FF4FA70 		mov	r0, #500
 787 000c FFF7FEFF 		bl	delay_ms
 788              	.LVL57:
 362:Core/Src/at32f403a_407_board.c ****     delay_ms(500);
 789              		.loc 1 362 0 discriminator 3
 790 0010 4FF4FA70 		mov	r0, #500
 791 0014 FFF7FEFF 		bl	delay_ms
 792              	.LVL58:
 359:Core/Src/at32f403a_407_board.c ****   {
 793              		.loc 1 359 0 discriminator 3
 794 0018 0134     		adds	r4, r4, #1
 795              	.LVL59:
 796 001a A4B2     		uxth	r4, r4
 797              	.LVL60:
 798              	.L63:
 359:Core/Src/at32f403a_407_board.c ****   {
 799              		.loc 1 359 0 is_stmt 0 discriminator 1
 800 001c AC42     		cmp	r4, r5
 801 001e F3D3     		bcc	.L64
 363:Core/Src/at32f403a_407_board.c ****   }
 364:Core/Src/at32f403a_407_board.c **** }
 802              		.loc 1 364 0 is_stmt 1
 803 0020 38BD     		pop	{r3, r4, r5, pc}
 804              		.cfi_endproc
 805              	.LFE147:
 807              		.global	led_gpio_crm_clk
 808              		.global	led_gpio_pin
 809              		.global	led_gpio_port
 810              		.section	.bss.fac_ms,"aw",%nobits
 811              		.align	2
 812              		.set	.LANCHOR4,. + 0
 815              	fac_ms:
 816 0000 00000000 		.space	4
 817              		.section	.bss.fac_us,"aw",%nobits
 818              		.align	2
 819              		.set	.LANCHOR3,. + 0
 822              	fac_us:
 823 0000 00000000 		.space	4
 824              		.section	.data.led_gpio_crm_clk,"aw",%progbits
 825              		.align	2
 826              		.set	.LANCHOR0,. + 0
 829              	led_gpio_crm_clk:
 830 0000 05001800 		.word	1572869
 831 0004 05001800 		.word	1572869
 832 0008 05001800 		.word	1572869
 833              		.section	.data.led_gpio_pin,"aw",%progbits
 834              		.align	2
 835              		.set	.LANCHOR1,. + 0
 838              	led_gpio_pin:
 839 0000 0020     		.short	8192
 840 0002 0040     		.short	16384
 841 0004 0080     		.short	-32768
 842              		.section	.data.led_gpio_port,"aw",%progbits
 843              		.align	2
ARM GAS  /tmp/ccMX9qRY.s 			page 22


 844              		.set	.LANCHOR2,. + 0
 847              	led_gpio_port:
 848 0000 00140140 		.word	1073812480
 849 0004 00140140 		.word	1073812480
 850 0008 00140140 		.word	1073812480
 851              		.section	.data.pressed.13699,"aw",%progbits
 852              		.set	.LANCHOR5,. + 0
 855              	pressed.13699:
 856 0000 01       		.byte	1
 857              		.text
 858              	.Letext0:
 859              		.file 2 "/home/y/github/EmbeddedSoftwareMCU/Tools/gcc-arm-none-eabi-unix/arm-none-eabi/include/mac
 860              		.file 3 "/home/y/github/EmbeddedSoftwareMCU/Tools/gcc-arm-none-eabi-unix/arm-none-eabi/include/sys
 861              		.file 4 "/home/y/github/EmbeddedSoftwareMCU/Tools/gcc-arm-none-eabi-unix/arm-none-eabi/include/sys
 862              		.file 5 "/home/y/github/EmbeddedSoftwareMCU/Tools/gcc-arm-none-eabi-unix/lib/gcc/arm-none-eabi/6.2
 863              		.file 6 "/home/y/github/EmbeddedSoftwareMCU/Tools/gcc-arm-none-eabi-unix/arm-none-eabi/include/sys
 864              		.file 7 "/home/y/github/EmbeddedSoftwareMCU/Tools/gcc-arm-none-eabi-unix/arm-none-eabi/include/sys
 865              		.file 8 "/home/y/github/EmbeddedSoftwareMCU/Libraries/AT32/cmsis/cm4/core_support/core_cm4.h"
 866              		.file 9 "/home/y/github/EmbeddedSoftwareMCU/Libraries/AT32/cmsis/cm4/device_support/system_at32f40
 867              		.file 10 "/home/y/github/EmbeddedSoftwareMCU/Libraries/AT32/cmsis/cm4/device_support/at32f403a_407
 868              		.file 11 "/home/y/github/EmbeddedSoftwareMCU/Libraries/AT32/drivers/inc/at32f403a_407_crm.h"
 869              		.file 12 "/home/y/github/EmbeddedSoftwareMCU/Libraries/AT32/drivers/inc/at32f403a_407_tmr.h"
 870              		.file 13 "/home/y/github/EmbeddedSoftwareMCU/Libraries/AT32/drivers/inc/at32f403a_407_gpio.h"
 871              		.file 14 "/home/y/github/EmbeddedSoftwareMCU/Libraries/AT32/drivers/inc/at32f403a_407_usart.h"
 872              		.file 15 "/home/y/github/EmbeddedSoftwareMCU/Libraries/AT32/drivers/inc/at32f403a_407_misc.h"
 873              		.file 16 "/home/y/github/EmbeddedSoftwareMCU/Libraries/AT32/drivers/inc/at32f403a_407_usb.h"
 874              		.file 17 "Core/Inc/at32f403a_407_board.h"
ARM GAS  /tmp/ccMX9qRY.s 			page 23

