ARM GAS  /tmp/cc4PFwpI.s 			page 1


   1              		.cpu cortex-m4
   2              		.eabi_attribute 20, 1
   3              		.eabi_attribute 21, 1
   4              		.eabi_attribute 23, 3
   5              		.eabi_attribute 24, 1
   6              		.eabi_attribute 25, 1
   7              		.eabi_attribute 26, 1
   8              		.eabi_attribute 30, 1
   9              		.eabi_attribute 34, 1
  10              		.eabi_attribute 18, 4
  11              		.file	"at32f403a_407_gpio.c"
  12              		.text
  13              	.Ltext0:
  14              		.cfi_sections	.debug_frame
  15              		.section	.text.gpio_reset,"ax",%progbits
  16              		.align	1
  17              		.global	gpio_reset
  18              		.syntax unified
  19              		.thumb
  20              		.thumb_func
  21              		.fpu softvfp
  23              	gpio_reset:
  24              	.LFB133:
  25              		.file 1 "/home/y/github/EmbeddedSoftwareMCU/Libraries/AT32/drivers/src/at32f403a_407_gpio.c"
   1:/home/y/github/EmbeddedSoftwareMCU/Libraries/AT32/drivers/src/at32f403a_407_gpio.c **** /**
   2:/home/y/github/EmbeddedSoftwareMCU/Libraries/AT32/drivers/src/at32f403a_407_gpio.c ****   **************************************************************************
   3:/home/y/github/EmbeddedSoftwareMCU/Libraries/AT32/drivers/src/at32f403a_407_gpio.c ****   * @file     at32f403a_407_gpio.c
   4:/home/y/github/EmbeddedSoftwareMCU/Libraries/AT32/drivers/src/at32f403a_407_gpio.c ****   * @version  v2.0.8
   5:/home/y/github/EmbeddedSoftwareMCU/Libraries/AT32/drivers/src/at32f403a_407_gpio.c ****   * @date     2022-04-02
   6:/home/y/github/EmbeddedSoftwareMCU/Libraries/AT32/drivers/src/at32f403a_407_gpio.c ****   * @brief    contains all the functions for the gpio firmware library
   7:/home/y/github/EmbeddedSoftwareMCU/Libraries/AT32/drivers/src/at32f403a_407_gpio.c ****   **************************************************************************
   8:/home/y/github/EmbeddedSoftwareMCU/Libraries/AT32/drivers/src/at32f403a_407_gpio.c ****   *                       Copyright notice & Disclaimer
   9:/home/y/github/EmbeddedSoftwareMCU/Libraries/AT32/drivers/src/at32f403a_407_gpio.c ****   *
  10:/home/y/github/EmbeddedSoftwareMCU/Libraries/AT32/drivers/src/at32f403a_407_gpio.c ****   * The software Board Support Package (BSP) that is made available to
  11:/home/y/github/EmbeddedSoftwareMCU/Libraries/AT32/drivers/src/at32f403a_407_gpio.c ****   * download from Artery official website is the copyrighted work of Artery.
  12:/home/y/github/EmbeddedSoftwareMCU/Libraries/AT32/drivers/src/at32f403a_407_gpio.c ****   * Artery authorizes customers to use, copy, and distribute the BSP
  13:/home/y/github/EmbeddedSoftwareMCU/Libraries/AT32/drivers/src/at32f403a_407_gpio.c ****   * software and its related documentation for the purpose of design and
  14:/home/y/github/EmbeddedSoftwareMCU/Libraries/AT32/drivers/src/at32f403a_407_gpio.c ****   * development in conjunction with Artery microcontrollers. Use of the
  15:/home/y/github/EmbeddedSoftwareMCU/Libraries/AT32/drivers/src/at32f403a_407_gpio.c ****   * software is governed by this copyright notice and the following disclaimer.
  16:/home/y/github/EmbeddedSoftwareMCU/Libraries/AT32/drivers/src/at32f403a_407_gpio.c ****   *
  17:/home/y/github/EmbeddedSoftwareMCU/Libraries/AT32/drivers/src/at32f403a_407_gpio.c ****   * THIS SOFTWARE IS PROVIDED ON "AS IS" BASIS WITHOUT WARRANTIES,
  18:/home/y/github/EmbeddedSoftwareMCU/Libraries/AT32/drivers/src/at32f403a_407_gpio.c ****   * GUARANTEES OR REPRESENTATIONS OF ANY KIND. ARTERY EXPRESSLY DISCLAIMS,
  19:/home/y/github/EmbeddedSoftwareMCU/Libraries/AT32/drivers/src/at32f403a_407_gpio.c ****   * TO THE FULLEST EXTENT PERMITTED BY LAW, ALL EXPRESS, IMPLIED OR
  20:/home/y/github/EmbeddedSoftwareMCU/Libraries/AT32/drivers/src/at32f403a_407_gpio.c ****   * STATUTORY OR OTHER WARRANTIES, GUARANTEES OR REPRESENTATIONS,
  21:/home/y/github/EmbeddedSoftwareMCU/Libraries/AT32/drivers/src/at32f403a_407_gpio.c ****   * INCLUDING BUT NOT LIMITED TO, THE IMPLIED WARRANTIES OF MERCHANTABILITY,
  22:/home/y/github/EmbeddedSoftwareMCU/Libraries/AT32/drivers/src/at32f403a_407_gpio.c ****   * FITNESS FOR A PARTICULAR PURPOSE, OR NON-INFRINGEMENT.
  23:/home/y/github/EmbeddedSoftwareMCU/Libraries/AT32/drivers/src/at32f403a_407_gpio.c ****   *
  24:/home/y/github/EmbeddedSoftwareMCU/Libraries/AT32/drivers/src/at32f403a_407_gpio.c ****   **************************************************************************
  25:/home/y/github/EmbeddedSoftwareMCU/Libraries/AT32/drivers/src/at32f403a_407_gpio.c ****   */
  26:/home/y/github/EmbeddedSoftwareMCU/Libraries/AT32/drivers/src/at32f403a_407_gpio.c **** 
  27:/home/y/github/EmbeddedSoftwareMCU/Libraries/AT32/drivers/src/at32f403a_407_gpio.c **** #include "at32f403a_407_conf.h"
  28:/home/y/github/EmbeddedSoftwareMCU/Libraries/AT32/drivers/src/at32f403a_407_gpio.c **** 
  29:/home/y/github/EmbeddedSoftwareMCU/Libraries/AT32/drivers/src/at32f403a_407_gpio.c **** /** @addtogroup AT32F403A_407_periph_driver
  30:/home/y/github/EmbeddedSoftwareMCU/Libraries/AT32/drivers/src/at32f403a_407_gpio.c ****   * @{
  31:/home/y/github/EmbeddedSoftwareMCU/Libraries/AT32/drivers/src/at32f403a_407_gpio.c ****   */
  32:/home/y/github/EmbeddedSoftwareMCU/Libraries/AT32/drivers/src/at32f403a_407_gpio.c **** 
  33:/home/y/github/EmbeddedSoftwareMCU/Libraries/AT32/drivers/src/at32f403a_407_gpio.c **** /** @defgroup GPIO
ARM GAS  /tmp/cc4PFwpI.s 			page 2


  34:/home/y/github/EmbeddedSoftwareMCU/Libraries/AT32/drivers/src/at32f403a_407_gpio.c ****   * @brief GPIO driver modules
  35:/home/y/github/EmbeddedSoftwareMCU/Libraries/AT32/drivers/src/at32f403a_407_gpio.c ****   * @{
  36:/home/y/github/EmbeddedSoftwareMCU/Libraries/AT32/drivers/src/at32f403a_407_gpio.c ****   */
  37:/home/y/github/EmbeddedSoftwareMCU/Libraries/AT32/drivers/src/at32f403a_407_gpio.c **** 
  38:/home/y/github/EmbeddedSoftwareMCU/Libraries/AT32/drivers/src/at32f403a_407_gpio.c **** #ifdef GPIO_MODULE_ENABLED
  39:/home/y/github/EmbeddedSoftwareMCU/Libraries/AT32/drivers/src/at32f403a_407_gpio.c **** 
  40:/home/y/github/EmbeddedSoftwareMCU/Libraries/AT32/drivers/src/at32f403a_407_gpio.c **** /** @defgroup GPIO_private_functions
  41:/home/y/github/EmbeddedSoftwareMCU/Libraries/AT32/drivers/src/at32f403a_407_gpio.c ****   * @{
  42:/home/y/github/EmbeddedSoftwareMCU/Libraries/AT32/drivers/src/at32f403a_407_gpio.c ****   */
  43:/home/y/github/EmbeddedSoftwareMCU/Libraries/AT32/drivers/src/at32f403a_407_gpio.c **** 
  44:/home/y/github/EmbeddedSoftwareMCU/Libraries/AT32/drivers/src/at32f403a_407_gpio.c **** /**
  45:/home/y/github/EmbeddedSoftwareMCU/Libraries/AT32/drivers/src/at32f403a_407_gpio.c ****   * @brief  reset the gpio register
  46:/home/y/github/EmbeddedSoftwareMCU/Libraries/AT32/drivers/src/at32f403a_407_gpio.c ****   * @param  gpio_x: to select the gpio peripheral.
  47:/home/y/github/EmbeddedSoftwareMCU/Libraries/AT32/drivers/src/at32f403a_407_gpio.c ****   *         this parameter can be one of the following values:
  48:/home/y/github/EmbeddedSoftwareMCU/Libraries/AT32/drivers/src/at32f403a_407_gpio.c ****   *         GPIOA, GPIOB, GPIOC, GPIOD, GPIOE.
  49:/home/y/github/EmbeddedSoftwareMCU/Libraries/AT32/drivers/src/at32f403a_407_gpio.c ****   * @retval none
  50:/home/y/github/EmbeddedSoftwareMCU/Libraries/AT32/drivers/src/at32f403a_407_gpio.c ****   */
  51:/home/y/github/EmbeddedSoftwareMCU/Libraries/AT32/drivers/src/at32f403a_407_gpio.c **** void gpio_reset(gpio_type *gpio_x)
  52:/home/y/github/EmbeddedSoftwareMCU/Libraries/AT32/drivers/src/at32f403a_407_gpio.c **** {
  26              		.loc 1 52 0
  27              		.cfi_startproc
  28              		@ args = 0, pretend = 0, frame = 0
  29              		@ frame_needed = 0, uses_anonymous_args = 0
  30              	.LVL0:
  31 0000 10B5     		push	{r4, lr}
  32              	.LCFI0:
  33              		.cfi_def_cfa_offset 8
  34              		.cfi_offset 4, -8
  35              		.cfi_offset 14, -4
  53:/home/y/github/EmbeddedSoftwareMCU/Libraries/AT32/drivers/src/at32f403a_407_gpio.c ****   if(gpio_x == GPIOA)
  36              		.loc 1 53 0
  37 0002 214B     		ldr	r3, .L13
  38 0004 9842     		cmp	r0, r3
  39 0006 0CD0     		beq	.L8
  54:/home/y/github/EmbeddedSoftwareMCU/Libraries/AT32/drivers/src/at32f403a_407_gpio.c ****   {
  55:/home/y/github/EmbeddedSoftwareMCU/Libraries/AT32/drivers/src/at32f403a_407_gpio.c ****     crm_periph_reset(CRM_GPIOA_PERIPH_RESET, TRUE);
  56:/home/y/github/EmbeddedSoftwareMCU/Libraries/AT32/drivers/src/at32f403a_407_gpio.c ****     crm_periph_reset(CRM_GPIOA_PERIPH_RESET, FALSE);
  57:/home/y/github/EmbeddedSoftwareMCU/Libraries/AT32/drivers/src/at32f403a_407_gpio.c ****   }
  58:/home/y/github/EmbeddedSoftwareMCU/Libraries/AT32/drivers/src/at32f403a_407_gpio.c ****   else if(gpio_x == GPIOB)
  40              		.loc 1 58 0
  41 0008 204B     		ldr	r3, .L13+4
  42 000a 9842     		cmp	r0, r3
  43 000c 13D0     		beq	.L9
  59:/home/y/github/EmbeddedSoftwareMCU/Libraries/AT32/drivers/src/at32f403a_407_gpio.c ****   {
  60:/home/y/github/EmbeddedSoftwareMCU/Libraries/AT32/drivers/src/at32f403a_407_gpio.c ****     crm_periph_reset(CRM_GPIOB_PERIPH_RESET, TRUE);
  61:/home/y/github/EmbeddedSoftwareMCU/Libraries/AT32/drivers/src/at32f403a_407_gpio.c ****     crm_periph_reset(CRM_GPIOB_PERIPH_RESET, FALSE);
  62:/home/y/github/EmbeddedSoftwareMCU/Libraries/AT32/drivers/src/at32f403a_407_gpio.c ****   }
  63:/home/y/github/EmbeddedSoftwareMCU/Libraries/AT32/drivers/src/at32f403a_407_gpio.c ****   else if(gpio_x == GPIOC)
  44              		.loc 1 63 0
  45 000e 204B     		ldr	r3, .L13+8
  46 0010 9842     		cmp	r0, r3
  47 0012 1AD0     		beq	.L10
  64:/home/y/github/EmbeddedSoftwareMCU/Libraries/AT32/drivers/src/at32f403a_407_gpio.c ****   {
  65:/home/y/github/EmbeddedSoftwareMCU/Libraries/AT32/drivers/src/at32f403a_407_gpio.c ****     crm_periph_reset(CRM_GPIOC_PERIPH_RESET, TRUE);
  66:/home/y/github/EmbeddedSoftwareMCU/Libraries/AT32/drivers/src/at32f403a_407_gpio.c ****     crm_periph_reset(CRM_GPIOC_PERIPH_RESET, FALSE);
  67:/home/y/github/EmbeddedSoftwareMCU/Libraries/AT32/drivers/src/at32f403a_407_gpio.c ****   }
  68:/home/y/github/EmbeddedSoftwareMCU/Libraries/AT32/drivers/src/at32f403a_407_gpio.c ****   else if(gpio_x == GPIOD)
ARM GAS  /tmp/cc4PFwpI.s 			page 3


  48              		.loc 1 68 0
  49 0014 1F4B     		ldr	r3, .L13+12
  50 0016 9842     		cmp	r0, r3
  51 0018 21D0     		beq	.L11
  69:/home/y/github/EmbeddedSoftwareMCU/Libraries/AT32/drivers/src/at32f403a_407_gpio.c ****   {
  70:/home/y/github/EmbeddedSoftwareMCU/Libraries/AT32/drivers/src/at32f403a_407_gpio.c ****     crm_periph_reset(CRM_GPIOD_PERIPH_RESET, TRUE);
  71:/home/y/github/EmbeddedSoftwareMCU/Libraries/AT32/drivers/src/at32f403a_407_gpio.c ****     crm_periph_reset(CRM_GPIOD_PERIPH_RESET, FALSE);
  72:/home/y/github/EmbeddedSoftwareMCU/Libraries/AT32/drivers/src/at32f403a_407_gpio.c ****   }
  73:/home/y/github/EmbeddedSoftwareMCU/Libraries/AT32/drivers/src/at32f403a_407_gpio.c ****   else if(gpio_x == GPIOE)
  52              		.loc 1 73 0
  53 001a 1F4B     		ldr	r3, .L13+16
  54 001c 9842     		cmp	r0, r3
  55 001e 28D0     		beq	.L12
  56              	.LVL1:
  57              	.L1:
  58 0020 10BD     		pop	{r4, pc}
  59              	.LVL2:
  60              	.L8:
  55:/home/y/github/EmbeddedSoftwareMCU/Libraries/AT32/drivers/src/at32f403a_407_gpio.c ****     crm_periph_reset(CRM_GPIOA_PERIPH_RESET, FALSE);
  61              		.loc 1 55 0
  62 0022 1E4C     		ldr	r4, .L13+20
  63 0024 0121     		movs	r1, #1
  64 0026 2046     		mov	r0, r4
  65              	.LVL3:
  66 0028 FFF7FEFF 		bl	crm_periph_reset
  67              	.LVL4:
  56:/home/y/github/EmbeddedSoftwareMCU/Libraries/AT32/drivers/src/at32f403a_407_gpio.c ****   }
  68              		.loc 1 56 0
  69 002c 0021     		movs	r1, #0
  70 002e 2046     		mov	r0, r4
  71 0030 FFF7FEFF 		bl	crm_periph_reset
  72              	.LVL5:
  73 0034 10BD     		pop	{r4, pc}
  74              	.LVL6:
  75              	.L9:
  60:/home/y/github/EmbeddedSoftwareMCU/Libraries/AT32/drivers/src/at32f403a_407_gpio.c ****     crm_periph_reset(CRM_GPIOB_PERIPH_RESET, FALSE);
  76              		.loc 1 60 0
  77 0036 1A4C     		ldr	r4, .L13+24
  78 0038 0121     		movs	r1, #1
  79 003a 2046     		mov	r0, r4
  80              	.LVL7:
  81 003c FFF7FEFF 		bl	crm_periph_reset
  82              	.LVL8:
  61:/home/y/github/EmbeddedSoftwareMCU/Libraries/AT32/drivers/src/at32f403a_407_gpio.c ****   }
  83              		.loc 1 61 0
  84 0040 0021     		movs	r1, #0
  85 0042 2046     		mov	r0, r4
  86 0044 FFF7FEFF 		bl	crm_periph_reset
  87              	.LVL9:
  88 0048 10BD     		pop	{r4, pc}
  89              	.LVL10:
  90              	.L10:
  65:/home/y/github/EmbeddedSoftwareMCU/Libraries/AT32/drivers/src/at32f403a_407_gpio.c ****     crm_periph_reset(CRM_GPIOC_PERIPH_RESET, FALSE);
  91              		.loc 1 65 0
  92 004a 164C     		ldr	r4, .L13+28
  93 004c 0121     		movs	r1, #1
  94 004e 2046     		mov	r0, r4
ARM GAS  /tmp/cc4PFwpI.s 			page 4


  95              	.LVL11:
  96 0050 FFF7FEFF 		bl	crm_periph_reset
  97              	.LVL12:
  66:/home/y/github/EmbeddedSoftwareMCU/Libraries/AT32/drivers/src/at32f403a_407_gpio.c ****   }
  98              		.loc 1 66 0
  99 0054 0021     		movs	r1, #0
 100 0056 2046     		mov	r0, r4
 101 0058 FFF7FEFF 		bl	crm_periph_reset
 102              	.LVL13:
 103 005c 10BD     		pop	{r4, pc}
 104              	.LVL14:
 105              	.L11:
  70:/home/y/github/EmbeddedSoftwareMCU/Libraries/AT32/drivers/src/at32f403a_407_gpio.c ****     crm_periph_reset(CRM_GPIOD_PERIPH_RESET, FALSE);
 106              		.loc 1 70 0
 107 005e 124C     		ldr	r4, .L13+32
 108 0060 0121     		movs	r1, #1
 109 0062 2046     		mov	r0, r4
 110              	.LVL15:
 111 0064 FFF7FEFF 		bl	crm_periph_reset
 112              	.LVL16:
  71:/home/y/github/EmbeddedSoftwareMCU/Libraries/AT32/drivers/src/at32f403a_407_gpio.c ****   }
 113              		.loc 1 71 0
 114 0068 0021     		movs	r1, #0
 115 006a 2046     		mov	r0, r4
 116 006c FFF7FEFF 		bl	crm_periph_reset
 117              	.LVL17:
 118 0070 10BD     		pop	{r4, pc}
 119              	.LVL18:
 120              	.L12:
  74:/home/y/github/EmbeddedSoftwareMCU/Libraries/AT32/drivers/src/at32f403a_407_gpio.c ****   {
  75:/home/y/github/EmbeddedSoftwareMCU/Libraries/AT32/drivers/src/at32f403a_407_gpio.c ****     crm_periph_reset(CRM_GPIOE_PERIPH_RESET, TRUE);
 121              		.loc 1 75 0
 122 0072 0E4C     		ldr	r4, .L13+36
 123 0074 0121     		movs	r1, #1
 124 0076 2046     		mov	r0, r4
 125              	.LVL19:
 126 0078 FFF7FEFF 		bl	crm_periph_reset
 127              	.LVL20:
  76:/home/y/github/EmbeddedSoftwareMCU/Libraries/AT32/drivers/src/at32f403a_407_gpio.c ****     crm_periph_reset(CRM_GPIOE_PERIPH_RESET, FALSE);
 128              		.loc 1 76 0
 129 007c 0021     		movs	r1, #0
 130 007e 2046     		mov	r0, r4
 131 0080 FFF7FEFF 		bl	crm_periph_reset
 132              	.LVL21:
  77:/home/y/github/EmbeddedSoftwareMCU/Libraries/AT32/drivers/src/at32f403a_407_gpio.c ****   }
  78:/home/y/github/EmbeddedSoftwareMCU/Libraries/AT32/drivers/src/at32f403a_407_gpio.c **** }
 133              		.loc 1 78 0
 134 0084 CCE7     		b	.L1
 135              	.L14:
 136 0086 00BF     		.align	2
 137              	.L13:
 138 0088 00080140 		.word	1073809408
 139 008c 000C0140 		.word	1073810432
 140 0090 00100140 		.word	1073811456
 141 0094 00140140 		.word	1073812480
 142 0098 00180140 		.word	1073813504
 143 009c 02000C00 		.word	786434
ARM GAS  /tmp/cc4PFwpI.s 			page 5


 144 00a0 03000C00 		.word	786435
 145 00a4 04000C00 		.word	786436
 146 00a8 05000C00 		.word	786437
 147 00ac 06000C00 		.word	786438
 148              		.cfi_endproc
 149              	.LFE133:
 151              		.section	.text.gpio_iomux_reset,"ax",%progbits
 152              		.align	1
 153              		.global	gpio_iomux_reset
 154              		.syntax unified
 155              		.thumb
 156              		.thumb_func
 157              		.fpu softvfp
 159              	gpio_iomux_reset:
 160              	.LFB134:
  79:/home/y/github/EmbeddedSoftwareMCU/Libraries/AT32/drivers/src/at32f403a_407_gpio.c **** 
  80:/home/y/github/EmbeddedSoftwareMCU/Libraries/AT32/drivers/src/at32f403a_407_gpio.c **** /**
  81:/home/y/github/EmbeddedSoftwareMCU/Libraries/AT32/drivers/src/at32f403a_407_gpio.c ****   * @brief  reset the mux functions (remap, event control
  82:/home/y/github/EmbeddedSoftwareMCU/Libraries/AT32/drivers/src/at32f403a_407_gpio.c ****             and exint configuration) registers to their default values.
  83:/home/y/github/EmbeddedSoftwareMCU/Libraries/AT32/drivers/src/at32f403a_407_gpio.c ****   * @param  none
  84:/home/y/github/EmbeddedSoftwareMCU/Libraries/AT32/drivers/src/at32f403a_407_gpio.c ****   * @retval none
  85:/home/y/github/EmbeddedSoftwareMCU/Libraries/AT32/drivers/src/at32f403a_407_gpio.c ****   */
  86:/home/y/github/EmbeddedSoftwareMCU/Libraries/AT32/drivers/src/at32f403a_407_gpio.c **** void gpio_iomux_reset(void)
  87:/home/y/github/EmbeddedSoftwareMCU/Libraries/AT32/drivers/src/at32f403a_407_gpio.c **** {
 161              		.loc 1 87 0
 162              		.cfi_startproc
 163              		@ args = 0, pretend = 0, frame = 0
 164              		@ frame_needed = 0, uses_anonymous_args = 0
 165 0000 08B5     		push	{r3, lr}
 166              	.LCFI1:
 167              		.cfi_def_cfa_offset 8
 168              		.cfi_offset 3, -8
 169              		.cfi_offset 14, -4
  88:/home/y/github/EmbeddedSoftwareMCU/Libraries/AT32/drivers/src/at32f403a_407_gpio.c ****   crm_periph_reset(CRM_IOMUX_PERIPH_RESET, TRUE);
 170              		.loc 1 88 0
 171 0002 0121     		movs	r1, #1
 172 0004 4FF44020 		mov	r0, #786432
 173 0008 FFF7FEFF 		bl	crm_periph_reset
 174              	.LVL22:
  89:/home/y/github/EmbeddedSoftwareMCU/Libraries/AT32/drivers/src/at32f403a_407_gpio.c ****   crm_periph_reset(CRM_IOMUX_PERIPH_RESET, FALSE);
 175              		.loc 1 89 0
 176 000c 0021     		movs	r1, #0
 177 000e 4FF44020 		mov	r0, #786432
 178 0012 FFF7FEFF 		bl	crm_periph_reset
 179              	.LVL23:
 180 0016 08BD     		pop	{r3, pc}
 181              		.cfi_endproc
 182              	.LFE134:
 184              		.section	.text.gpio_init,"ax",%progbits
 185              		.align	1
 186              		.global	gpio_init
 187              		.syntax unified
 188              		.thumb
 189              		.thumb_func
 190              		.fpu softvfp
 192              	gpio_init:
 193              	.LFB135:
ARM GAS  /tmp/cc4PFwpI.s 			page 6


  90:/home/y/github/EmbeddedSoftwareMCU/Libraries/AT32/drivers/src/at32f403a_407_gpio.c **** }
  91:/home/y/github/EmbeddedSoftwareMCU/Libraries/AT32/drivers/src/at32f403a_407_gpio.c **** 
  92:/home/y/github/EmbeddedSoftwareMCU/Libraries/AT32/drivers/src/at32f403a_407_gpio.c **** /**
  93:/home/y/github/EmbeddedSoftwareMCU/Libraries/AT32/drivers/src/at32f403a_407_gpio.c ****   * @brief  initialize the gpio peripheral.
  94:/home/y/github/EmbeddedSoftwareMCU/Libraries/AT32/drivers/src/at32f403a_407_gpio.c ****   * @param  gpio_x: to select the gpio peripheral.
  95:/home/y/github/EmbeddedSoftwareMCU/Libraries/AT32/drivers/src/at32f403a_407_gpio.c ****   *         this parameter can be one of the following values:
  96:/home/y/github/EmbeddedSoftwareMCU/Libraries/AT32/drivers/src/at32f403a_407_gpio.c ****   *         GPIOA, GPIOB, GPIOC, GPIOD, GPIOE.
  97:/home/y/github/EmbeddedSoftwareMCU/Libraries/AT32/drivers/src/at32f403a_407_gpio.c ****   * @param  gpio_init_struct: pointer to gpio init structure.
  98:/home/y/github/EmbeddedSoftwareMCU/Libraries/AT32/drivers/src/at32f403a_407_gpio.c ****   * @retval none
  99:/home/y/github/EmbeddedSoftwareMCU/Libraries/AT32/drivers/src/at32f403a_407_gpio.c ****   */
 100:/home/y/github/EmbeddedSoftwareMCU/Libraries/AT32/drivers/src/at32f403a_407_gpio.c **** void gpio_init(gpio_type *gpio_x, gpio_init_type *gpio_init_struct)
 101:/home/y/github/EmbeddedSoftwareMCU/Libraries/AT32/drivers/src/at32f403a_407_gpio.c **** {
 194              		.loc 1 101 0
 195              		.cfi_startproc
 196              		@ args = 0, pretend = 0, frame = 0
 197              		@ frame_needed = 0, uses_anonymous_args = 0
 198              		@ link register save eliminated.
 199              	.LVL24:
 200 0000 F0B4     		push	{r4, r5, r6, r7}
 201              	.LCFI2:
 202              		.cfi_def_cfa_offset 16
 203              		.cfi_offset 4, -16
 204              		.cfi_offset 5, -12
 205              		.cfi_offset 6, -8
 206              		.cfi_offset 7, -4
 102:/home/y/github/EmbeddedSoftwareMCU/Libraries/AT32/drivers/src/at32f403a_407_gpio.c ****   uint32_t temp;
 103:/home/y/github/EmbeddedSoftwareMCU/Libraries/AT32/drivers/src/at32f403a_407_gpio.c ****   uint16_t pinx_value, pin_index;
 104:/home/y/github/EmbeddedSoftwareMCU/Libraries/AT32/drivers/src/at32f403a_407_gpio.c **** 
 105:/home/y/github/EmbeddedSoftwareMCU/Libraries/AT32/drivers/src/at32f403a_407_gpio.c ****   pin_index = (uint16_t)gpio_init_struct->gpio_pins;
 207              		.loc 1 105 0
 208 0002 0A68     		ldr	r2, [r1]
 209 0004 96B2     		uxth	r6, r2
 210              	.LVL25:
 106:/home/y/github/EmbeddedSoftwareMCU/Libraries/AT32/drivers/src/at32f403a_407_gpio.c **** 
 107:/home/y/github/EmbeddedSoftwareMCU/Libraries/AT32/drivers/src/at32f403a_407_gpio.c ****   /* pinx_value indecate pin grounp bit[3:0] from modey[1:0] confy[1:0] */
 108:/home/y/github/EmbeddedSoftwareMCU/Libraries/AT32/drivers/src/at32f403a_407_gpio.c **** 
 109:/home/y/github/EmbeddedSoftwareMCU/Libraries/AT32/drivers/src/at32f403a_407_gpio.c ****   /* pin input analog config */
 110:/home/y/github/EmbeddedSoftwareMCU/Libraries/AT32/drivers/src/at32f403a_407_gpio.c ****   if(gpio_init_struct->gpio_mode == GPIO_MODE_ANALOG)
 211              		.loc 1 110 0
 212 0006 8B79     		ldrb	r3, [r1, #6]	@ zero_extendqisi2
 213 0008 032B     		cmp	r3, #3
 214 000a 1FD0     		beq	.L29
 111:/home/y/github/EmbeddedSoftwareMCU/Libraries/AT32/drivers/src/at32f403a_407_gpio.c ****   {
 112:/home/y/github/EmbeddedSoftwareMCU/Libraries/AT32/drivers/src/at32f403a_407_gpio.c ****     pinx_value = 0x00;
 113:/home/y/github/EmbeddedSoftwareMCU/Libraries/AT32/drivers/src/at32f403a_407_gpio.c ****   }
 114:/home/y/github/EmbeddedSoftwareMCU/Libraries/AT32/drivers/src/at32f403a_407_gpio.c ****   /* pin input config */
 115:/home/y/github/EmbeddedSoftwareMCU/Libraries/AT32/drivers/src/at32f403a_407_gpio.c ****   else if(gpio_init_struct->gpio_mode == GPIO_MODE_INPUT)
 215              		.loc 1 115 0
 216 000c 5BB9     		cbnz	r3, .L19
 116:/home/y/github/EmbeddedSoftwareMCU/Libraries/AT32/drivers/src/at32f403a_407_gpio.c ****   {
 117:/home/y/github/EmbeddedSoftwareMCU/Libraries/AT32/drivers/src/at32f403a_407_gpio.c ****     pinx_value = gpio_init_struct->gpio_pull & 0x0F;
 217              		.loc 1 117 0
 218 000e 4B79     		ldrb	r3, [r1, #5]	@ zero_extendqisi2
 219 0010 03F00F01 		and	r1, r3, #15
 220              	.LVL26:
 118:/home/y/github/EmbeddedSoftwareMCU/Libraries/AT32/drivers/src/at32f403a_407_gpio.c **** 
 119:/home/y/github/EmbeddedSoftwareMCU/Libraries/AT32/drivers/src/at32f403a_407_gpio.c ****     if(gpio_init_struct->gpio_pull == GPIO_PULL_UP)
ARM GAS  /tmp/cc4PFwpI.s 			page 7


 221              		.loc 1 119 0
 222 0014 182B     		cmp	r3, #24
 223 0016 04D0     		beq	.L32
 120:/home/y/github/EmbeddedSoftwareMCU/Libraries/AT32/drivers/src/at32f403a_407_gpio.c ****     {
 121:/home/y/github/EmbeddedSoftwareMCU/Libraries/AT32/drivers/src/at32f403a_407_gpio.c ****       gpio_x->scr = pin_index;
 122:/home/y/github/EmbeddedSoftwareMCU/Libraries/AT32/drivers/src/at32f403a_407_gpio.c ****     }
 123:/home/y/github/EmbeddedSoftwareMCU/Libraries/AT32/drivers/src/at32f403a_407_gpio.c ****     else if(gpio_init_struct->gpio_pull == GPIO_PULL_DOWN)
 224              		.loc 1 123 0
 225 0018 282B     		cmp	r3, #40
 226 001a 0ED1     		bne	.L18
 227 001c 93B2     		uxth	r3, r2
 124:/home/y/github/EmbeddedSoftwareMCU/Libraries/AT32/drivers/src/at32f403a_407_gpio.c ****     {
 125:/home/y/github/EmbeddedSoftwareMCU/Libraries/AT32/drivers/src/at32f403a_407_gpio.c ****       gpio_x->clr = pin_index;
 228              		.loc 1 125 0
 229 001e 4361     		str	r3, [r0, #20]
 230 0020 0BE0     		b	.L18
 231              	.L32:
 121:/home/y/github/EmbeddedSoftwareMCU/Libraries/AT32/drivers/src/at32f403a_407_gpio.c ****     }
 232              		.loc 1 121 0
 233 0022 0661     		str	r6, [r0, #16]
 234 0024 09E0     		b	.L18
 235              	.LVL27:
 236              	.L19:
 126:/home/y/github/EmbeddedSoftwareMCU/Libraries/AT32/drivers/src/at32f403a_407_gpio.c ****     }
 127:/home/y/github/EmbeddedSoftwareMCU/Libraries/AT32/drivers/src/at32f403a_407_gpio.c ****   }
 128:/home/y/github/EmbeddedSoftwareMCU/Libraries/AT32/drivers/src/at32f403a_407_gpio.c ****   else
 129:/home/y/github/EmbeddedSoftwareMCU/Libraries/AT32/drivers/src/at32f403a_407_gpio.c ****   {
 130:/home/y/github/EmbeddedSoftwareMCU/Libraries/AT32/drivers/src/at32f403a_407_gpio.c ****     pinx_value = (gpio_init_struct->gpio_mode & 0x08) | (gpio_init_struct->gpio_out_type & 0x04) | 
 237              		.loc 1 130 0
 238 0026 0D79     		ldrb	r5, [r1, #4]	@ zero_extendqisi2
 131:/home/y/github/EmbeddedSoftwareMCU/Libraries/AT32/drivers/src/at32f403a_407_gpio.c ****                  (gpio_init_struct->gpio_drive_strength & 0x03);
 239              		.loc 1 131 0
 240 0028 CC79     		ldrb	r4, [r1, #7]	@ zero_extendqisi2
 130:/home/y/github/EmbeddedSoftwareMCU/Libraries/AT32/drivers/src/at32f403a_407_gpio.c ****                  (gpio_init_struct->gpio_drive_strength & 0x03);
 241              		.loc 1 130 0
 242 002a 03F00801 		and	r1, r3, #8
 243              	.LVL28:
 244 002e 05F00403 		and	r3, r5, #4
 245 0032 1943     		orrs	r1, r1, r3
 246 0034 04F00303 		and	r3, r4, #3
 247 0038 1943     		orrs	r1, r1, r3
 248              	.LVL29:
 249              	.L18:
 250 003a 97B2     		uxth	r7, r2
 132:/home/y/github/EmbeddedSoftwareMCU/Libraries/AT32/drivers/src/at32f403a_407_gpio.c ****   }
 133:/home/y/github/EmbeddedSoftwareMCU/Libraries/AT32/drivers/src/at32f403a_407_gpio.c **** 
 134:/home/y/github/EmbeddedSoftwareMCU/Libraries/AT32/drivers/src/at32f403a_407_gpio.c ****   /* pin 0~7 config */
 135:/home/y/github/EmbeddedSoftwareMCU/Libraries/AT32/drivers/src/at32f403a_407_gpio.c ****   if(((uint32_t)pin_index & ((uint32_t)0x00FF)) != 0x00)
 251              		.loc 1 135 0
 252 003c 12F0FF0F 		tst	r2, #255
 253 0040 1BD1     		bne	.L30
 254              	.L22:
 136:/home/y/github/EmbeddedSoftwareMCU/Libraries/AT32/drivers/src/at32f403a_407_gpio.c ****   {
 137:/home/y/github/EmbeddedSoftwareMCU/Libraries/AT32/drivers/src/at32f403a_407_gpio.c ****     for(temp = 0; temp < 0x08; temp++)
 138:/home/y/github/EmbeddedSoftwareMCU/Libraries/AT32/drivers/src/at32f403a_407_gpio.c ****     {
 139:/home/y/github/EmbeddedSoftwareMCU/Libraries/AT32/drivers/src/at32f403a_407_gpio.c ****       if((1 << temp) & pin_index)
 140:/home/y/github/EmbeddedSoftwareMCU/Libraries/AT32/drivers/src/at32f403a_407_gpio.c ****       {
ARM GAS  /tmp/cc4PFwpI.s 			page 8


 141:/home/y/github/EmbeddedSoftwareMCU/Libraries/AT32/drivers/src/at32f403a_407_gpio.c ****         gpio_x->cfglr &= (uint32_t)~(0x0F << (temp * 4));
 142:/home/y/github/EmbeddedSoftwareMCU/Libraries/AT32/drivers/src/at32f403a_407_gpio.c ****         gpio_x->cfglr |= (uint32_t)(pinx_value << (temp * 4));
 143:/home/y/github/EmbeddedSoftwareMCU/Libraries/AT32/drivers/src/at32f403a_407_gpio.c ****       }
 144:/home/y/github/EmbeddedSoftwareMCU/Libraries/AT32/drivers/src/at32f403a_407_gpio.c ****     }
 145:/home/y/github/EmbeddedSoftwareMCU/Libraries/AT32/drivers/src/at32f403a_407_gpio.c ****   }
 146:/home/y/github/EmbeddedSoftwareMCU/Libraries/AT32/drivers/src/at32f403a_407_gpio.c **** 
 147:/home/y/github/EmbeddedSoftwareMCU/Libraries/AT32/drivers/src/at32f403a_407_gpio.c ****   /* pin 8~15 config */
 148:/home/y/github/EmbeddedSoftwareMCU/Libraries/AT32/drivers/src/at32f403a_407_gpio.c ****   if(pin_index > 0x00ff)
 255              		.loc 1 148 0
 256 0042 FF2E     		cmp	r6, #255
 257 0044 30D9     		bls	.L17
 149:/home/y/github/EmbeddedSoftwareMCU/Libraries/AT32/drivers/src/at32f403a_407_gpio.c ****   {
 150:/home/y/github/EmbeddedSoftwareMCU/Libraries/AT32/drivers/src/at32f403a_407_gpio.c ****     pin_index = pin_index >> 8;
 258              		.loc 1 150 0
 259 0046 360A     		lsrs	r6, r6, #8
 260              	.LVL30:
 151:/home/y/github/EmbeddedSoftwareMCU/Libraries/AT32/drivers/src/at32f403a_407_gpio.c **** 
 152:/home/y/github/EmbeddedSoftwareMCU/Libraries/AT32/drivers/src/at32f403a_407_gpio.c ****     for(temp = 0; temp < 0x8; temp++)
 261              		.loc 1 152 0
 262 0048 0023     		movs	r3, #0
 263 004a 19E0     		b	.L26
 264              	.LVL31:
 265              	.L29:
 112:/home/y/github/EmbeddedSoftwareMCU/Libraries/AT32/drivers/src/at32f403a_407_gpio.c ****   }
 266              		.loc 1 112 0
 267 004c 0021     		movs	r1, #0
 268              	.LVL32:
 269 004e F4E7     		b	.L18
 270              	.LVL33:
 271              	.L23:
 137:/home/y/github/EmbeddedSoftwareMCU/Libraries/AT32/drivers/src/at32f403a_407_gpio.c ****     {
 272              		.loc 1 137 0 discriminator 2
 273 0050 0133     		adds	r3, r3, #1
 274              	.LVL34:
 275              	.L21:
 137:/home/y/github/EmbeddedSoftwareMCU/Libraries/AT32/drivers/src/at32f403a_407_gpio.c ****     {
 276              		.loc 1 137 0 is_stmt 0 discriminator 1
 277 0052 072B     		cmp	r3, #7
 278 0054 F5D8     		bhi	.L22
 139:/home/y/github/EmbeddedSoftwareMCU/Libraries/AT32/drivers/src/at32f403a_407_gpio.c ****       {
 279              		.loc 1 139 0 is_stmt 1
 280 0056 47FA03F2 		asr	r2, r7, r3
 281 005a 12F0010F 		tst	r2, #1
 282 005e F7D0     		beq	.L23
 141:/home/y/github/EmbeddedSoftwareMCU/Libraries/AT32/drivers/src/at32f403a_407_gpio.c ****         gpio_x->cfglr |= (uint32_t)(pinx_value << (temp * 4));
 283              		.loc 1 141 0
 284 0060 0468     		ldr	r4, [r0]
 285 0062 9A00     		lsls	r2, r3, #2
 286 0064 0F25     		movs	r5, #15
 287 0066 9540     		lsls	r5, r5, r2
 288 0068 24EA0504 		bic	r4, r4, r5
 289 006c 0460     		str	r4, [r0]
 142:/home/y/github/EmbeddedSoftwareMCU/Libraries/AT32/drivers/src/at32f403a_407_gpio.c ****       }
 290              		.loc 1 142 0
 291 006e 0468     		ldr	r4, [r0]
 292 0070 01FA02F2 		lsl	r2, r1, r2
 293 0074 2243     		orrs	r2, r2, r4
ARM GAS  /tmp/cc4PFwpI.s 			page 9


 294 0076 0260     		str	r2, [r0]
 295 0078 EAE7     		b	.L23
 296              	.LVL35:
 297              	.L30:
 298 007a 0023     		movs	r3, #0
 299 007c E9E7     		b	.L21
 300              	.LVL36:
 301              	.L27:
 302              		.loc 1 152 0 discriminator 2
 303 007e 0133     		adds	r3, r3, #1
 304              	.LVL37:
 305              	.L26:
 306              		.loc 1 152 0 is_stmt 0 discriminator 1
 307 0080 072B     		cmp	r3, #7
 308 0082 11D8     		bhi	.L17
 153:/home/y/github/EmbeddedSoftwareMCU/Libraries/AT32/drivers/src/at32f403a_407_gpio.c ****     {
 154:/home/y/github/EmbeddedSoftwareMCU/Libraries/AT32/drivers/src/at32f403a_407_gpio.c ****       if((1 << temp) & pin_index)
 309              		.loc 1 154 0 is_stmt 1
 310 0084 46FA03F2 		asr	r2, r6, r3
 311 0088 12F0010F 		tst	r2, #1
 312 008c F7D0     		beq	.L27
 155:/home/y/github/EmbeddedSoftwareMCU/Libraries/AT32/drivers/src/at32f403a_407_gpio.c ****       {
 156:/home/y/github/EmbeddedSoftwareMCU/Libraries/AT32/drivers/src/at32f403a_407_gpio.c ****         gpio_x->cfghr &= (uint32_t)~(0xf << (temp * 4));
 313              		.loc 1 156 0
 314 008e 4468     		ldr	r4, [r0, #4]
 315 0090 9A00     		lsls	r2, r3, #2
 316 0092 0F25     		movs	r5, #15
 317 0094 9540     		lsls	r5, r5, r2
 318 0096 24EA0504 		bic	r4, r4, r5
 319 009a 4460     		str	r4, [r0, #4]
 157:/home/y/github/EmbeddedSoftwareMCU/Libraries/AT32/drivers/src/at32f403a_407_gpio.c ****         gpio_x->cfghr |= (uint32_t)(pinx_value << (temp * 4));
 320              		.loc 1 157 0
 321 009c 4468     		ldr	r4, [r0, #4]
 322 009e 01FA02F2 		lsl	r2, r1, r2
 323 00a2 2243     		orrs	r2, r2, r4
 324 00a4 4260     		str	r2, [r0, #4]
 325 00a6 EAE7     		b	.L27
 326              	.LVL38:
 327              	.L17:
 158:/home/y/github/EmbeddedSoftwareMCU/Libraries/AT32/drivers/src/at32f403a_407_gpio.c ****       }
 159:/home/y/github/EmbeddedSoftwareMCU/Libraries/AT32/drivers/src/at32f403a_407_gpio.c ****     }
 160:/home/y/github/EmbeddedSoftwareMCU/Libraries/AT32/drivers/src/at32f403a_407_gpio.c ****   }
 161:/home/y/github/EmbeddedSoftwareMCU/Libraries/AT32/drivers/src/at32f403a_407_gpio.c **** }
 328              		.loc 1 161 0
 329 00a8 F0BC     		pop	{r4, r5, r6, r7}
 330              	.LCFI3:
 331              		.cfi_restore 7
 332              		.cfi_restore 6
 333              		.cfi_restore 5
 334              		.cfi_restore 4
 335              		.cfi_def_cfa_offset 0
 336              	.LVL39:
 337 00aa 7047     		bx	lr
 338              		.cfi_endproc
 339              	.LFE135:
 341              		.section	.text.gpio_default_para_init,"ax",%progbits
 342              		.align	1
ARM GAS  /tmp/cc4PFwpI.s 			page 10


 343              		.global	gpio_default_para_init
 344              		.syntax unified
 345              		.thumb
 346              		.thumb_func
 347              		.fpu softvfp
 349              	gpio_default_para_init:
 350              	.LFB136:
 162:/home/y/github/EmbeddedSoftwareMCU/Libraries/AT32/drivers/src/at32f403a_407_gpio.c **** 
 163:/home/y/github/EmbeddedSoftwareMCU/Libraries/AT32/drivers/src/at32f403a_407_gpio.c **** /**
 164:/home/y/github/EmbeddedSoftwareMCU/Libraries/AT32/drivers/src/at32f403a_407_gpio.c ****   * @brief  fill each gpio_init_type member with its default value.
 165:/home/y/github/EmbeddedSoftwareMCU/Libraries/AT32/drivers/src/at32f403a_407_gpio.c ****   * @param  gpio_init_struct : pointer to a gpio_init_type structure which will be initialized.
 166:/home/y/github/EmbeddedSoftwareMCU/Libraries/AT32/drivers/src/at32f403a_407_gpio.c ****   * @retval none
 167:/home/y/github/EmbeddedSoftwareMCU/Libraries/AT32/drivers/src/at32f403a_407_gpio.c ****   */
 168:/home/y/github/EmbeddedSoftwareMCU/Libraries/AT32/drivers/src/at32f403a_407_gpio.c **** void gpio_default_para_init(gpio_init_type *gpio_init_struct)
 169:/home/y/github/EmbeddedSoftwareMCU/Libraries/AT32/drivers/src/at32f403a_407_gpio.c **** {
 351              		.loc 1 169 0
 352              		.cfi_startproc
 353              		@ args = 0, pretend = 0, frame = 0
 354              		@ frame_needed = 0, uses_anonymous_args = 0
 355              		@ link register save eliminated.
 356              	.LVL40:
 170:/home/y/github/EmbeddedSoftwareMCU/Libraries/AT32/drivers/src/at32f403a_407_gpio.c ****   /* reset gpio init structure parameters values */
 171:/home/y/github/EmbeddedSoftwareMCU/Libraries/AT32/drivers/src/at32f403a_407_gpio.c ****   gpio_init_struct->gpio_pins  = GPIO_PINS_ALL;
 357              		.loc 1 171 0
 358 0000 4FF6FF73 		movw	r3, #65535
 359 0004 0360     		str	r3, [r0]
 172:/home/y/github/EmbeddedSoftwareMCU/Libraries/AT32/drivers/src/at32f403a_407_gpio.c ****   gpio_init_struct->gpio_mode = GPIO_MODE_INPUT;
 360              		.loc 1 172 0
 361 0006 0023     		movs	r3, #0
 362 0008 8371     		strb	r3, [r0, #6]
 173:/home/y/github/EmbeddedSoftwareMCU/Libraries/AT32/drivers/src/at32f403a_407_gpio.c ****   gpio_init_struct->gpio_out_type = GPIO_OUTPUT_PUSH_PULL;
 363              		.loc 1 173 0
 364 000a 0371     		strb	r3, [r0, #4]
 174:/home/y/github/EmbeddedSoftwareMCU/Libraries/AT32/drivers/src/at32f403a_407_gpio.c ****   gpio_init_struct->gpio_pull = GPIO_PULL_NONE;
 365              		.loc 1 174 0
 366 000c 0423     		movs	r3, #4
 367 000e 4371     		strb	r3, [r0, #5]
 175:/home/y/github/EmbeddedSoftwareMCU/Libraries/AT32/drivers/src/at32f403a_407_gpio.c ****   gpio_init_struct->gpio_drive_strength = GPIO_DRIVE_STRENGTH_STRONGER;
 368              		.loc 1 175 0
 369 0010 0123     		movs	r3, #1
 370 0012 C371     		strb	r3, [r0, #7]
 371 0014 7047     		bx	lr
 372              		.cfi_endproc
 373              	.LFE136:
 375              		.section	.text.gpio_input_data_bit_read,"ax",%progbits
 376              		.align	1
 377              		.global	gpio_input_data_bit_read
 378              		.syntax unified
 379              		.thumb
 380              		.thumb_func
 381              		.fpu softvfp
 383              	gpio_input_data_bit_read:
 384              	.LFB137:
 176:/home/y/github/EmbeddedSoftwareMCU/Libraries/AT32/drivers/src/at32f403a_407_gpio.c **** }
 177:/home/y/github/EmbeddedSoftwareMCU/Libraries/AT32/drivers/src/at32f403a_407_gpio.c **** 
 178:/home/y/github/EmbeddedSoftwareMCU/Libraries/AT32/drivers/src/at32f403a_407_gpio.c **** /**
 179:/home/y/github/EmbeddedSoftwareMCU/Libraries/AT32/drivers/src/at32f403a_407_gpio.c ****   * @brief  read the specified input port pin.
ARM GAS  /tmp/cc4PFwpI.s 			page 11


 180:/home/y/github/EmbeddedSoftwareMCU/Libraries/AT32/drivers/src/at32f403a_407_gpio.c ****   * @param  gpio_x: to select the gpio peripheral.
 181:/home/y/github/EmbeddedSoftwareMCU/Libraries/AT32/drivers/src/at32f403a_407_gpio.c ****   *         this parameter can be one of the following values:
 182:/home/y/github/EmbeddedSoftwareMCU/Libraries/AT32/drivers/src/at32f403a_407_gpio.c ****   *         GPIOA, GPIOB, GPIOC, GPIOD, GPIOE.
 183:/home/y/github/EmbeddedSoftwareMCU/Libraries/AT32/drivers/src/at32f403a_407_gpio.c ****   * @param  pins: gpio pin number
 184:/home/y/github/EmbeddedSoftwareMCU/Libraries/AT32/drivers/src/at32f403a_407_gpio.c ****   *         this parameter can be one of the following values:
 185:/home/y/github/EmbeddedSoftwareMCU/Libraries/AT32/drivers/src/at32f403a_407_gpio.c ****   *         - GPIO_PINS_0
 186:/home/y/github/EmbeddedSoftwareMCU/Libraries/AT32/drivers/src/at32f403a_407_gpio.c ****   *         - GPIO_PINS_1
 187:/home/y/github/EmbeddedSoftwareMCU/Libraries/AT32/drivers/src/at32f403a_407_gpio.c ****   *         - GPIO_PINS_2
 188:/home/y/github/EmbeddedSoftwareMCU/Libraries/AT32/drivers/src/at32f403a_407_gpio.c ****   *         - GPIO_PINS_3
 189:/home/y/github/EmbeddedSoftwareMCU/Libraries/AT32/drivers/src/at32f403a_407_gpio.c ****   *         - GPIO_PINS_4
 190:/home/y/github/EmbeddedSoftwareMCU/Libraries/AT32/drivers/src/at32f403a_407_gpio.c ****   *         - GPIO_PINS_5
 191:/home/y/github/EmbeddedSoftwareMCU/Libraries/AT32/drivers/src/at32f403a_407_gpio.c ****   *         - GPIO_PINS_6
 192:/home/y/github/EmbeddedSoftwareMCU/Libraries/AT32/drivers/src/at32f403a_407_gpio.c ****   *         - GPIO_PINS_7
 193:/home/y/github/EmbeddedSoftwareMCU/Libraries/AT32/drivers/src/at32f403a_407_gpio.c ****   *         - GPIO_PINS_8
 194:/home/y/github/EmbeddedSoftwareMCU/Libraries/AT32/drivers/src/at32f403a_407_gpio.c ****   *         - GPIO_PINS_9
 195:/home/y/github/EmbeddedSoftwareMCU/Libraries/AT32/drivers/src/at32f403a_407_gpio.c ****   *         - GPIO_PINS_10
 196:/home/y/github/EmbeddedSoftwareMCU/Libraries/AT32/drivers/src/at32f403a_407_gpio.c ****   *         - GPIO_PINS_11
 197:/home/y/github/EmbeddedSoftwareMCU/Libraries/AT32/drivers/src/at32f403a_407_gpio.c ****   *         - GPIO_PINS_12
 198:/home/y/github/EmbeddedSoftwareMCU/Libraries/AT32/drivers/src/at32f403a_407_gpio.c ****   *         - GPIO_PINS_13
 199:/home/y/github/EmbeddedSoftwareMCU/Libraries/AT32/drivers/src/at32f403a_407_gpio.c ****   *         - GPIO_PINS_14
 200:/home/y/github/EmbeddedSoftwareMCU/Libraries/AT32/drivers/src/at32f403a_407_gpio.c ****   *         - GPIO_PINS_15
 201:/home/y/github/EmbeddedSoftwareMCU/Libraries/AT32/drivers/src/at32f403a_407_gpio.c ****   * @retval flag_status (SET or RESET)
 202:/home/y/github/EmbeddedSoftwareMCU/Libraries/AT32/drivers/src/at32f403a_407_gpio.c ****   */
 203:/home/y/github/EmbeddedSoftwareMCU/Libraries/AT32/drivers/src/at32f403a_407_gpio.c **** flag_status gpio_input_data_bit_read(gpio_type *gpio_x, uint16_t pins)
 204:/home/y/github/EmbeddedSoftwareMCU/Libraries/AT32/drivers/src/at32f403a_407_gpio.c **** {
 385              		.loc 1 204 0
 386              		.cfi_startproc
 387              		@ args = 0, pretend = 0, frame = 0
 388              		@ frame_needed = 0, uses_anonymous_args = 0
 389              		@ link register save eliminated.
 390              	.LVL41:
 205:/home/y/github/EmbeddedSoftwareMCU/Libraries/AT32/drivers/src/at32f403a_407_gpio.c ****   flag_status status = RESET;
 206:/home/y/github/EmbeddedSoftwareMCU/Libraries/AT32/drivers/src/at32f403a_407_gpio.c **** 
 207:/home/y/github/EmbeddedSoftwareMCU/Libraries/AT32/drivers/src/at32f403a_407_gpio.c ****   if(pins != (pins & gpio_x->idt))
 391              		.loc 1 207 0
 392 0000 8368     		ldr	r3, [r0, #8]
 393 0002 31EA0303 		bics	r3, r1, r3
 394 0006 01D0     		beq	.L36
 208:/home/y/github/EmbeddedSoftwareMCU/Libraries/AT32/drivers/src/at32f403a_407_gpio.c ****   {
 209:/home/y/github/EmbeddedSoftwareMCU/Libraries/AT32/drivers/src/at32f403a_407_gpio.c ****     status = RESET;
 395              		.loc 1 209 0
 396 0008 0020     		movs	r0, #0
 397              	.LVL42:
 398 000a 7047     		bx	lr
 399              	.LVL43:
 400              	.L36:
 210:/home/y/github/EmbeddedSoftwareMCU/Libraries/AT32/drivers/src/at32f403a_407_gpio.c ****   }
 211:/home/y/github/EmbeddedSoftwareMCU/Libraries/AT32/drivers/src/at32f403a_407_gpio.c ****   else
 212:/home/y/github/EmbeddedSoftwareMCU/Libraries/AT32/drivers/src/at32f403a_407_gpio.c ****   {
 213:/home/y/github/EmbeddedSoftwareMCU/Libraries/AT32/drivers/src/at32f403a_407_gpio.c ****     status = SET;
 401              		.loc 1 213 0
 402 000c 0120     		movs	r0, #1
 403              	.LVL44:
 214:/home/y/github/EmbeddedSoftwareMCU/Libraries/AT32/drivers/src/at32f403a_407_gpio.c ****   }
 215:/home/y/github/EmbeddedSoftwareMCU/Libraries/AT32/drivers/src/at32f403a_407_gpio.c **** 
 216:/home/y/github/EmbeddedSoftwareMCU/Libraries/AT32/drivers/src/at32f403a_407_gpio.c ****   return status;
 217:/home/y/github/EmbeddedSoftwareMCU/Libraries/AT32/drivers/src/at32f403a_407_gpio.c **** }
ARM GAS  /tmp/cc4PFwpI.s 			page 12


 404              		.loc 1 217 0
 405 000e 7047     		bx	lr
 406              		.cfi_endproc
 407              	.LFE137:
 409              		.section	.text.gpio_input_data_read,"ax",%progbits
 410              		.align	1
 411              		.global	gpio_input_data_read
 412              		.syntax unified
 413              		.thumb
 414              		.thumb_func
 415              		.fpu softvfp
 417              	gpio_input_data_read:
 418              	.LFB138:
 218:/home/y/github/EmbeddedSoftwareMCU/Libraries/AT32/drivers/src/at32f403a_407_gpio.c **** 
 219:/home/y/github/EmbeddedSoftwareMCU/Libraries/AT32/drivers/src/at32f403a_407_gpio.c **** /**
 220:/home/y/github/EmbeddedSoftwareMCU/Libraries/AT32/drivers/src/at32f403a_407_gpio.c ****   * @brief  read the specified gpio input data port.
 221:/home/y/github/EmbeddedSoftwareMCU/Libraries/AT32/drivers/src/at32f403a_407_gpio.c ****   * @param  gpio_x: to select the gpio peripheral.
 222:/home/y/github/EmbeddedSoftwareMCU/Libraries/AT32/drivers/src/at32f403a_407_gpio.c ****   *         this parameter can be one of the following values:
 223:/home/y/github/EmbeddedSoftwareMCU/Libraries/AT32/drivers/src/at32f403a_407_gpio.c ****   *         GPIOA, GPIOB, GPIOC, GPIOD, GPIOE.
 224:/home/y/github/EmbeddedSoftwareMCU/Libraries/AT32/drivers/src/at32f403a_407_gpio.c ****   * @retval gpio input data port value.
 225:/home/y/github/EmbeddedSoftwareMCU/Libraries/AT32/drivers/src/at32f403a_407_gpio.c ****   */
 226:/home/y/github/EmbeddedSoftwareMCU/Libraries/AT32/drivers/src/at32f403a_407_gpio.c **** uint16_t gpio_input_data_read(gpio_type *gpio_x)
 227:/home/y/github/EmbeddedSoftwareMCU/Libraries/AT32/drivers/src/at32f403a_407_gpio.c **** {
 419              		.loc 1 227 0
 420              		.cfi_startproc
 421              		@ args = 0, pretend = 0, frame = 0
 422              		@ frame_needed = 0, uses_anonymous_args = 0
 423              		@ link register save eliminated.
 424              	.LVL45:
 228:/home/y/github/EmbeddedSoftwareMCU/Libraries/AT32/drivers/src/at32f403a_407_gpio.c ****   return ((uint16_t)(gpio_x->idt));
 425              		.loc 1 228 0
 426 0000 8068     		ldr	r0, [r0, #8]
 427              	.LVL46:
 229:/home/y/github/EmbeddedSoftwareMCU/Libraries/AT32/drivers/src/at32f403a_407_gpio.c **** }
 428              		.loc 1 229 0
 429 0002 80B2     		uxth	r0, r0
 430 0004 7047     		bx	lr
 431              		.cfi_endproc
 432              	.LFE138:
 434              		.section	.text.gpio_output_data_bit_read,"ax",%progbits
 435              		.align	1
 436              		.global	gpio_output_data_bit_read
 437              		.syntax unified
 438              		.thumb
 439              		.thumb_func
 440              		.fpu softvfp
 442              	gpio_output_data_bit_read:
 443              	.LFB139:
 230:/home/y/github/EmbeddedSoftwareMCU/Libraries/AT32/drivers/src/at32f403a_407_gpio.c **** 
 231:/home/y/github/EmbeddedSoftwareMCU/Libraries/AT32/drivers/src/at32f403a_407_gpio.c **** /**
 232:/home/y/github/EmbeddedSoftwareMCU/Libraries/AT32/drivers/src/at32f403a_407_gpio.c ****   * @brief  read the specified output port pin.
 233:/home/y/github/EmbeddedSoftwareMCU/Libraries/AT32/drivers/src/at32f403a_407_gpio.c ****   * @param  gpio_x: to select the gpio peripheral.
 234:/home/y/github/EmbeddedSoftwareMCU/Libraries/AT32/drivers/src/at32f403a_407_gpio.c ****   *         this parameter can be one of the following values:
 235:/home/y/github/EmbeddedSoftwareMCU/Libraries/AT32/drivers/src/at32f403a_407_gpio.c ****   *         GPIOA, GPIOB, GPIOC, GPIOD, GPIOE.
 236:/home/y/github/EmbeddedSoftwareMCU/Libraries/AT32/drivers/src/at32f403a_407_gpio.c ****   * @param  pins: gpio pin number
 237:/home/y/github/EmbeddedSoftwareMCU/Libraries/AT32/drivers/src/at32f403a_407_gpio.c ****   *         this parameter can be one of the following values:
 238:/home/y/github/EmbeddedSoftwareMCU/Libraries/AT32/drivers/src/at32f403a_407_gpio.c ****   *         - GPIO_PINS_0
ARM GAS  /tmp/cc4PFwpI.s 			page 13


 239:/home/y/github/EmbeddedSoftwareMCU/Libraries/AT32/drivers/src/at32f403a_407_gpio.c ****   *         - GPIO_PINS_1
 240:/home/y/github/EmbeddedSoftwareMCU/Libraries/AT32/drivers/src/at32f403a_407_gpio.c ****   *         - GPIO_PINS_2
 241:/home/y/github/EmbeddedSoftwareMCU/Libraries/AT32/drivers/src/at32f403a_407_gpio.c ****   *         - GPIO_PINS_3
 242:/home/y/github/EmbeddedSoftwareMCU/Libraries/AT32/drivers/src/at32f403a_407_gpio.c ****   *         - GPIO_PINS_4
 243:/home/y/github/EmbeddedSoftwareMCU/Libraries/AT32/drivers/src/at32f403a_407_gpio.c ****   *         - GPIO_PINS_5
 244:/home/y/github/EmbeddedSoftwareMCU/Libraries/AT32/drivers/src/at32f403a_407_gpio.c ****   *         - GPIO_PINS_6
 245:/home/y/github/EmbeddedSoftwareMCU/Libraries/AT32/drivers/src/at32f403a_407_gpio.c ****   *         - GPIO_PINS_7
 246:/home/y/github/EmbeddedSoftwareMCU/Libraries/AT32/drivers/src/at32f403a_407_gpio.c ****   *         - GPIO_PINS_8
 247:/home/y/github/EmbeddedSoftwareMCU/Libraries/AT32/drivers/src/at32f403a_407_gpio.c ****   *         - GPIO_PINS_9
 248:/home/y/github/EmbeddedSoftwareMCU/Libraries/AT32/drivers/src/at32f403a_407_gpio.c ****   *         - GPIO_PINS_10
 249:/home/y/github/EmbeddedSoftwareMCU/Libraries/AT32/drivers/src/at32f403a_407_gpio.c ****   *         - GPIO_PINS_11
 250:/home/y/github/EmbeddedSoftwareMCU/Libraries/AT32/drivers/src/at32f403a_407_gpio.c ****   *         - GPIO_PINS_12
 251:/home/y/github/EmbeddedSoftwareMCU/Libraries/AT32/drivers/src/at32f403a_407_gpio.c ****   *         - GPIO_PINS_13
 252:/home/y/github/EmbeddedSoftwareMCU/Libraries/AT32/drivers/src/at32f403a_407_gpio.c ****   *         - GPIO_PINS_14
 253:/home/y/github/EmbeddedSoftwareMCU/Libraries/AT32/drivers/src/at32f403a_407_gpio.c ****   *         - GPIO_PINS_15
 254:/home/y/github/EmbeddedSoftwareMCU/Libraries/AT32/drivers/src/at32f403a_407_gpio.c ****   * @retval flag_status (SET or RESET)
 255:/home/y/github/EmbeddedSoftwareMCU/Libraries/AT32/drivers/src/at32f403a_407_gpio.c ****   */
 256:/home/y/github/EmbeddedSoftwareMCU/Libraries/AT32/drivers/src/at32f403a_407_gpio.c **** flag_status gpio_output_data_bit_read(gpio_type *gpio_x, uint16_t pins)
 257:/home/y/github/EmbeddedSoftwareMCU/Libraries/AT32/drivers/src/at32f403a_407_gpio.c **** {
 444              		.loc 1 257 0
 445              		.cfi_startproc
 446              		@ args = 0, pretend = 0, frame = 0
 447              		@ frame_needed = 0, uses_anonymous_args = 0
 448              		@ link register save eliminated.
 449              	.LVL47:
 258:/home/y/github/EmbeddedSoftwareMCU/Libraries/AT32/drivers/src/at32f403a_407_gpio.c ****   flag_status status = RESET;
 259:/home/y/github/EmbeddedSoftwareMCU/Libraries/AT32/drivers/src/at32f403a_407_gpio.c **** 
 260:/home/y/github/EmbeddedSoftwareMCU/Libraries/AT32/drivers/src/at32f403a_407_gpio.c ****   if((gpio_x->odt & pins) != RESET)
 450              		.loc 1 260 0
 451 0000 C368     		ldr	r3, [r0, #12]
 452 0002 1942     		tst	r1, r3
 453 0004 01D1     		bne	.L41
 261:/home/y/github/EmbeddedSoftwareMCU/Libraries/AT32/drivers/src/at32f403a_407_gpio.c ****   {
 262:/home/y/github/EmbeddedSoftwareMCU/Libraries/AT32/drivers/src/at32f403a_407_gpio.c ****     status = SET;
 263:/home/y/github/EmbeddedSoftwareMCU/Libraries/AT32/drivers/src/at32f403a_407_gpio.c ****   }
 264:/home/y/github/EmbeddedSoftwareMCU/Libraries/AT32/drivers/src/at32f403a_407_gpio.c ****   else
 265:/home/y/github/EmbeddedSoftwareMCU/Libraries/AT32/drivers/src/at32f403a_407_gpio.c ****   {
 266:/home/y/github/EmbeddedSoftwareMCU/Libraries/AT32/drivers/src/at32f403a_407_gpio.c ****     status = RESET;
 454              		.loc 1 266 0
 455 0006 0020     		movs	r0, #0
 456              	.LVL48:
 267:/home/y/github/EmbeddedSoftwareMCU/Libraries/AT32/drivers/src/at32f403a_407_gpio.c ****   }
 268:/home/y/github/EmbeddedSoftwareMCU/Libraries/AT32/drivers/src/at32f403a_407_gpio.c **** 
 269:/home/y/github/EmbeddedSoftwareMCU/Libraries/AT32/drivers/src/at32f403a_407_gpio.c ****   return status;
 270:/home/y/github/EmbeddedSoftwareMCU/Libraries/AT32/drivers/src/at32f403a_407_gpio.c **** }
 457              		.loc 1 270 0
 458 0008 7047     		bx	lr
 459              	.LVL49:
 460              	.L41:
 262:/home/y/github/EmbeddedSoftwareMCU/Libraries/AT32/drivers/src/at32f403a_407_gpio.c ****   }
 461              		.loc 1 262 0
 462 000a 0120     		movs	r0, #1
 463              	.LVL50:
 464 000c 7047     		bx	lr
 465              		.cfi_endproc
 466              	.LFE139:
 468              		.section	.text.gpio_output_data_read,"ax",%progbits
ARM GAS  /tmp/cc4PFwpI.s 			page 14


 469              		.align	1
 470              		.global	gpio_output_data_read
 471              		.syntax unified
 472              		.thumb
 473              		.thumb_func
 474              		.fpu softvfp
 476              	gpio_output_data_read:
 477              	.LFB140:
 271:/home/y/github/EmbeddedSoftwareMCU/Libraries/AT32/drivers/src/at32f403a_407_gpio.c **** 
 272:/home/y/github/EmbeddedSoftwareMCU/Libraries/AT32/drivers/src/at32f403a_407_gpio.c **** /**
 273:/home/y/github/EmbeddedSoftwareMCU/Libraries/AT32/drivers/src/at32f403a_407_gpio.c ****   * @brief  read the specified gpio ouput data port.
 274:/home/y/github/EmbeddedSoftwareMCU/Libraries/AT32/drivers/src/at32f403a_407_gpio.c ****   * @param  gpio_x: to select the gpio peripheral.
 275:/home/y/github/EmbeddedSoftwareMCU/Libraries/AT32/drivers/src/at32f403a_407_gpio.c ****   *         this parameter can be one of the following values:
 276:/home/y/github/EmbeddedSoftwareMCU/Libraries/AT32/drivers/src/at32f403a_407_gpio.c ****   *         GPIOA, GPIOB, GPIOC, GPIOD, GPIOE.
 277:/home/y/github/EmbeddedSoftwareMCU/Libraries/AT32/drivers/src/at32f403a_407_gpio.c ****   * @retval gpio input data port value.
 278:/home/y/github/EmbeddedSoftwareMCU/Libraries/AT32/drivers/src/at32f403a_407_gpio.c ****   */
 279:/home/y/github/EmbeddedSoftwareMCU/Libraries/AT32/drivers/src/at32f403a_407_gpio.c **** uint16_t gpio_output_data_read(gpio_type *gpio_x)
 280:/home/y/github/EmbeddedSoftwareMCU/Libraries/AT32/drivers/src/at32f403a_407_gpio.c **** {
 478              		.loc 1 280 0
 479              		.cfi_startproc
 480              		@ args = 0, pretend = 0, frame = 0
 481              		@ frame_needed = 0, uses_anonymous_args = 0
 482              		@ link register save eliminated.
 483              	.LVL51:
 281:/home/y/github/EmbeddedSoftwareMCU/Libraries/AT32/drivers/src/at32f403a_407_gpio.c ****   return ((uint16_t)(gpio_x->odt));
 484              		.loc 1 281 0
 485 0000 C068     		ldr	r0, [r0, #12]
 486              	.LVL52:
 282:/home/y/github/EmbeddedSoftwareMCU/Libraries/AT32/drivers/src/at32f403a_407_gpio.c **** }
 487              		.loc 1 282 0
 488 0002 80B2     		uxth	r0, r0
 489 0004 7047     		bx	lr
 490              		.cfi_endproc
 491              	.LFE140:
 493              		.section	.text.gpio_bits_set,"ax",%progbits
 494              		.align	1
 495              		.global	gpio_bits_set
 496              		.syntax unified
 497              		.thumb
 498              		.thumb_func
 499              		.fpu softvfp
 501              	gpio_bits_set:
 502              	.LFB141:
 283:/home/y/github/EmbeddedSoftwareMCU/Libraries/AT32/drivers/src/at32f403a_407_gpio.c **** 
 284:/home/y/github/EmbeddedSoftwareMCU/Libraries/AT32/drivers/src/at32f403a_407_gpio.c **** /**
 285:/home/y/github/EmbeddedSoftwareMCU/Libraries/AT32/drivers/src/at32f403a_407_gpio.c ****   * @brief  set the selected data port bits.
 286:/home/y/github/EmbeddedSoftwareMCU/Libraries/AT32/drivers/src/at32f403a_407_gpio.c ****   * @param  gpio_x: to select the gpio peripheral.
 287:/home/y/github/EmbeddedSoftwareMCU/Libraries/AT32/drivers/src/at32f403a_407_gpio.c ****   *         this parameter can be one of the following values:
 288:/home/y/github/EmbeddedSoftwareMCU/Libraries/AT32/drivers/src/at32f403a_407_gpio.c ****   *         GPIOA, GPIOB, GPIOC, GPIOD, GPIOE.
 289:/home/y/github/EmbeddedSoftwareMCU/Libraries/AT32/drivers/src/at32f403a_407_gpio.c ****   * @param  pins: gpio pin number
 290:/home/y/github/EmbeddedSoftwareMCU/Libraries/AT32/drivers/src/at32f403a_407_gpio.c ****   *         parameter can be any combination of gpio_pin_x, gpio_pin_x as following values:
 291:/home/y/github/EmbeddedSoftwareMCU/Libraries/AT32/drivers/src/at32f403a_407_gpio.c ****   *         - GPIO_PINS_0
 292:/home/y/github/EmbeddedSoftwareMCU/Libraries/AT32/drivers/src/at32f403a_407_gpio.c ****   *         - GPIO_PINS_1
 293:/home/y/github/EmbeddedSoftwareMCU/Libraries/AT32/drivers/src/at32f403a_407_gpio.c ****   *         - GPIO_PINS_2
 294:/home/y/github/EmbeddedSoftwareMCU/Libraries/AT32/drivers/src/at32f403a_407_gpio.c ****   *         - GPIO_PINS_3
 295:/home/y/github/EmbeddedSoftwareMCU/Libraries/AT32/drivers/src/at32f403a_407_gpio.c ****   *         - GPIO_PINS_4
 296:/home/y/github/EmbeddedSoftwareMCU/Libraries/AT32/drivers/src/at32f403a_407_gpio.c ****   *         - GPIO_PINS_5
ARM GAS  /tmp/cc4PFwpI.s 			page 15


 297:/home/y/github/EmbeddedSoftwareMCU/Libraries/AT32/drivers/src/at32f403a_407_gpio.c ****   *         - GPIO_PINS_6
 298:/home/y/github/EmbeddedSoftwareMCU/Libraries/AT32/drivers/src/at32f403a_407_gpio.c ****   *         - GPIO_PINS_7
 299:/home/y/github/EmbeddedSoftwareMCU/Libraries/AT32/drivers/src/at32f403a_407_gpio.c ****   *         - GPIO_PINS_8
 300:/home/y/github/EmbeddedSoftwareMCU/Libraries/AT32/drivers/src/at32f403a_407_gpio.c ****   *         - GPIO_PINS_9
 301:/home/y/github/EmbeddedSoftwareMCU/Libraries/AT32/drivers/src/at32f403a_407_gpio.c ****   *         - GPIO_PINS_10
 302:/home/y/github/EmbeddedSoftwareMCU/Libraries/AT32/drivers/src/at32f403a_407_gpio.c ****   *         - GPIO_PINS_11
 303:/home/y/github/EmbeddedSoftwareMCU/Libraries/AT32/drivers/src/at32f403a_407_gpio.c ****   *         - GPIO_PINS_12
 304:/home/y/github/EmbeddedSoftwareMCU/Libraries/AT32/drivers/src/at32f403a_407_gpio.c ****   *         - GPIO_PINS_13
 305:/home/y/github/EmbeddedSoftwareMCU/Libraries/AT32/drivers/src/at32f403a_407_gpio.c ****   *         - GPIO_PINS_14
 306:/home/y/github/EmbeddedSoftwareMCU/Libraries/AT32/drivers/src/at32f403a_407_gpio.c ****   *         - GPIO_PINS_15
 307:/home/y/github/EmbeddedSoftwareMCU/Libraries/AT32/drivers/src/at32f403a_407_gpio.c ****   *         - GPIO_PINS_ALL
 308:/home/y/github/EmbeddedSoftwareMCU/Libraries/AT32/drivers/src/at32f403a_407_gpio.c ****   * @retval none
 309:/home/y/github/EmbeddedSoftwareMCU/Libraries/AT32/drivers/src/at32f403a_407_gpio.c ****   */
 310:/home/y/github/EmbeddedSoftwareMCU/Libraries/AT32/drivers/src/at32f403a_407_gpio.c **** void gpio_bits_set(gpio_type *gpio_x, uint16_t pins)
 311:/home/y/github/EmbeddedSoftwareMCU/Libraries/AT32/drivers/src/at32f403a_407_gpio.c **** {
 503              		.loc 1 311 0
 504              		.cfi_startproc
 505              		@ args = 0, pretend = 0, frame = 0
 506              		@ frame_needed = 0, uses_anonymous_args = 0
 507              		@ link register save eliminated.
 508              	.LVL53:
 312:/home/y/github/EmbeddedSoftwareMCU/Libraries/AT32/drivers/src/at32f403a_407_gpio.c ****   gpio_x->scr = pins;
 509              		.loc 1 312 0
 510 0000 0161     		str	r1, [r0, #16]
 511 0002 7047     		bx	lr
 512              		.cfi_endproc
 513              	.LFE141:
 515              		.section	.text.gpio_bits_reset,"ax",%progbits
 516              		.align	1
 517              		.global	gpio_bits_reset
 518              		.syntax unified
 519              		.thumb
 520              		.thumb_func
 521              		.fpu softvfp
 523              	gpio_bits_reset:
 524              	.LFB142:
 313:/home/y/github/EmbeddedSoftwareMCU/Libraries/AT32/drivers/src/at32f403a_407_gpio.c **** }
 314:/home/y/github/EmbeddedSoftwareMCU/Libraries/AT32/drivers/src/at32f403a_407_gpio.c **** 
 315:/home/y/github/EmbeddedSoftwareMCU/Libraries/AT32/drivers/src/at32f403a_407_gpio.c **** /**
 316:/home/y/github/EmbeddedSoftwareMCU/Libraries/AT32/drivers/src/at32f403a_407_gpio.c ****   * @brief  clear the selected data port bits.
 317:/home/y/github/EmbeddedSoftwareMCU/Libraries/AT32/drivers/src/at32f403a_407_gpio.c ****   * @param  gpio_x: to select the gpio peripheral.
 318:/home/y/github/EmbeddedSoftwareMCU/Libraries/AT32/drivers/src/at32f403a_407_gpio.c ****   *         this parameter can be one of the following values:
 319:/home/y/github/EmbeddedSoftwareMCU/Libraries/AT32/drivers/src/at32f403a_407_gpio.c ****   *         GPIOA, GPIOB, GPIOC, GPIOD, GPIOE.
 320:/home/y/github/EmbeddedSoftwareMCU/Libraries/AT32/drivers/src/at32f403a_407_gpio.c ****   * @param  pins: gpio pin number
 321:/home/y/github/EmbeddedSoftwareMCU/Libraries/AT32/drivers/src/at32f403a_407_gpio.c ****   *         parameter can be any combination of gpio_pin_x, gpio_pin_x as following values:
 322:/home/y/github/EmbeddedSoftwareMCU/Libraries/AT32/drivers/src/at32f403a_407_gpio.c ****   *         - GPIO_PINS_0
 323:/home/y/github/EmbeddedSoftwareMCU/Libraries/AT32/drivers/src/at32f403a_407_gpio.c ****   *         - GPIO_PINS_1
 324:/home/y/github/EmbeddedSoftwareMCU/Libraries/AT32/drivers/src/at32f403a_407_gpio.c ****   *         - GPIO_PINS_2
 325:/home/y/github/EmbeddedSoftwareMCU/Libraries/AT32/drivers/src/at32f403a_407_gpio.c ****   *         - GPIO_PINS_3
 326:/home/y/github/EmbeddedSoftwareMCU/Libraries/AT32/drivers/src/at32f403a_407_gpio.c ****   *         - GPIO_PINS_4
 327:/home/y/github/EmbeddedSoftwareMCU/Libraries/AT32/drivers/src/at32f403a_407_gpio.c ****   *         - GPIO_PINS_5
 328:/home/y/github/EmbeddedSoftwareMCU/Libraries/AT32/drivers/src/at32f403a_407_gpio.c ****   *         - GPIO_PINS_6
 329:/home/y/github/EmbeddedSoftwareMCU/Libraries/AT32/drivers/src/at32f403a_407_gpio.c ****   *         - GPIO_PINS_7
 330:/home/y/github/EmbeddedSoftwareMCU/Libraries/AT32/drivers/src/at32f403a_407_gpio.c ****   *         - GPIO_PINS_8
 331:/home/y/github/EmbeddedSoftwareMCU/Libraries/AT32/drivers/src/at32f403a_407_gpio.c ****   *         - GPIO_PINS_9
 332:/home/y/github/EmbeddedSoftwareMCU/Libraries/AT32/drivers/src/at32f403a_407_gpio.c ****   *         - GPIO_PINS_10
 333:/home/y/github/EmbeddedSoftwareMCU/Libraries/AT32/drivers/src/at32f403a_407_gpio.c ****   *         - GPIO_PINS_11
ARM GAS  /tmp/cc4PFwpI.s 			page 16


 334:/home/y/github/EmbeddedSoftwareMCU/Libraries/AT32/drivers/src/at32f403a_407_gpio.c ****   *         - GPIO_PINS_12
 335:/home/y/github/EmbeddedSoftwareMCU/Libraries/AT32/drivers/src/at32f403a_407_gpio.c ****   *         - GPIO_PINS_13
 336:/home/y/github/EmbeddedSoftwareMCU/Libraries/AT32/drivers/src/at32f403a_407_gpio.c ****   *         - GPIO_PINS_14
 337:/home/y/github/EmbeddedSoftwareMCU/Libraries/AT32/drivers/src/at32f403a_407_gpio.c ****   *         - GPIO_PINS_15
 338:/home/y/github/EmbeddedSoftwareMCU/Libraries/AT32/drivers/src/at32f403a_407_gpio.c ****   *         - GPIO_PINS_ALL
 339:/home/y/github/EmbeddedSoftwareMCU/Libraries/AT32/drivers/src/at32f403a_407_gpio.c ****   * @retval none
 340:/home/y/github/EmbeddedSoftwareMCU/Libraries/AT32/drivers/src/at32f403a_407_gpio.c ****   */
 341:/home/y/github/EmbeddedSoftwareMCU/Libraries/AT32/drivers/src/at32f403a_407_gpio.c **** void gpio_bits_reset(gpio_type *gpio_x, uint16_t pins)
 342:/home/y/github/EmbeddedSoftwareMCU/Libraries/AT32/drivers/src/at32f403a_407_gpio.c **** {
 525              		.loc 1 342 0
 526              		.cfi_startproc
 527              		@ args = 0, pretend = 0, frame = 0
 528              		@ frame_needed = 0, uses_anonymous_args = 0
 529              		@ link register save eliminated.
 530              	.LVL54:
 343:/home/y/github/EmbeddedSoftwareMCU/Libraries/AT32/drivers/src/at32f403a_407_gpio.c ****   gpio_x->clr = pins;
 531              		.loc 1 343 0
 532 0000 4161     		str	r1, [r0, #20]
 533 0002 7047     		bx	lr
 534              		.cfi_endproc
 535              	.LFE142:
 537              		.section	.text.gpio_bits_write,"ax",%progbits
 538              		.align	1
 539              		.global	gpio_bits_write
 540              		.syntax unified
 541              		.thumb
 542              		.thumb_func
 543              		.fpu softvfp
 545              	gpio_bits_write:
 546              	.LFB143:
 344:/home/y/github/EmbeddedSoftwareMCU/Libraries/AT32/drivers/src/at32f403a_407_gpio.c **** }
 345:/home/y/github/EmbeddedSoftwareMCU/Libraries/AT32/drivers/src/at32f403a_407_gpio.c **** 
 346:/home/y/github/EmbeddedSoftwareMCU/Libraries/AT32/drivers/src/at32f403a_407_gpio.c **** /**
 347:/home/y/github/EmbeddedSoftwareMCU/Libraries/AT32/drivers/src/at32f403a_407_gpio.c ****   * @brief  set or clear the selected data port bit.
 348:/home/y/github/EmbeddedSoftwareMCU/Libraries/AT32/drivers/src/at32f403a_407_gpio.c ****   * @param  gpio_x: to select the gpio peripheral.
 349:/home/y/github/EmbeddedSoftwareMCU/Libraries/AT32/drivers/src/at32f403a_407_gpio.c ****   *         this parameter can be one of the following values:
 350:/home/y/github/EmbeddedSoftwareMCU/Libraries/AT32/drivers/src/at32f403a_407_gpio.c ****   *         GPIOA, GPIOB, GPIOC, GPIOD, GPIOE.
 351:/home/y/github/EmbeddedSoftwareMCU/Libraries/AT32/drivers/src/at32f403a_407_gpio.c ****   * @param  pins: gpio pin number
 352:/home/y/github/EmbeddedSoftwareMCU/Libraries/AT32/drivers/src/at32f403a_407_gpio.c ****   *         parameter can be any combination of gpio_pin_x, gpio_pin_x as following values:
 353:/home/y/github/EmbeddedSoftwareMCU/Libraries/AT32/drivers/src/at32f403a_407_gpio.c ****   *         - GPIO_PINS_0
 354:/home/y/github/EmbeddedSoftwareMCU/Libraries/AT32/drivers/src/at32f403a_407_gpio.c ****   *         - GPIO_PINS_1
 355:/home/y/github/EmbeddedSoftwareMCU/Libraries/AT32/drivers/src/at32f403a_407_gpio.c ****   *         - GPIO_PINS_2
 356:/home/y/github/EmbeddedSoftwareMCU/Libraries/AT32/drivers/src/at32f403a_407_gpio.c ****   *         - GPIO_PINS_3
 357:/home/y/github/EmbeddedSoftwareMCU/Libraries/AT32/drivers/src/at32f403a_407_gpio.c ****   *         - GPIO_PINS_4
 358:/home/y/github/EmbeddedSoftwareMCU/Libraries/AT32/drivers/src/at32f403a_407_gpio.c ****   *         - GPIO_PINS_5
 359:/home/y/github/EmbeddedSoftwareMCU/Libraries/AT32/drivers/src/at32f403a_407_gpio.c ****   *         - GPIO_PINS_6
 360:/home/y/github/EmbeddedSoftwareMCU/Libraries/AT32/drivers/src/at32f403a_407_gpio.c ****   *         - GPIO_PINS_7
 361:/home/y/github/EmbeddedSoftwareMCU/Libraries/AT32/drivers/src/at32f403a_407_gpio.c ****   *         - GPIO_PINS_8
 362:/home/y/github/EmbeddedSoftwareMCU/Libraries/AT32/drivers/src/at32f403a_407_gpio.c ****   *         - GPIO_PINS_9
 363:/home/y/github/EmbeddedSoftwareMCU/Libraries/AT32/drivers/src/at32f403a_407_gpio.c ****   *         - GPIO_PINS_10
 364:/home/y/github/EmbeddedSoftwareMCU/Libraries/AT32/drivers/src/at32f403a_407_gpio.c ****   *         - GPIO_PINS_11
 365:/home/y/github/EmbeddedSoftwareMCU/Libraries/AT32/drivers/src/at32f403a_407_gpio.c ****   *         - GPIO_PINS_12
 366:/home/y/github/EmbeddedSoftwareMCU/Libraries/AT32/drivers/src/at32f403a_407_gpio.c ****   *         - GPIO_PINS_13
 367:/home/y/github/EmbeddedSoftwareMCU/Libraries/AT32/drivers/src/at32f403a_407_gpio.c ****   *         - GPIO_PINS_14
 368:/home/y/github/EmbeddedSoftwareMCU/Libraries/AT32/drivers/src/at32f403a_407_gpio.c ****   *         - GPIO_PINS_15
 369:/home/y/github/EmbeddedSoftwareMCU/Libraries/AT32/drivers/src/at32f403a_407_gpio.c ****   *         - GPIO_PINS_ALL
 370:/home/y/github/EmbeddedSoftwareMCU/Libraries/AT32/drivers/src/at32f403a_407_gpio.c ****   * @param  bit_state: specifies the value to be written to the selected bit (TRUE or FALSE).
ARM GAS  /tmp/cc4PFwpI.s 			page 17


 371:/home/y/github/EmbeddedSoftwareMCU/Libraries/AT32/drivers/src/at32f403a_407_gpio.c ****   * @retval none
 372:/home/y/github/EmbeddedSoftwareMCU/Libraries/AT32/drivers/src/at32f403a_407_gpio.c ****   */
 373:/home/y/github/EmbeddedSoftwareMCU/Libraries/AT32/drivers/src/at32f403a_407_gpio.c **** void gpio_bits_write(gpio_type *gpio_x, uint16_t pins, confirm_state bit_state)
 374:/home/y/github/EmbeddedSoftwareMCU/Libraries/AT32/drivers/src/at32f403a_407_gpio.c **** {
 547              		.loc 1 374 0
 548              		.cfi_startproc
 549              		@ args = 0, pretend = 0, frame = 0
 550              		@ frame_needed = 0, uses_anonymous_args = 0
 551              		@ link register save eliminated.
 552              	.LVL55:
 375:/home/y/github/EmbeddedSoftwareMCU/Libraries/AT32/drivers/src/at32f403a_407_gpio.c ****   if(bit_state != FALSE)
 553              		.loc 1 375 0
 554 0000 0AB9     		cbnz	r2, .L48
 376:/home/y/github/EmbeddedSoftwareMCU/Libraries/AT32/drivers/src/at32f403a_407_gpio.c ****   {
 377:/home/y/github/EmbeddedSoftwareMCU/Libraries/AT32/drivers/src/at32f403a_407_gpio.c ****     gpio_x->scr = pins;
 378:/home/y/github/EmbeddedSoftwareMCU/Libraries/AT32/drivers/src/at32f403a_407_gpio.c ****   }
 379:/home/y/github/EmbeddedSoftwareMCU/Libraries/AT32/drivers/src/at32f403a_407_gpio.c ****   else
 380:/home/y/github/EmbeddedSoftwareMCU/Libraries/AT32/drivers/src/at32f403a_407_gpio.c ****   {
 381:/home/y/github/EmbeddedSoftwareMCU/Libraries/AT32/drivers/src/at32f403a_407_gpio.c ****     gpio_x->clr = pins;
 555              		.loc 1 381 0
 556 0002 4161     		str	r1, [r0, #20]
 557 0004 7047     		bx	lr
 558              	.L48:
 377:/home/y/github/EmbeddedSoftwareMCU/Libraries/AT32/drivers/src/at32f403a_407_gpio.c ****   }
 559              		.loc 1 377 0
 560 0006 0161     		str	r1, [r0, #16]
 561 0008 7047     		bx	lr
 562              		.cfi_endproc
 563              	.LFE143:
 565              		.section	.text.gpio_port_wirte,"ax",%progbits
 566              		.align	1
 567              		.global	gpio_port_wirte
 568              		.syntax unified
 569              		.thumb
 570              		.thumb_func
 571              		.fpu softvfp
 573              	gpio_port_wirte:
 574              	.LFB144:
 382:/home/y/github/EmbeddedSoftwareMCU/Libraries/AT32/drivers/src/at32f403a_407_gpio.c ****   }
 383:/home/y/github/EmbeddedSoftwareMCU/Libraries/AT32/drivers/src/at32f403a_407_gpio.c **** }
 384:/home/y/github/EmbeddedSoftwareMCU/Libraries/AT32/drivers/src/at32f403a_407_gpio.c **** 
 385:/home/y/github/EmbeddedSoftwareMCU/Libraries/AT32/drivers/src/at32f403a_407_gpio.c **** /**
 386:/home/y/github/EmbeddedSoftwareMCU/Libraries/AT32/drivers/src/at32f403a_407_gpio.c ****   * @brief  write data to the specified gpio data port.
 387:/home/y/github/EmbeddedSoftwareMCU/Libraries/AT32/drivers/src/at32f403a_407_gpio.c ****   * @param  gpio_x: to select the gpio peripheral.
 388:/home/y/github/EmbeddedSoftwareMCU/Libraries/AT32/drivers/src/at32f403a_407_gpio.c ****   *         this parameter can be one of the following values:
 389:/home/y/github/EmbeddedSoftwareMCU/Libraries/AT32/drivers/src/at32f403a_407_gpio.c ****   *         GPIOA, GPIOB, GPIOC, GPIOD, GPIOE.
 390:/home/y/github/EmbeddedSoftwareMCU/Libraries/AT32/drivers/src/at32f403a_407_gpio.c ****   * @param  port_value: specifies the value to be written to the port output data register.
 391:/home/y/github/EmbeddedSoftwareMCU/Libraries/AT32/drivers/src/at32f403a_407_gpio.c ****   * @retval none
 392:/home/y/github/EmbeddedSoftwareMCU/Libraries/AT32/drivers/src/at32f403a_407_gpio.c ****   */
 393:/home/y/github/EmbeddedSoftwareMCU/Libraries/AT32/drivers/src/at32f403a_407_gpio.c **** void gpio_port_wirte(gpio_type *gpio_x, uint16_t port_value)
 394:/home/y/github/EmbeddedSoftwareMCU/Libraries/AT32/drivers/src/at32f403a_407_gpio.c **** {
 575              		.loc 1 394 0
 576              		.cfi_startproc
 577              		@ args = 0, pretend = 0, frame = 0
 578              		@ frame_needed = 0, uses_anonymous_args = 0
 579              		@ link register save eliminated.
 580              	.LVL56:
ARM GAS  /tmp/cc4PFwpI.s 			page 18


 395:/home/y/github/EmbeddedSoftwareMCU/Libraries/AT32/drivers/src/at32f403a_407_gpio.c ****   gpio_x->odt = port_value;
 581              		.loc 1 395 0
 582 0000 C160     		str	r1, [r0, #12]
 583 0002 7047     		bx	lr
 584              		.cfi_endproc
 585              	.LFE144:
 587              		.section	.text.gpio_pin_wp_config,"ax",%progbits
 588              		.align	1
 589              		.global	gpio_pin_wp_config
 590              		.syntax unified
 591              		.thumb
 592              		.thumb_func
 593              		.fpu softvfp
 595              	gpio_pin_wp_config:
 596              	.LFB145:
 396:/home/y/github/EmbeddedSoftwareMCU/Libraries/AT32/drivers/src/at32f403a_407_gpio.c **** }
 397:/home/y/github/EmbeddedSoftwareMCU/Libraries/AT32/drivers/src/at32f403a_407_gpio.c **** 
 398:/home/y/github/EmbeddedSoftwareMCU/Libraries/AT32/drivers/src/at32f403a_407_gpio.c **** /**
 399:/home/y/github/EmbeddedSoftwareMCU/Libraries/AT32/drivers/src/at32f403a_407_gpio.c ****   * @brief  write protect gpio pins configuration registers.
 400:/home/y/github/EmbeddedSoftwareMCU/Libraries/AT32/drivers/src/at32f403a_407_gpio.c ****   * @param  gpio_x: to select the gpio peripheral.
 401:/home/y/github/EmbeddedSoftwareMCU/Libraries/AT32/drivers/src/at32f403a_407_gpio.c ****   *         this parameter can be one of the following values:
 402:/home/y/github/EmbeddedSoftwareMCU/Libraries/AT32/drivers/src/at32f403a_407_gpio.c ****   *         GPIOA, GPIOB, GPIOC, GPIOD, GPIOE.
 403:/home/y/github/EmbeddedSoftwareMCU/Libraries/AT32/drivers/src/at32f403a_407_gpio.c ****   * @param  pins: gpio pin number
 404:/home/y/github/EmbeddedSoftwareMCU/Libraries/AT32/drivers/src/at32f403a_407_gpio.c ****   *         this parameter can be any combination of the following:
 405:/home/y/github/EmbeddedSoftwareMCU/Libraries/AT32/drivers/src/at32f403a_407_gpio.c ****   *         - GPIO_PINS_0
 406:/home/y/github/EmbeddedSoftwareMCU/Libraries/AT32/drivers/src/at32f403a_407_gpio.c ****   *         - GPIO_PINS_1
 407:/home/y/github/EmbeddedSoftwareMCU/Libraries/AT32/drivers/src/at32f403a_407_gpio.c ****   *         - GPIO_PINS_2
 408:/home/y/github/EmbeddedSoftwareMCU/Libraries/AT32/drivers/src/at32f403a_407_gpio.c ****   *         - GPIO_PINS_3
 409:/home/y/github/EmbeddedSoftwareMCU/Libraries/AT32/drivers/src/at32f403a_407_gpio.c ****   *         - GPIO_PINS_4
 410:/home/y/github/EmbeddedSoftwareMCU/Libraries/AT32/drivers/src/at32f403a_407_gpio.c ****   *         - GPIO_PINS_5
 411:/home/y/github/EmbeddedSoftwareMCU/Libraries/AT32/drivers/src/at32f403a_407_gpio.c ****   *         - GPIO_PINS_6
 412:/home/y/github/EmbeddedSoftwareMCU/Libraries/AT32/drivers/src/at32f403a_407_gpio.c ****   *         - GPIO_PINS_7
 413:/home/y/github/EmbeddedSoftwareMCU/Libraries/AT32/drivers/src/at32f403a_407_gpio.c ****   *         - GPIO_PINS_8
 414:/home/y/github/EmbeddedSoftwareMCU/Libraries/AT32/drivers/src/at32f403a_407_gpio.c ****   *         - GPIO_PINS_9
 415:/home/y/github/EmbeddedSoftwareMCU/Libraries/AT32/drivers/src/at32f403a_407_gpio.c ****   *         - GPIO_PINS_10
 416:/home/y/github/EmbeddedSoftwareMCU/Libraries/AT32/drivers/src/at32f403a_407_gpio.c ****   *         - GPIO_PINS_11
 417:/home/y/github/EmbeddedSoftwareMCU/Libraries/AT32/drivers/src/at32f403a_407_gpio.c ****   *         - GPIO_PINS_12
 418:/home/y/github/EmbeddedSoftwareMCU/Libraries/AT32/drivers/src/at32f403a_407_gpio.c ****   *         - GPIO_PINS_13
 419:/home/y/github/EmbeddedSoftwareMCU/Libraries/AT32/drivers/src/at32f403a_407_gpio.c ****   *         - GPIO_PINS_14
 420:/home/y/github/EmbeddedSoftwareMCU/Libraries/AT32/drivers/src/at32f403a_407_gpio.c ****   *         - GPIO_PINS_15
 421:/home/y/github/EmbeddedSoftwareMCU/Libraries/AT32/drivers/src/at32f403a_407_gpio.c ****   *         - GPIO_PINS_ALL
 422:/home/y/github/EmbeddedSoftwareMCU/Libraries/AT32/drivers/src/at32f403a_407_gpio.c ****   * @retval none
 423:/home/y/github/EmbeddedSoftwareMCU/Libraries/AT32/drivers/src/at32f403a_407_gpio.c ****   */
 424:/home/y/github/EmbeddedSoftwareMCU/Libraries/AT32/drivers/src/at32f403a_407_gpio.c **** void gpio_pin_wp_config(gpio_type *gpio_x, uint16_t pins)
 425:/home/y/github/EmbeddedSoftwareMCU/Libraries/AT32/drivers/src/at32f403a_407_gpio.c **** {
 597              		.loc 1 425 0
 598              		.cfi_startproc
 599              		@ args = 0, pretend = 0, frame = 0
 600              		@ frame_needed = 0, uses_anonymous_args = 0
 601              		@ link register save eliminated.
 602              	.LVL57:
 426:/home/y/github/EmbeddedSoftwareMCU/Libraries/AT32/drivers/src/at32f403a_407_gpio.c ****   uint32_t temp = 0x00010000;
 427:/home/y/github/EmbeddedSoftwareMCU/Libraries/AT32/drivers/src/at32f403a_407_gpio.c **** 
 428:/home/y/github/EmbeddedSoftwareMCU/Libraries/AT32/drivers/src/at32f403a_407_gpio.c ****   temp |= pins;
 603              		.loc 1 428 0
 604 0000 41F48033 		orr	r3, r1, #65536
 605              	.LVL58:
ARM GAS  /tmp/cc4PFwpI.s 			page 19


 429:/home/y/github/EmbeddedSoftwareMCU/Libraries/AT32/drivers/src/at32f403a_407_gpio.c ****   /* set wpen bit */
 430:/home/y/github/EmbeddedSoftwareMCU/Libraries/AT32/drivers/src/at32f403a_407_gpio.c ****   gpio_x->wpr = temp;
 606              		.loc 1 430 0
 607 0004 8361     		str	r3, [r0, #24]
 431:/home/y/github/EmbeddedSoftwareMCU/Libraries/AT32/drivers/src/at32f403a_407_gpio.c ****   /* reset wpen bit */
 432:/home/y/github/EmbeddedSoftwareMCU/Libraries/AT32/drivers/src/at32f403a_407_gpio.c ****   gpio_x->wpr =  pins;
 608              		.loc 1 432 0
 609 0006 8161     		str	r1, [r0, #24]
 433:/home/y/github/EmbeddedSoftwareMCU/Libraries/AT32/drivers/src/at32f403a_407_gpio.c ****   /* set wpen bit */
 434:/home/y/github/EmbeddedSoftwareMCU/Libraries/AT32/drivers/src/at32f403a_407_gpio.c ****   gpio_x->wpr = temp;
 610              		.loc 1 434 0
 611 0008 8361     		str	r3, [r0, #24]
 435:/home/y/github/EmbeddedSoftwareMCU/Libraries/AT32/drivers/src/at32f403a_407_gpio.c ****   /* read wpen bit*/
 436:/home/y/github/EmbeddedSoftwareMCU/Libraries/AT32/drivers/src/at32f403a_407_gpio.c ****   temp = gpio_x->wpr;
 612              		.loc 1 436 0
 613 000a 8369     		ldr	r3, [r0, #24]
 614              	.LVL59:
 437:/home/y/github/EmbeddedSoftwareMCU/Libraries/AT32/drivers/src/at32f403a_407_gpio.c ****   /* read wpen bit*/
 438:/home/y/github/EmbeddedSoftwareMCU/Libraries/AT32/drivers/src/at32f403a_407_gpio.c ****   temp = gpio_x->wpr;
 615              		.loc 1 438 0
 616 000c 8369     		ldr	r3, [r0, #24]
 617 000e 7047     		bx	lr
 618              		.cfi_endproc
 619              	.LFE145:
 621              		.section	.text.gpio_pins_huge_driven_config,"ax",%progbits
 622              		.align	1
 623              		.global	gpio_pins_huge_driven_config
 624              		.syntax unified
 625              		.thumb
 626              		.thumb_func
 627              		.fpu softvfp
 629              	gpio_pins_huge_driven_config:
 630              	.LFB146:
 439:/home/y/github/EmbeddedSoftwareMCU/Libraries/AT32/drivers/src/at32f403a_407_gpio.c **** }
 440:/home/y/github/EmbeddedSoftwareMCU/Libraries/AT32/drivers/src/at32f403a_407_gpio.c **** 
 441:/home/y/github/EmbeddedSoftwareMCU/Libraries/AT32/drivers/src/at32f403a_407_gpio.c **** /**
 442:/home/y/github/EmbeddedSoftwareMCU/Libraries/AT32/drivers/src/at32f403a_407_gpio.c ****   * @brief  enable or disable gpio pins huge driven.
 443:/home/y/github/EmbeddedSoftwareMCU/Libraries/AT32/drivers/src/at32f403a_407_gpio.c ****   * @param  gpio_x: to select the gpio peripheral.
 444:/home/y/github/EmbeddedSoftwareMCU/Libraries/AT32/drivers/src/at32f403a_407_gpio.c ****   *         this parameter can be one of the following values:
 445:/home/y/github/EmbeddedSoftwareMCU/Libraries/AT32/drivers/src/at32f403a_407_gpio.c ****   *         GPIOA, GPIOB, GPIOC, GPIOD, GPIOE.
 446:/home/y/github/EmbeddedSoftwareMCU/Libraries/AT32/drivers/src/at32f403a_407_gpio.c ****   * @param  pins: gpio pin number
 447:/home/y/github/EmbeddedSoftwareMCU/Libraries/AT32/drivers/src/at32f403a_407_gpio.c ****   *         parameter can be any combination of gpio_pin_x, gpio_pin_x as following values:
 448:/home/y/github/EmbeddedSoftwareMCU/Libraries/AT32/drivers/src/at32f403a_407_gpio.c ****   *         - GPIO_PINS_0
 449:/home/y/github/EmbeddedSoftwareMCU/Libraries/AT32/drivers/src/at32f403a_407_gpio.c ****   *         - GPIO_PINS_1
 450:/home/y/github/EmbeddedSoftwareMCU/Libraries/AT32/drivers/src/at32f403a_407_gpio.c ****   *         - GPIO_PINS_2
 451:/home/y/github/EmbeddedSoftwareMCU/Libraries/AT32/drivers/src/at32f403a_407_gpio.c ****   *         - GPIO_PINS_3
 452:/home/y/github/EmbeddedSoftwareMCU/Libraries/AT32/drivers/src/at32f403a_407_gpio.c ****   *         - GPIO_PINS_4
 453:/home/y/github/EmbeddedSoftwareMCU/Libraries/AT32/drivers/src/at32f403a_407_gpio.c ****   *         - GPIO_PINS_5
 454:/home/y/github/EmbeddedSoftwareMCU/Libraries/AT32/drivers/src/at32f403a_407_gpio.c ****   *         - GPIO_PINS_6
 455:/home/y/github/EmbeddedSoftwareMCU/Libraries/AT32/drivers/src/at32f403a_407_gpio.c ****   *         - GPIO_PINS_7
 456:/home/y/github/EmbeddedSoftwareMCU/Libraries/AT32/drivers/src/at32f403a_407_gpio.c ****   *         - GPIO_PINS_8
 457:/home/y/github/EmbeddedSoftwareMCU/Libraries/AT32/drivers/src/at32f403a_407_gpio.c ****   *         - GPIO_PINS_9
 458:/home/y/github/EmbeddedSoftwareMCU/Libraries/AT32/drivers/src/at32f403a_407_gpio.c ****   *         - GPIO_PINS_10
 459:/home/y/github/EmbeddedSoftwareMCU/Libraries/AT32/drivers/src/at32f403a_407_gpio.c ****   *         - GPIO_PINS_11
 460:/home/y/github/EmbeddedSoftwareMCU/Libraries/AT32/drivers/src/at32f403a_407_gpio.c ****   *         - GPIO_PINS_12
 461:/home/y/github/EmbeddedSoftwareMCU/Libraries/AT32/drivers/src/at32f403a_407_gpio.c ****   *         - GPIO_PINS_13
 462:/home/y/github/EmbeddedSoftwareMCU/Libraries/AT32/drivers/src/at32f403a_407_gpio.c ****   *         - GPIO_PINS_14
ARM GAS  /tmp/cc4PFwpI.s 			page 20


 463:/home/y/github/EmbeddedSoftwareMCU/Libraries/AT32/drivers/src/at32f403a_407_gpio.c ****   *         - GPIO_PINS_15
 464:/home/y/github/EmbeddedSoftwareMCU/Libraries/AT32/drivers/src/at32f403a_407_gpio.c ****   *         - GPIO_PINS_ALL
 465:/home/y/github/EmbeddedSoftwareMCU/Libraries/AT32/drivers/src/at32f403a_407_gpio.c ****   * @param  new_state: new state of the slew rate.
 466:/home/y/github/EmbeddedSoftwareMCU/Libraries/AT32/drivers/src/at32f403a_407_gpio.c ****   *         this parameter can be: true or false.
 467:/home/y/github/EmbeddedSoftwareMCU/Libraries/AT32/drivers/src/at32f403a_407_gpio.c ****   * @retval none
 468:/home/y/github/EmbeddedSoftwareMCU/Libraries/AT32/drivers/src/at32f403a_407_gpio.c ****   */
 469:/home/y/github/EmbeddedSoftwareMCU/Libraries/AT32/drivers/src/at32f403a_407_gpio.c **** void gpio_pins_huge_driven_config(gpio_type *gpio_x, uint16_t pins, confirm_state new_state)
 470:/home/y/github/EmbeddedSoftwareMCU/Libraries/AT32/drivers/src/at32f403a_407_gpio.c **** {
 631              		.loc 1 470 0
 632              		.cfi_startproc
 633              		@ args = 0, pretend = 0, frame = 0
 634              		@ frame_needed = 0, uses_anonymous_args = 0
 635              		@ link register save eliminated.
 636              	.LVL60:
 471:/home/y/github/EmbeddedSoftwareMCU/Libraries/AT32/drivers/src/at32f403a_407_gpio.c ****   if(new_state != FALSE)
 637              		.loc 1 471 0
 638 0000 22B9     		cbnz	r2, .L54
 472:/home/y/github/EmbeddedSoftwareMCU/Libraries/AT32/drivers/src/at32f403a_407_gpio.c ****   {
 473:/home/y/github/EmbeddedSoftwareMCU/Libraries/AT32/drivers/src/at32f403a_407_gpio.c ****     gpio_x->hdrv |= pins;
 474:/home/y/github/EmbeddedSoftwareMCU/Libraries/AT32/drivers/src/at32f403a_407_gpio.c ****   }
 475:/home/y/github/EmbeddedSoftwareMCU/Libraries/AT32/drivers/src/at32f403a_407_gpio.c ****   else
 476:/home/y/github/EmbeddedSoftwareMCU/Libraries/AT32/drivers/src/at32f403a_407_gpio.c ****   {
 477:/home/y/github/EmbeddedSoftwareMCU/Libraries/AT32/drivers/src/at32f403a_407_gpio.c ****     gpio_x->hdrv &= ~pins;
 639              		.loc 1 477 0
 640 0002 C36B     		ldr	r3, [r0, #60]
 641 0004 23EA0101 		bic	r1, r3, r1
 642              	.LVL61:
 643 0008 C163     		str	r1, [r0, #60]
 644 000a 7047     		bx	lr
 645              	.LVL62:
 646              	.L54:
 473:/home/y/github/EmbeddedSoftwareMCU/Libraries/AT32/drivers/src/at32f403a_407_gpio.c ****   }
 647              		.loc 1 473 0
 648 000c C36B     		ldr	r3, [r0, #60]
 649 000e 1943     		orrs	r1, r1, r3
 650              	.LVL63:
 651 0010 C163     		str	r1, [r0, #60]
 652 0012 7047     		bx	lr
 653              		.cfi_endproc
 654              	.LFE146:
 656              		.section	.text.gpio_event_output_config,"ax",%progbits
 657              		.align	1
 658              		.global	gpio_event_output_config
 659              		.syntax unified
 660              		.thumb
 661              		.thumb_func
 662              		.fpu softvfp
 664              	gpio_event_output_config:
 665              	.LFB147:
 478:/home/y/github/EmbeddedSoftwareMCU/Libraries/AT32/drivers/src/at32f403a_407_gpio.c ****   }
 479:/home/y/github/EmbeddedSoftwareMCU/Libraries/AT32/drivers/src/at32f403a_407_gpio.c **** }
 480:/home/y/github/EmbeddedSoftwareMCU/Libraries/AT32/drivers/src/at32f403a_407_gpio.c **** 
 481:/home/y/github/EmbeddedSoftwareMCU/Libraries/AT32/drivers/src/at32f403a_407_gpio.c **** /**
 482:/home/y/github/EmbeddedSoftwareMCU/Libraries/AT32/drivers/src/at32f403a_407_gpio.c ****   * @brief  select the gpio pin used as event output.
 483:/home/y/github/EmbeddedSoftwareMCU/Libraries/AT32/drivers/src/at32f403a_407_gpio.c ****   * @param  gpio_port_source: select the gpio port to be used as source
 484:/home/y/github/EmbeddedSoftwareMCU/Libraries/AT32/drivers/src/at32f403a_407_gpio.c ****   *         for event output.
 485:/home/y/github/EmbeddedSoftwareMCU/Libraries/AT32/drivers/src/at32f403a_407_gpio.c ****   *         this parameter can be one of the following values:
ARM GAS  /tmp/cc4PFwpI.s 			page 21


 486:/home/y/github/EmbeddedSoftwareMCU/Libraries/AT32/drivers/src/at32f403a_407_gpio.c ****   *         - GPIO_PORT_SOURCE_GPIOA
 487:/home/y/github/EmbeddedSoftwareMCU/Libraries/AT32/drivers/src/at32f403a_407_gpio.c ****   *         - GPIO_PORT_SOURCE_GPIOB
 488:/home/y/github/EmbeddedSoftwareMCU/Libraries/AT32/drivers/src/at32f403a_407_gpio.c ****   *         - GPIO_PORT_SOURCE_GPIOC
 489:/home/y/github/EmbeddedSoftwareMCU/Libraries/AT32/drivers/src/at32f403a_407_gpio.c ****   *         - GPIO_PORT_SOURCE_GPIOD
 490:/home/y/github/EmbeddedSoftwareMCU/Libraries/AT32/drivers/src/at32f403a_407_gpio.c ****   *         - GPIO_PORT_SOURCE_GPIOE
 491:/home/y/github/EmbeddedSoftwareMCU/Libraries/AT32/drivers/src/at32f403a_407_gpio.c ****   * @param  gpio_pin_source: specifies the pin for the event output.
 492:/home/y/github/EmbeddedSoftwareMCU/Libraries/AT32/drivers/src/at32f403a_407_gpio.c ****   *         this parameter can be one of the following values:
 493:/home/y/github/EmbeddedSoftwareMCU/Libraries/AT32/drivers/src/at32f403a_407_gpio.c ****   *         - GPIO_PINS_SOURCE0
 494:/home/y/github/EmbeddedSoftwareMCU/Libraries/AT32/drivers/src/at32f403a_407_gpio.c ****   *         - GPIO_PINS_SOURCE1
 495:/home/y/github/EmbeddedSoftwareMCU/Libraries/AT32/drivers/src/at32f403a_407_gpio.c ****   *         - GPIO_PINS_SOURCE2
 496:/home/y/github/EmbeddedSoftwareMCU/Libraries/AT32/drivers/src/at32f403a_407_gpio.c ****   *         - GPIO_PINS_SOURCE3
 497:/home/y/github/EmbeddedSoftwareMCU/Libraries/AT32/drivers/src/at32f403a_407_gpio.c ****   *         - GPIO_PINS_SOURCE4
 498:/home/y/github/EmbeddedSoftwareMCU/Libraries/AT32/drivers/src/at32f403a_407_gpio.c ****   *         - GPIO_PINS_SOURCE5
 499:/home/y/github/EmbeddedSoftwareMCU/Libraries/AT32/drivers/src/at32f403a_407_gpio.c ****   *         - GPIO_PINS_SOURCE6
 500:/home/y/github/EmbeddedSoftwareMCU/Libraries/AT32/drivers/src/at32f403a_407_gpio.c ****   *         - GPIO_PINS_SOURCE7
 501:/home/y/github/EmbeddedSoftwareMCU/Libraries/AT32/drivers/src/at32f403a_407_gpio.c ****   *         - GPIO_PINS_SOURCE8
 502:/home/y/github/EmbeddedSoftwareMCU/Libraries/AT32/drivers/src/at32f403a_407_gpio.c ****   *         - GPIO_PINS_SOURCE9
 503:/home/y/github/EmbeddedSoftwareMCU/Libraries/AT32/drivers/src/at32f403a_407_gpio.c ****   *         - GPIO_PINS_SOURCE10
 504:/home/y/github/EmbeddedSoftwareMCU/Libraries/AT32/drivers/src/at32f403a_407_gpio.c ****   *         - GPIO_PINS_SOURCE11
 505:/home/y/github/EmbeddedSoftwareMCU/Libraries/AT32/drivers/src/at32f403a_407_gpio.c ****   *         - GPIO_PINS_SOURCE12
 506:/home/y/github/EmbeddedSoftwareMCU/Libraries/AT32/drivers/src/at32f403a_407_gpio.c ****   *         - GPIO_PINS_SOURCE13
 507:/home/y/github/EmbeddedSoftwareMCU/Libraries/AT32/drivers/src/at32f403a_407_gpio.c ****   *         - GPIO_PINS_SOURCE14
 508:/home/y/github/EmbeddedSoftwareMCU/Libraries/AT32/drivers/src/at32f403a_407_gpio.c ****   *         - GPIO_PINS_SOURCE15
 509:/home/y/github/EmbeddedSoftwareMCU/Libraries/AT32/drivers/src/at32f403a_407_gpio.c ****   * @retval none
 510:/home/y/github/EmbeddedSoftwareMCU/Libraries/AT32/drivers/src/at32f403a_407_gpio.c ****   */
 511:/home/y/github/EmbeddedSoftwareMCU/Libraries/AT32/drivers/src/at32f403a_407_gpio.c **** void gpio_event_output_config(gpio_port_source_type gpio_port_source, gpio_pins_source_type gpio_pi
 512:/home/y/github/EmbeddedSoftwareMCU/Libraries/AT32/drivers/src/at32f403a_407_gpio.c **** {
 666              		.loc 1 512 0
 667              		.cfi_startproc
 668              		@ args = 0, pretend = 0, frame = 0
 669              		@ frame_needed = 0, uses_anonymous_args = 0
 670              		@ link register save eliminated.
 671              	.LVL64:
 513:/home/y/github/EmbeddedSoftwareMCU/Libraries/AT32/drivers/src/at32f403a_407_gpio.c ****   uint32_t tmpreg = 0x00;
 514:/home/y/github/EmbeddedSoftwareMCU/Libraries/AT32/drivers/src/at32f403a_407_gpio.c **** 
 515:/home/y/github/EmbeddedSoftwareMCU/Libraries/AT32/drivers/src/at32f403a_407_gpio.c ****   tmpreg = IOMUX->evtout;
 672              		.loc 1 515 0
 673 0000 044A     		ldr	r2, .L56
 674 0002 1368     		ldr	r3, [r2]
 675              	.LVL65:
 516:/home/y/github/EmbeddedSoftwareMCU/Libraries/AT32/drivers/src/at32f403a_407_gpio.c **** 
 517:/home/y/github/EmbeddedSoftwareMCU/Libraries/AT32/drivers/src/at32f403a_407_gpio.c ****   /* clear the port[6:4] and pin[3:0] bits */
 518:/home/y/github/EmbeddedSoftwareMCU/Libraries/AT32/drivers/src/at32f403a_407_gpio.c ****   tmpreg &= 0x80;
 676              		.loc 1 518 0
 677 0004 03F08003 		and	r3, r3, #128
 678              	.LVL66:
 519:/home/y/github/EmbeddedSoftwareMCU/Libraries/AT32/drivers/src/at32f403a_407_gpio.c ****   tmpreg |= (uint32_t)gpio_port_source << 0x04;
 679              		.loc 1 519 0
 680 0008 43EA0010 		orr	r0, r3, r0, lsl #4
 681              	.LVL67:
 520:/home/y/github/EmbeddedSoftwareMCU/Libraries/AT32/drivers/src/at32f403a_407_gpio.c ****   tmpreg |= gpio_pin_source;
 682              		.loc 1 520 0
 683 000c 0843     		orrs	r0, r0, r1
 684              	.LVL68:
 521:/home/y/github/EmbeddedSoftwareMCU/Libraries/AT32/drivers/src/at32f403a_407_gpio.c ****   IOMUX->evtout = tmpreg;
 685              		.loc 1 521 0
 686 000e 1060     		str	r0, [r2]
ARM GAS  /tmp/cc4PFwpI.s 			page 22


 687 0010 7047     		bx	lr
 688              	.L57:
 689 0012 00BF     		.align	2
 690              	.L56:
 691 0014 00000140 		.word	1073807360
 692              		.cfi_endproc
 693              	.LFE147:
 695              		.section	.text.gpio_event_output_enable,"ax",%progbits
 696              		.align	1
 697              		.global	gpio_event_output_enable
 698              		.syntax unified
 699              		.thumb
 700              		.thumb_func
 701              		.fpu softvfp
 703              	gpio_event_output_enable:
 704              	.LFB148:
 522:/home/y/github/EmbeddedSoftwareMCU/Libraries/AT32/drivers/src/at32f403a_407_gpio.c **** }
 523:/home/y/github/EmbeddedSoftwareMCU/Libraries/AT32/drivers/src/at32f403a_407_gpio.c **** 
 524:/home/y/github/EmbeddedSoftwareMCU/Libraries/AT32/drivers/src/at32f403a_407_gpio.c **** /**
 525:/home/y/github/EmbeddedSoftwareMCU/Libraries/AT32/drivers/src/at32f403a_407_gpio.c ****   * @brief  enable or disable the event output.
 526:/home/y/github/EmbeddedSoftwareMCU/Libraries/AT32/drivers/src/at32f403a_407_gpio.c ****   * @param  confirm_state: new state of the event output.
 527:/home/y/github/EmbeddedSoftwareMCU/Libraries/AT32/drivers/src/at32f403a_407_gpio.c ****   *         this parameter can be: TRUE or FALSE.
 528:/home/y/github/EmbeddedSoftwareMCU/Libraries/AT32/drivers/src/at32f403a_407_gpio.c ****   * @retval none
 529:/home/y/github/EmbeddedSoftwareMCU/Libraries/AT32/drivers/src/at32f403a_407_gpio.c ****   */
 530:/home/y/github/EmbeddedSoftwareMCU/Libraries/AT32/drivers/src/at32f403a_407_gpio.c **** void gpio_event_output_enable(confirm_state new_state)
 531:/home/y/github/EmbeddedSoftwareMCU/Libraries/AT32/drivers/src/at32f403a_407_gpio.c **** {
 705              		.loc 1 531 0
 706              		.cfi_startproc
 707              		@ args = 0, pretend = 0, frame = 0
 708              		@ frame_needed = 0, uses_anonymous_args = 0
 709              		@ link register save eliminated.
 710              	.LVL69:
 532:/home/y/github/EmbeddedSoftwareMCU/Libraries/AT32/drivers/src/at32f403a_407_gpio.c ****   IOMUX->evtout_bit.evoen = new_state;
 711              		.loc 1 532 0
 712 0000 024B     		ldr	r3, .L59
 713 0002 1A68     		ldr	r2, [r3]
 714 0004 60F3C712 		bfi	r2, r0, #7, #1
 715 0008 1A60     		str	r2, [r3]
 716 000a 7047     		bx	lr
 717              	.L60:
 718              		.align	2
 719              	.L59:
 720 000c 00000140 		.word	1073807360
 721              		.cfi_endproc
 722              	.LFE148:
 724              		.section	.text.gpio_pin_remap_config,"ax",%progbits
 725              		.align	1
 726              		.global	gpio_pin_remap_config
 727              		.syntax unified
 728              		.thumb
 729              		.thumb_func
 730              		.fpu softvfp
 732              	gpio_pin_remap_config:
 733              	.LFB149:
 533:/home/y/github/EmbeddedSoftwareMCU/Libraries/AT32/drivers/src/at32f403a_407_gpio.c **** }
 534:/home/y/github/EmbeddedSoftwareMCU/Libraries/AT32/drivers/src/at32f403a_407_gpio.c **** 
 535:/home/y/github/EmbeddedSoftwareMCU/Libraries/AT32/drivers/src/at32f403a_407_gpio.c **** /**
ARM GAS  /tmp/cc4PFwpI.s 			page 23


 536:/home/y/github/EmbeddedSoftwareMCU/Libraries/AT32/drivers/src/at32f403a_407_gpio.c ****   * @brief  iomux remap and debug i/o configuration.
 537:/home/y/github/EmbeddedSoftwareMCU/Libraries/AT32/drivers/src/at32f403a_407_gpio.c ****   * @param  gpio_remap: select the pin to remap.
 538:/home/y/github/EmbeddedSoftwareMCU/Libraries/AT32/drivers/src/at32f403a_407_gpio.c ****   *         this parameter can be one of the following values:
 539:/home/y/github/EmbeddedSoftwareMCU/Libraries/AT32/drivers/src/at32f403a_407_gpio.c ****   *         - SPI1_MUX_01                   - SPI1_MUX_10                   - SPI1_MUX_11          
 540:/home/y/github/EmbeddedSoftwareMCU/Libraries/AT32/drivers/src/at32f403a_407_gpio.c ****   *         - USART1_MUX                    - USART2_MUX                    - USART3_MUX_01        
 541:/home/y/github/EmbeddedSoftwareMCU/Libraries/AT32/drivers/src/at32f403a_407_gpio.c ****   *         - TMR1_MUX_01                   - TMR1_MUX_11                   - TMR2_MUX_01          
 542:/home/y/github/EmbeddedSoftwareMCU/Libraries/AT32/drivers/src/at32f403a_407_gpio.c ****   *         - TMR2_MUX_11                   - TMR3_MUX_10                   - TMR3_MUX_11          
 543:/home/y/github/EmbeddedSoftwareMCU/Libraries/AT32/drivers/src/at32f403a_407_gpio.c ****   *         - CAN_MUX_10                    - CAN_MUX_11                    - PD01_MUX             
 544:/home/y/github/EmbeddedSoftwareMCU/Libraries/AT32/drivers/src/at32f403a_407_gpio.c ****   *         - ADC1_EXTRGPRE_MUX             - ADC1_EXTRGORD_MUX             - ADC2_EXTRGPRE_MUX    
 545:/home/y/github/EmbeddedSoftwareMCU/Libraries/AT32/drivers/src/at32f403a_407_gpio.c ****   *         - EMAC_MUX                      - CAN2_MUX                      - MII_RMII_SEL_MUX     
 546:/home/y/github/EmbeddedSoftwareMCU/Libraries/AT32/drivers/src/at32f403a_407_gpio.c ****   *         - SWJTAG_MUX_010                - SWJTAG_MUX_100                - SPI3_MUX             
 547:/home/y/github/EmbeddedSoftwareMCU/Libraries/AT32/drivers/src/at32f403a_407_gpio.c ****   *         - PTP_PPS_MUX                   - TMR9_MUX                      - XMC_NADV_MUX         
 548:/home/y/github/EmbeddedSoftwareMCU/Libraries/AT32/drivers/src/at32f403a_407_gpio.c ****   *         - I2C3_MUX                      - SDIO2_MUX01                   - SDIO2_MUX10          
 549:/home/y/github/EmbeddedSoftwareMCU/Libraries/AT32/drivers/src/at32f403a_407_gpio.c ****   *         - EXT_SPIM_EN_MUX               - TMR9_GMUX                     - TMR1_GMUX_0001       
 550:/home/y/github/EmbeddedSoftwareMCU/Libraries/AT32/drivers/src/at32f403a_407_gpio.c ****   *         - TMR2_GMUX_01                  - TMR2_GMUX_10                  - TMR2_GMUX_11         
 551:/home/y/github/EmbeddedSoftwareMCU/Libraries/AT32/drivers/src/at32f403a_407_gpio.c ****   *         - TMR2ITR1_GMUX_11              - TMR3_GMUX_0010                - TMR3_GMUX_0011       
 552:/home/y/github/EmbeddedSoftwareMCU/Libraries/AT32/drivers/src/at32f403a_407_gpio.c ****   *         - TMR5CH4_GMUX                  - UART5_GMUX_0001               - I2C1_GMUX_0001       
 553:/home/y/github/EmbeddedSoftwareMCU/Libraries/AT32/drivers/src/at32f403a_407_gpio.c ****   *         - SPI1_GMUX_0001                - SPI1_GMUX_0010                - SPI1_GMUX_0011       
 554:/home/y/github/EmbeddedSoftwareMCU/Libraries/AT32/drivers/src/at32f403a_407_gpio.c ****   *         - SPI2_GMUX_0010                - SPI3_GMUX_0001                - SPI3_GMUX_0010       
 555:/home/y/github/EmbeddedSoftwareMCU/Libraries/AT32/drivers/src/at32f403a_407_gpio.c ****   *         - SPI4_GMUX_0001                - SPI4_GMUX_0010                - SPI4_GMUX_0011       
 556:/home/y/github/EmbeddedSoftwareMCU/Libraries/AT32/drivers/src/at32f403a_407_gpio.c ****   *         - CAN1_GMUX_0011                - CAN2_GMUX_0001                - SDIO2_GMUX_0001      
 557:/home/y/github/EmbeddedSoftwareMCU/Libraries/AT32/drivers/src/at32f403a_407_gpio.c ****   *         - SDIO2_GMUX_0011               - USART1_GMUX_0001              - USART2_GMUX_0001     
 558:/home/y/github/EmbeddedSoftwareMCU/Libraries/AT32/drivers/src/at32f403a_407_gpio.c ****   *         - USART3_GMUX_0011              - UART4_GMUX_0010               - EXT_SPIM_GMUX_1000   
 559:/home/y/github/EmbeddedSoftwareMCU/Libraries/AT32/drivers/src/at32f403a_407_gpio.c ****   *         - ADC1_ETP_GMUX                 - ADC1_ETO_GMUX                 - ADC2_ETP_GMUX        
 560:/home/y/github/EmbeddedSoftwareMCU/Libraries/AT32/drivers/src/at32f403a_407_gpio.c ****   *         - SWJTAG_GMUX_001               - SWJTAG_GMUX_010               - SWJTAG_GMUX_100      
 561:/home/y/github/EmbeddedSoftwareMCU/Libraries/AT32/drivers/src/at32f403a_407_gpio.c ****   *         - XMC_GMUX_001                  - XMC_GMUX_010                  - XMC_NADV_GMUX        
 562:/home/y/github/EmbeddedSoftwareMCU/Libraries/AT32/drivers/src/at32f403a_407_gpio.c ****   *         - MII_RMII_SEL_GMUX             - PTP_PPS_GMUX                  - USART6_GMUX          
 563:/home/y/github/EmbeddedSoftwareMCU/Libraries/AT32/drivers/src/at32f403a_407_gpio.c ****   *         - UART8_GMUX
 564:/home/y/github/EmbeddedSoftwareMCU/Libraries/AT32/drivers/src/at32f403a_407_gpio.c ****   * @param  new_state: (TRUE or FALSE)
 565:/home/y/github/EmbeddedSoftwareMCU/Libraries/AT32/drivers/src/at32f403a_407_gpio.c ****   * @retval none
 566:/home/y/github/EmbeddedSoftwareMCU/Libraries/AT32/drivers/src/at32f403a_407_gpio.c ****   */
 567:/home/y/github/EmbeddedSoftwareMCU/Libraries/AT32/drivers/src/at32f403a_407_gpio.c **** void gpio_pin_remap_config(uint32_t gpio_remap, confirm_state new_state)
 568:/home/y/github/EmbeddedSoftwareMCU/Libraries/AT32/drivers/src/at32f403a_407_gpio.c **** {
 734              		.loc 1 568 0
 735              		.cfi_startproc
 736              		@ args = 0, pretend = 0, frame = 0
 737              		@ frame_needed = 0, uses_anonymous_args = 0
 738              		@ link register save eliminated.
 739              	.LVL70:
 740 0000 30B4     		push	{r4, r5}
 741              	.LCFI4:
 742              		.cfi_def_cfa_offset 8
 743              		.cfi_offset 4, -8
 744              		.cfi_offset 5, -4
 569:/home/y/github/EmbeddedSoftwareMCU/Libraries/AT32/drivers/src/at32f403a_407_gpio.c ****   uint32_t reg_addr, remap_mask;
 570:/home/y/github/EmbeddedSoftwareMCU/Libraries/AT32/drivers/src/at32f403a_407_gpio.c ****   uint8_t bit_offset, bit_num, bit_val;
 571:/home/y/github/EmbeddedSoftwareMCU/Libraries/AT32/drivers/src/at32f403a_407_gpio.c **** 
 572:/home/y/github/EmbeddedSoftwareMCU/Libraries/AT32/drivers/src/at32f403a_407_gpio.c ****   /* get register address, bit offset, bit number and remap value */
 573:/home/y/github/EmbeddedSoftwareMCU/Libraries/AT32/drivers/src/at32f403a_407_gpio.c ****   reg_addr = IOMUX_BASE + (gpio_remap >> 24);
 745              		.loc 1 573 0
 746 0002 020E     		lsrs	r2, r0, #24
 747 0004 02F18042 		add	r2, r2, #1073741824
 748 0008 02F58032 		add	r2, r2, #65536
 749              	.LVL71:
 574:/home/y/github/EmbeddedSoftwareMCU/Libraries/AT32/drivers/src/at32f403a_407_gpio.c ****   bit_offset = (gpio_remap >> 16) & 0xFF;
 575:/home/y/github/EmbeddedSoftwareMCU/Libraries/AT32/drivers/src/at32f403a_407_gpio.c ****   bit_num = (gpio_remap >> 8) & 0xFF;
 576:/home/y/github/EmbeddedSoftwareMCU/Libraries/AT32/drivers/src/at32f403a_407_gpio.c ****   bit_val = gpio_remap & 0xFF;
ARM GAS  /tmp/cc4PFwpI.s 			page 24


 577:/home/y/github/EmbeddedSoftwareMCU/Libraries/AT32/drivers/src/at32f403a_407_gpio.c **** 
 578:/home/y/github/EmbeddedSoftwareMCU/Libraries/AT32/drivers/src/at32f403a_407_gpio.c ****   /* get remap mask value */
 579:/home/y/github/EmbeddedSoftwareMCU/Libraries/AT32/drivers/src/at32f403a_407_gpio.c ****   remap_mask = 0xFFFFFFFF << (32 - bit_num - bit_offset);
 750              		.loc 1 579 0
 751 000c C0F30723 		ubfx	r3, r0, #8, #8
 752 0010 C3F12003 		rsb	r3, r3, #32
 753 0014 C0F30745 		ubfx	r5, r0, #16, #8
 754 0018 5C1B     		subs	r4, r3, r5
 755 001a 4FF0FF33 		mov	r3, #-1
 756 001e A340     		lsls	r3, r3, r4
 757              	.LVL72:
 580:/home/y/github/EmbeddedSoftwareMCU/Libraries/AT32/drivers/src/at32f403a_407_gpio.c ****   remap_mask = remap_mask >> (32 - bit_num - bit_offset);
 758              		.loc 1 580 0
 759 0020 E340     		lsrs	r3, r3, r4
 760              	.LVL73:
 581:/home/y/github/EmbeddedSoftwareMCU/Libraries/AT32/drivers/src/at32f403a_407_gpio.c ****   remap_mask = remap_mask >> bit_offset;
 761              		.loc 1 581 0
 762 0022 EB40     		lsrs	r3, r3, r5
 763              	.LVL74:
 582:/home/y/github/EmbeddedSoftwareMCU/Libraries/AT32/drivers/src/at32f403a_407_gpio.c ****   remap_mask = remap_mask << bit_offset;
 764              		.loc 1 582 0
 765 0024 AB40     		lsls	r3, r3, r5
 766              	.LVL75:
 583:/home/y/github/EmbeddedSoftwareMCU/Libraries/AT32/drivers/src/at32f403a_407_gpio.c **** 
 584:/home/y/github/EmbeddedSoftwareMCU/Libraries/AT32/drivers/src/at32f403a_407_gpio.c ****   /* clear remap value */
 585:/home/y/github/EmbeddedSoftwareMCU/Libraries/AT32/drivers/src/at32f403a_407_gpio.c ****   *(uint32_t*)reg_addr &= ~remap_mask;
 767              		.loc 1 585 0
 768 0026 1468     		ldr	r4, [r2]
 769 0028 24EA0303 		bic	r3, r4, r3
 770              	.LVL76:
 771 002c 1360     		str	r3, [r2]
 586:/home/y/github/EmbeddedSoftwareMCU/Libraries/AT32/drivers/src/at32f403a_407_gpio.c **** 
 587:/home/y/github/EmbeddedSoftwareMCU/Libraries/AT32/drivers/src/at32f403a_407_gpio.c ****   if(new_state != FALSE)
 772              		.loc 1 587 0
 773 002e 19B1     		cbz	r1, .L61
 588:/home/y/github/EmbeddedSoftwareMCU/Libraries/AT32/drivers/src/at32f403a_407_gpio.c ****   {
 589:/home/y/github/EmbeddedSoftwareMCU/Libraries/AT32/drivers/src/at32f403a_407_gpio.c ****     /* set remap value */
 590:/home/y/github/EmbeddedSoftwareMCU/Libraries/AT32/drivers/src/at32f403a_407_gpio.c ****     *(uint32_t*)reg_addr |= (uint32_t)(bit_val << bit_offset);
 774              		.loc 1 590 0
 775 0030 C0B2     		uxtb	r0, r0
 776              	.LVL77:
 777 0032 A840     		lsls	r0, r0, r5
 778              	.LVL78:
 779 0034 0343     		orrs	r3, r3, r0
 780 0036 1360     		str	r3, [r2]
 781              	.L61:
 591:/home/y/github/EmbeddedSoftwareMCU/Libraries/AT32/drivers/src/at32f403a_407_gpio.c ****   }
 592:/home/y/github/EmbeddedSoftwareMCU/Libraries/AT32/drivers/src/at32f403a_407_gpio.c **** }
 782              		.loc 1 592 0
 783 0038 30BC     		pop	{r4, r5}
 784              	.LCFI5:
 785              		.cfi_restore 5
 786              		.cfi_restore 4
 787              		.cfi_def_cfa_offset 0
 788              	.LVL79:
 789 003a 7047     		bx	lr
 790              		.cfi_endproc
ARM GAS  /tmp/cc4PFwpI.s 			page 25


 791              	.LFE149:
 793              		.section	.text.gpio_exint_line_config,"ax",%progbits
 794              		.align	1
 795              		.global	gpio_exint_line_config
 796              		.syntax unified
 797              		.thumb
 798              		.thumb_func
 799              		.fpu softvfp
 801              	gpio_exint_line_config:
 802              	.LFB150:
 593:/home/y/github/EmbeddedSoftwareMCU/Libraries/AT32/drivers/src/at32f403a_407_gpio.c **** 
 594:/home/y/github/EmbeddedSoftwareMCU/Libraries/AT32/drivers/src/at32f403a_407_gpio.c **** /**
 595:/home/y/github/EmbeddedSoftwareMCU/Libraries/AT32/drivers/src/at32f403a_407_gpio.c ****   * @brief  select the gpio pin used as exint line.
 596:/home/y/github/EmbeddedSoftwareMCU/Libraries/AT32/drivers/src/at32f403a_407_gpio.c ****   * @param  gpio_port_source: select the gpio port to be used as source for exint.
 597:/home/y/github/EmbeddedSoftwareMCU/Libraries/AT32/drivers/src/at32f403a_407_gpio.c ****   *         this parameter can be one of the following values:
 598:/home/y/github/EmbeddedSoftwareMCU/Libraries/AT32/drivers/src/at32f403a_407_gpio.c ****   *         - GPIO_PORT_SOURCE_GPIOA
 599:/home/y/github/EmbeddedSoftwareMCU/Libraries/AT32/drivers/src/at32f403a_407_gpio.c ****   *         - GPIO_PORT_SOURCE_GPIOB
 600:/home/y/github/EmbeddedSoftwareMCU/Libraries/AT32/drivers/src/at32f403a_407_gpio.c ****   *         - GPIO_PORT_SOURCE_GPIOC
 601:/home/y/github/EmbeddedSoftwareMCU/Libraries/AT32/drivers/src/at32f403a_407_gpio.c ****   *         - GPIO_PORT_SOURCE_GPIOD
 602:/home/y/github/EmbeddedSoftwareMCU/Libraries/AT32/drivers/src/at32f403a_407_gpio.c ****   *         - GPIO_PORT_SOURCE_GPIOE
 603:/home/y/github/EmbeddedSoftwareMCU/Libraries/AT32/drivers/src/at32f403a_407_gpio.c ****   *         - GPIO_PORT_SOURCE_GPIOF
 604:/home/y/github/EmbeddedSoftwareMCU/Libraries/AT32/drivers/src/at32f403a_407_gpio.c ****   *         - GPIO_PORT_SOURCE_GPIOG
 605:/home/y/github/EmbeddedSoftwareMCU/Libraries/AT32/drivers/src/at32f403a_407_gpio.c ****   * @param  gpio_pin_source: specifies the pin for the event output.
 606:/home/y/github/EmbeddedSoftwareMCU/Libraries/AT32/drivers/src/at32f403a_407_gpio.c ****   *         this parameter can be one of the following values:
 607:/home/y/github/EmbeddedSoftwareMCU/Libraries/AT32/drivers/src/at32f403a_407_gpio.c ****   *         - GPIO_PINS_SOURCE0
 608:/home/y/github/EmbeddedSoftwareMCU/Libraries/AT32/drivers/src/at32f403a_407_gpio.c ****   *         - GPIO_PINS_SOURCE1
 609:/home/y/github/EmbeddedSoftwareMCU/Libraries/AT32/drivers/src/at32f403a_407_gpio.c ****   *         - GPIO_PINS_SOURCE2
 610:/home/y/github/EmbeddedSoftwareMCU/Libraries/AT32/drivers/src/at32f403a_407_gpio.c ****   *         - GPIO_PINS_SOURCE3
 611:/home/y/github/EmbeddedSoftwareMCU/Libraries/AT32/drivers/src/at32f403a_407_gpio.c ****   *         - GPIO_PINS_SOURCE4
 612:/home/y/github/EmbeddedSoftwareMCU/Libraries/AT32/drivers/src/at32f403a_407_gpio.c ****   *         - GPIO_PINS_SOURCE5
 613:/home/y/github/EmbeddedSoftwareMCU/Libraries/AT32/drivers/src/at32f403a_407_gpio.c ****   *         - GPIO_PINS_SOURCE6
 614:/home/y/github/EmbeddedSoftwareMCU/Libraries/AT32/drivers/src/at32f403a_407_gpio.c ****   *         - GPIO_PINS_SOURCE7
 615:/home/y/github/EmbeddedSoftwareMCU/Libraries/AT32/drivers/src/at32f403a_407_gpio.c ****   *         - GPIO_PINS_SOURCE8
 616:/home/y/github/EmbeddedSoftwareMCU/Libraries/AT32/drivers/src/at32f403a_407_gpio.c ****   *         - GPIO_PINS_SOURCE9
 617:/home/y/github/EmbeddedSoftwareMCU/Libraries/AT32/drivers/src/at32f403a_407_gpio.c ****   *         - GPIO_PINS_SOURCE10
 618:/home/y/github/EmbeddedSoftwareMCU/Libraries/AT32/drivers/src/at32f403a_407_gpio.c ****   *         - GPIO_PINS_SOURCE11
 619:/home/y/github/EmbeddedSoftwareMCU/Libraries/AT32/drivers/src/at32f403a_407_gpio.c ****   *         - GPIO_PINS_SOURCE12
 620:/home/y/github/EmbeddedSoftwareMCU/Libraries/AT32/drivers/src/at32f403a_407_gpio.c ****   *         - GPIO_PINS_SOURCE13
 621:/home/y/github/EmbeddedSoftwareMCU/Libraries/AT32/drivers/src/at32f403a_407_gpio.c ****   *         - GPIO_PINS_SOURCE14
 622:/home/y/github/EmbeddedSoftwareMCU/Libraries/AT32/drivers/src/at32f403a_407_gpio.c ****   *         - GPIO_PINS_SOURCE15
 623:/home/y/github/EmbeddedSoftwareMCU/Libraries/AT32/drivers/src/at32f403a_407_gpio.c ****   * @retval none
 624:/home/y/github/EmbeddedSoftwareMCU/Libraries/AT32/drivers/src/at32f403a_407_gpio.c ****   */
 625:/home/y/github/EmbeddedSoftwareMCU/Libraries/AT32/drivers/src/at32f403a_407_gpio.c **** void gpio_exint_line_config(gpio_port_source_type gpio_port_source, gpio_pins_source_type gpio_pin_
 626:/home/y/github/EmbeddedSoftwareMCU/Libraries/AT32/drivers/src/at32f403a_407_gpio.c **** {
 803              		.loc 1 626 0
 804              		.cfi_startproc
 805              		@ args = 0, pretend = 0, frame = 0
 806              		@ frame_needed = 0, uses_anonymous_args = 0
 807              		@ link register save eliminated.
 808              	.LVL80:
 809 0000 10B4     		push	{r4}
 810              	.LCFI6:
 811              		.cfi_def_cfa_offset 4
 812              		.cfi_offset 4, -4
 813              	.LVL81:
 627:/home/y/github/EmbeddedSoftwareMCU/Libraries/AT32/drivers/src/at32f403a_407_gpio.c ****   uint32_t tmp = 0x00;
 628:/home/y/github/EmbeddedSoftwareMCU/Libraries/AT32/drivers/src/at32f403a_407_gpio.c ****   tmp = ((uint32_t)0x0F) << (0x04 * (gpio_pin_source & (uint8_t)0x03));
ARM GAS  /tmp/cc4PFwpI.s 			page 26


 814              		.loc 1 628 0
 815 0002 01F00303 		and	r3, r1, #3
 816 0006 9B00     		lsls	r3, r3, #2
 817 0008 0F22     		movs	r2, #15
 818 000a 9A40     		lsls	r2, r2, r3
 819              	.LVL82:
 629:/home/y/github/EmbeddedSoftwareMCU/Libraries/AT32/drivers/src/at32f403a_407_gpio.c **** 
 630:/home/y/github/EmbeddedSoftwareMCU/Libraries/AT32/drivers/src/at32f403a_407_gpio.c ****   switch (gpio_pin_source >> 0x02)
 820              		.loc 1 630 0
 821 000c 8908     		lsrs	r1, r1, #2
 822              	.LVL83:
 823 000e 0329     		cmp	r1, #3
 824 0010 0DD8     		bhi	.L64
 825 0012 DFE801F0 		tbb	[pc, r1]
 826              	.L67:
 827 0016 02       		.byte	(.L66-.L67)/2
 828 0017 0E       		.byte	(.L68-.L67)/2
 829 0018 19       		.byte	(.L69-.L67)/2
 830 0019 24       		.byte	(.L70-.L67)/2
 831              		.p2align 1
 832              	.L66:
 631:/home/y/github/EmbeddedSoftwareMCU/Libraries/AT32/drivers/src/at32f403a_407_gpio.c ****   {
 632:/home/y/github/EmbeddedSoftwareMCU/Libraries/AT32/drivers/src/at32f403a_407_gpio.c ****     case 0:
 633:/home/y/github/EmbeddedSoftwareMCU/Libraries/AT32/drivers/src/at32f403a_407_gpio.c ****       IOMUX->exintc1 &= ~tmp;
 833              		.loc 1 633 0
 834 001a 1649     		ldr	r1, .L72
 835 001c 8C68     		ldr	r4, [r1, #8]
 836 001e 24EA0202 		bic	r2, r4, r2
 837              	.LVL84:
 838 0022 8A60     		str	r2, [r1, #8]
 634:/home/y/github/EmbeddedSoftwareMCU/Libraries/AT32/drivers/src/at32f403a_407_gpio.c ****       IOMUX->exintc1 |= (((uint32_t)gpio_port_source) << (0x04 * (gpio_pin_source & (uint8_t)0x03))
 839              		.loc 1 634 0
 840 0024 8A68     		ldr	r2, [r1, #8]
 841 0026 00FA03F3 		lsl	r3, r0, r3
 842              	.LVL85:
 843 002a 1343     		orrs	r3, r3, r2
 844 002c 8B60     		str	r3, [r1, #8]
 845              	.L64:
 635:/home/y/github/EmbeddedSoftwareMCU/Libraries/AT32/drivers/src/at32f403a_407_gpio.c ****       break;
 636:/home/y/github/EmbeddedSoftwareMCU/Libraries/AT32/drivers/src/at32f403a_407_gpio.c ****     case 1:
 637:/home/y/github/EmbeddedSoftwareMCU/Libraries/AT32/drivers/src/at32f403a_407_gpio.c ****       IOMUX->exintc2 &= ~tmp;
 638:/home/y/github/EmbeddedSoftwareMCU/Libraries/AT32/drivers/src/at32f403a_407_gpio.c ****       IOMUX->exintc2 |= (((uint32_t)gpio_port_source) << (0x04 * (gpio_pin_source & (uint8_t)0x03))
 639:/home/y/github/EmbeddedSoftwareMCU/Libraries/AT32/drivers/src/at32f403a_407_gpio.c ****       break;
 640:/home/y/github/EmbeddedSoftwareMCU/Libraries/AT32/drivers/src/at32f403a_407_gpio.c ****     case 2:
 641:/home/y/github/EmbeddedSoftwareMCU/Libraries/AT32/drivers/src/at32f403a_407_gpio.c ****       IOMUX->exintc3 &= ~tmp;
 642:/home/y/github/EmbeddedSoftwareMCU/Libraries/AT32/drivers/src/at32f403a_407_gpio.c ****       IOMUX->exintc3 |= (((uint32_t)gpio_port_source) << (0x04 * (gpio_pin_source & (uint8_t)0x03))
 643:/home/y/github/EmbeddedSoftwareMCU/Libraries/AT32/drivers/src/at32f403a_407_gpio.c ****       break;
 644:/home/y/github/EmbeddedSoftwareMCU/Libraries/AT32/drivers/src/at32f403a_407_gpio.c ****     case 3:
 645:/home/y/github/EmbeddedSoftwareMCU/Libraries/AT32/drivers/src/at32f403a_407_gpio.c ****       IOMUX->exintc4 &= ~tmp;
 646:/home/y/github/EmbeddedSoftwareMCU/Libraries/AT32/drivers/src/at32f403a_407_gpio.c ****       IOMUX->exintc4 |= (((uint32_t)gpio_port_source) << (0x04 * (gpio_pin_source & (uint8_t)0x03))
 647:/home/y/github/EmbeddedSoftwareMCU/Libraries/AT32/drivers/src/at32f403a_407_gpio.c ****       break;
 648:/home/y/github/EmbeddedSoftwareMCU/Libraries/AT32/drivers/src/at32f403a_407_gpio.c ****     default:
 649:/home/y/github/EmbeddedSoftwareMCU/Libraries/AT32/drivers/src/at32f403a_407_gpio.c ****       break;
 650:/home/y/github/EmbeddedSoftwareMCU/Libraries/AT32/drivers/src/at32f403a_407_gpio.c ****   }
 651:/home/y/github/EmbeddedSoftwareMCU/Libraries/AT32/drivers/src/at32f403a_407_gpio.c **** }
 846              		.loc 1 651 0
 847 002e 10BC     		pop	{r4}
ARM GAS  /tmp/cc4PFwpI.s 			page 27


 848              	.LCFI7:
 849              		.cfi_remember_state
 850              		.cfi_restore 4
 851              		.cfi_def_cfa_offset 0
 852 0030 7047     		bx	lr
 853              	.LVL86:
 854              	.L68:
 855              	.LCFI8:
 856              		.cfi_restore_state
 637:/home/y/github/EmbeddedSoftwareMCU/Libraries/AT32/drivers/src/at32f403a_407_gpio.c ****       IOMUX->exintc2 |= (((uint32_t)gpio_port_source) << (0x04 * (gpio_pin_source & (uint8_t)0x03))
 857              		.loc 1 637 0
 858 0032 1049     		ldr	r1, .L72
 859 0034 CC68     		ldr	r4, [r1, #12]
 860 0036 24EA0202 		bic	r2, r4, r2
 861              	.LVL87:
 862 003a CA60     		str	r2, [r1, #12]
 638:/home/y/github/EmbeddedSoftwareMCU/Libraries/AT32/drivers/src/at32f403a_407_gpio.c ****       break;
 863              		.loc 1 638 0
 864 003c CA68     		ldr	r2, [r1, #12]
 865 003e 00FA03F3 		lsl	r3, r0, r3
 866              	.LVL88:
 867 0042 1343     		orrs	r3, r3, r2
 868 0044 CB60     		str	r3, [r1, #12]
 639:/home/y/github/EmbeddedSoftwareMCU/Libraries/AT32/drivers/src/at32f403a_407_gpio.c ****     case 2:
 869              		.loc 1 639 0
 870 0046 F2E7     		b	.L64
 871              	.LVL89:
 872              	.L69:
 641:/home/y/github/EmbeddedSoftwareMCU/Libraries/AT32/drivers/src/at32f403a_407_gpio.c ****       IOMUX->exintc3 |= (((uint32_t)gpio_port_source) << (0x04 * (gpio_pin_source & (uint8_t)0x03))
 873              		.loc 1 641 0
 874 0048 0A49     		ldr	r1, .L72
 875 004a 0C69     		ldr	r4, [r1, #16]
 876 004c 24EA0202 		bic	r2, r4, r2
 877              	.LVL90:
 878 0050 0A61     		str	r2, [r1, #16]
 642:/home/y/github/EmbeddedSoftwareMCU/Libraries/AT32/drivers/src/at32f403a_407_gpio.c ****       break;
 879              		.loc 1 642 0
 880 0052 0A69     		ldr	r2, [r1, #16]
 881 0054 00FA03F3 		lsl	r3, r0, r3
 882              	.LVL91:
 883 0058 1343     		orrs	r3, r3, r2
 884 005a 0B61     		str	r3, [r1, #16]
 643:/home/y/github/EmbeddedSoftwareMCU/Libraries/AT32/drivers/src/at32f403a_407_gpio.c ****     case 3:
 885              		.loc 1 643 0
 886 005c E7E7     		b	.L64
 887              	.LVL92:
 888              	.L70:
 645:/home/y/github/EmbeddedSoftwareMCU/Libraries/AT32/drivers/src/at32f403a_407_gpio.c ****       IOMUX->exintc4 |= (((uint32_t)gpio_port_source) << (0x04 * (gpio_pin_source & (uint8_t)0x03))
 889              		.loc 1 645 0
 890 005e 0549     		ldr	r1, .L72
 891 0060 4C69     		ldr	r4, [r1, #20]
 892 0062 24EA0202 		bic	r2, r4, r2
 893              	.LVL93:
 894 0066 4A61     		str	r2, [r1, #20]
 646:/home/y/github/EmbeddedSoftwareMCU/Libraries/AT32/drivers/src/at32f403a_407_gpio.c ****       break;
 895              		.loc 1 646 0
 896 0068 4A69     		ldr	r2, [r1, #20]
ARM GAS  /tmp/cc4PFwpI.s 			page 28


 897 006a 00FA03F3 		lsl	r3, r0, r3
 898              	.LVL94:
 899 006e 1343     		orrs	r3, r3, r2
 900 0070 4B61     		str	r3, [r1, #20]
 901              		.loc 1 651 0
 902 0072 DCE7     		b	.L64
 903              	.L73:
 904              		.align	2
 905              	.L72:
 906 0074 00000140 		.word	1073807360
 907              		.cfi_endproc
 908              	.LFE150:
 910              		.text
 911              	.Letext0:
 912              		.file 2 "/home/y/github/EmbeddedSoftwareMCU/Tools/gcc-arm-none-eabi-unix/arm-none-eabi/include/mac
 913              		.file 3 "/home/y/github/EmbeddedSoftwareMCU/Tools/gcc-arm-none-eabi-unix/arm-none-eabi/include/sys
 914              		.file 4 "/home/y/github/EmbeddedSoftwareMCU/Libraries/AT32/cmsis/cm4/core_support/core_cm4.h"
 915              		.file 5 "/home/y/github/EmbeddedSoftwareMCU/Libraries/AT32/cmsis/cm4/device_support/system_at32f40
 916              		.file 6 "/home/y/github/EmbeddedSoftwareMCU/Libraries/AT32/cmsis/cm4/device_support/at32f403a_407.
 917              		.file 7 "/home/y/github/EmbeddedSoftwareMCU/Libraries/AT32/drivers/inc/at32f403a_407_crm.h"
 918              		.file 8 "/home/y/github/EmbeddedSoftwareMCU/Libraries/AT32/drivers/inc/at32f403a_407_gpio.h"
 919              		.file 9 "/home/y/github/EmbeddedSoftwareMCU/Libraries/AT32/drivers/inc/at32f403a_407_usb.h"
ARM GAS  /tmp/cc4PFwpI.s 			page 29

