ARM GAS  /tmp/ccPqktXd.s 			page 1


   1              		.cpu cortex-m4
   2              		.eabi_attribute 20, 1
   3              		.eabi_attribute 21, 1
   4              		.eabi_attribute 23, 3
   5              		.eabi_attribute 24, 1
   6              		.eabi_attribute 25, 1
   7              		.eabi_attribute 26, 1
   8              		.eabi_attribute 30, 1
   9              		.eabi_attribute 34, 1
  10              		.eabi_attribute 18, 4
  11              		.file	"at32f403a_407_tmr.c"
  12              		.text
  13              	.Ltext0:
  14              		.cfi_sections	.debug_frame
  15              		.section	.text.tmr_reset,"ax",%progbits
  16              		.align	1
  17              		.global	tmr_reset
  18              		.syntax unified
  19              		.thumb
  20              		.thumb_func
  21              		.fpu softvfp
  23              	tmr_reset:
  24              	.LFB133:
  25              		.file 1 "/home/y/github/EmbeddedSoftwareMCU/Libraries/AT32/drivers/src/at32f403a_407_tmr.c"
   1:/home/y/github/EmbeddedSoftwareMCU/Libraries/AT32/drivers/src/at32f403a_407_tmr.c **** /**
   2:/home/y/github/EmbeddedSoftwareMCU/Libraries/AT32/drivers/src/at32f403a_407_tmr.c ****   **************************************************************************
   3:/home/y/github/EmbeddedSoftwareMCU/Libraries/AT32/drivers/src/at32f403a_407_tmr.c ****   * @file     at32f403a_407_tmr.c
   4:/home/y/github/EmbeddedSoftwareMCU/Libraries/AT32/drivers/src/at32f403a_407_tmr.c ****   * @version  v2.0.8
   5:/home/y/github/EmbeddedSoftwareMCU/Libraries/AT32/drivers/src/at32f403a_407_tmr.c ****   * @date     2022-04-02
   6:/home/y/github/EmbeddedSoftwareMCU/Libraries/AT32/drivers/src/at32f403a_407_tmr.c ****   * @brief    contains all the functions for the tmr firmware library
   7:/home/y/github/EmbeddedSoftwareMCU/Libraries/AT32/drivers/src/at32f403a_407_tmr.c ****   **************************************************************************
   8:/home/y/github/EmbeddedSoftwareMCU/Libraries/AT32/drivers/src/at32f403a_407_tmr.c ****   *                       Copyright notice & Disclaimer
   9:/home/y/github/EmbeddedSoftwareMCU/Libraries/AT32/drivers/src/at32f403a_407_tmr.c ****   *
  10:/home/y/github/EmbeddedSoftwareMCU/Libraries/AT32/drivers/src/at32f403a_407_tmr.c ****   * The software Board Support Package (BSP) that is made available to
  11:/home/y/github/EmbeddedSoftwareMCU/Libraries/AT32/drivers/src/at32f403a_407_tmr.c ****   * download from Artery official website is the copyrighted work of Artery.
  12:/home/y/github/EmbeddedSoftwareMCU/Libraries/AT32/drivers/src/at32f403a_407_tmr.c ****   * Artery authorizes customers to use, copy, and distribute the BSP
  13:/home/y/github/EmbeddedSoftwareMCU/Libraries/AT32/drivers/src/at32f403a_407_tmr.c ****   * software and its related documentation for the purpose of design and
  14:/home/y/github/EmbeddedSoftwareMCU/Libraries/AT32/drivers/src/at32f403a_407_tmr.c ****   * development in conjunction with Artery microcontrollers. Use of the
  15:/home/y/github/EmbeddedSoftwareMCU/Libraries/AT32/drivers/src/at32f403a_407_tmr.c ****   * software is governed by this copyright notice and the following disclaimer.
  16:/home/y/github/EmbeddedSoftwareMCU/Libraries/AT32/drivers/src/at32f403a_407_tmr.c ****   *
  17:/home/y/github/EmbeddedSoftwareMCU/Libraries/AT32/drivers/src/at32f403a_407_tmr.c ****   * THIS SOFTWARE IS PROVIDED ON "AS IS" BASIS WITHOUT WARRANTIES,
  18:/home/y/github/EmbeddedSoftwareMCU/Libraries/AT32/drivers/src/at32f403a_407_tmr.c ****   * GUARANTEES OR REPRESENTATIONS OF ANY KIND. ARTERY EXPRESSLY DISCLAIMS,
  19:/home/y/github/EmbeddedSoftwareMCU/Libraries/AT32/drivers/src/at32f403a_407_tmr.c ****   * TO THE FULLEST EXTENT PERMITTED BY LAW, ALL EXPRESS, IMPLIED OR
  20:/home/y/github/EmbeddedSoftwareMCU/Libraries/AT32/drivers/src/at32f403a_407_tmr.c ****   * STATUTORY OR OTHER WARRANTIES, GUARANTEES OR REPRESENTATIONS,
  21:/home/y/github/EmbeddedSoftwareMCU/Libraries/AT32/drivers/src/at32f403a_407_tmr.c ****   * INCLUDING BUT NOT LIMITED TO, THE IMPLIED WARRANTIES OF MERCHANTABILITY,
  22:/home/y/github/EmbeddedSoftwareMCU/Libraries/AT32/drivers/src/at32f403a_407_tmr.c ****   * FITNESS FOR A PARTICULAR PURPOSE, OR NON-INFRINGEMENT.
  23:/home/y/github/EmbeddedSoftwareMCU/Libraries/AT32/drivers/src/at32f403a_407_tmr.c ****   *
  24:/home/y/github/EmbeddedSoftwareMCU/Libraries/AT32/drivers/src/at32f403a_407_tmr.c ****   **************************************************************************
  25:/home/y/github/EmbeddedSoftwareMCU/Libraries/AT32/drivers/src/at32f403a_407_tmr.c ****   */
  26:/home/y/github/EmbeddedSoftwareMCU/Libraries/AT32/drivers/src/at32f403a_407_tmr.c **** 
  27:/home/y/github/EmbeddedSoftwareMCU/Libraries/AT32/drivers/src/at32f403a_407_tmr.c **** #include "at32f403a_407_conf.h"
  28:/home/y/github/EmbeddedSoftwareMCU/Libraries/AT32/drivers/src/at32f403a_407_tmr.c **** 
  29:/home/y/github/EmbeddedSoftwareMCU/Libraries/AT32/drivers/src/at32f403a_407_tmr.c **** /** @addtogroup AT32F403A_407_periph_driver
  30:/home/y/github/EmbeddedSoftwareMCU/Libraries/AT32/drivers/src/at32f403a_407_tmr.c ****   * @{
  31:/home/y/github/EmbeddedSoftwareMCU/Libraries/AT32/drivers/src/at32f403a_407_tmr.c ****   */
  32:/home/y/github/EmbeddedSoftwareMCU/Libraries/AT32/drivers/src/at32f403a_407_tmr.c **** 
  33:/home/y/github/EmbeddedSoftwareMCU/Libraries/AT32/drivers/src/at32f403a_407_tmr.c **** /** @defgroup TMR
ARM GAS  /tmp/ccPqktXd.s 			page 2


  34:/home/y/github/EmbeddedSoftwareMCU/Libraries/AT32/drivers/src/at32f403a_407_tmr.c ****   * @brief TMR driver modules
  35:/home/y/github/EmbeddedSoftwareMCU/Libraries/AT32/drivers/src/at32f403a_407_tmr.c ****   * @{
  36:/home/y/github/EmbeddedSoftwareMCU/Libraries/AT32/drivers/src/at32f403a_407_tmr.c ****   */
  37:/home/y/github/EmbeddedSoftwareMCU/Libraries/AT32/drivers/src/at32f403a_407_tmr.c **** 
  38:/home/y/github/EmbeddedSoftwareMCU/Libraries/AT32/drivers/src/at32f403a_407_tmr.c **** #ifdef TMR_MODULE_ENABLED
  39:/home/y/github/EmbeddedSoftwareMCU/Libraries/AT32/drivers/src/at32f403a_407_tmr.c **** 
  40:/home/y/github/EmbeddedSoftwareMCU/Libraries/AT32/drivers/src/at32f403a_407_tmr.c **** /** @defgroup TMR_private_functions
  41:/home/y/github/EmbeddedSoftwareMCU/Libraries/AT32/drivers/src/at32f403a_407_tmr.c ****   * @{
  42:/home/y/github/EmbeddedSoftwareMCU/Libraries/AT32/drivers/src/at32f403a_407_tmr.c ****   */
  43:/home/y/github/EmbeddedSoftwareMCU/Libraries/AT32/drivers/src/at32f403a_407_tmr.c **** 
  44:/home/y/github/EmbeddedSoftwareMCU/Libraries/AT32/drivers/src/at32f403a_407_tmr.c **** /**
  45:/home/y/github/EmbeddedSoftwareMCU/Libraries/AT32/drivers/src/at32f403a_407_tmr.c ****   * @brief  tmr reset by crm reset register
  46:/home/y/github/EmbeddedSoftwareMCU/Libraries/AT32/drivers/src/at32f403a_407_tmr.c ****   * @param  tmr_x: select the tmr peripheral.
  47:/home/y/github/EmbeddedSoftwareMCU/Libraries/AT32/drivers/src/at32f403a_407_tmr.c ****   *         this parameter can be one of the following values:
  48:/home/y/github/EmbeddedSoftwareMCU/Libraries/AT32/drivers/src/at32f403a_407_tmr.c ****   *         TMR1, TMR2, TMR3, TMR4, TMR5, TMR6, TMR7, TMR8,
  49:/home/y/github/EmbeddedSoftwareMCU/Libraries/AT32/drivers/src/at32f403a_407_tmr.c ****   *         TMR9, TMR10, TMR11, TMR12, TMR13, TMR14
  50:/home/y/github/EmbeddedSoftwareMCU/Libraries/AT32/drivers/src/at32f403a_407_tmr.c ****   * @retval none
  51:/home/y/github/EmbeddedSoftwareMCU/Libraries/AT32/drivers/src/at32f403a_407_tmr.c ****   */
  52:/home/y/github/EmbeddedSoftwareMCU/Libraries/AT32/drivers/src/at32f403a_407_tmr.c **** void tmr_reset(tmr_type *tmr_x)
  53:/home/y/github/EmbeddedSoftwareMCU/Libraries/AT32/drivers/src/at32f403a_407_tmr.c **** {
  26              		.loc 1 53 0
  27              		.cfi_startproc
  28              		@ args = 0, pretend = 0, frame = 0
  29              		@ frame_needed = 0, uses_anonymous_args = 0
  30              	.LVL0:
  31 0000 10B5     		push	{r4, lr}
  32              	.LCFI0:
  33              		.cfi_def_cfa_offset 8
  34              		.cfi_offset 4, -8
  35              		.cfi_offset 14, -4
  54:/home/y/github/EmbeddedSoftwareMCU/Libraries/AT32/drivers/src/at32f403a_407_tmr.c ****   if(tmr_x == TMR1)
  36              		.loc 1 54 0
  37 0002 5C4B     		ldr	r3, .L31
  38 0004 9842     		cmp	r0, r3
  39 0006 28D0     		beq	.L17
  55:/home/y/github/EmbeddedSoftwareMCU/Libraries/AT32/drivers/src/at32f403a_407_tmr.c ****   {
  56:/home/y/github/EmbeddedSoftwareMCU/Libraries/AT32/drivers/src/at32f403a_407_tmr.c ****     crm_periph_reset(CRM_TMR1_PERIPH_RESET, TRUE);
  57:/home/y/github/EmbeddedSoftwareMCU/Libraries/AT32/drivers/src/at32f403a_407_tmr.c ****     crm_periph_reset(CRM_TMR1_PERIPH_RESET, FALSE);
  58:/home/y/github/EmbeddedSoftwareMCU/Libraries/AT32/drivers/src/at32f403a_407_tmr.c ****   }
  59:/home/y/github/EmbeddedSoftwareMCU/Libraries/AT32/drivers/src/at32f403a_407_tmr.c ****   else if(tmr_x == TMR2)
  40              		.loc 1 59 0
  41 0008 B0F1804F 		cmp	r0, #1073741824
  42 000c 2FD0     		beq	.L18
  60:/home/y/github/EmbeddedSoftwareMCU/Libraries/AT32/drivers/src/at32f403a_407_tmr.c ****   {
  61:/home/y/github/EmbeddedSoftwareMCU/Libraries/AT32/drivers/src/at32f403a_407_tmr.c ****     crm_periph_reset(CRM_TMR2_PERIPH_RESET, TRUE);
  62:/home/y/github/EmbeddedSoftwareMCU/Libraries/AT32/drivers/src/at32f403a_407_tmr.c ****     crm_periph_reset(CRM_TMR2_PERIPH_RESET, FALSE);
  63:/home/y/github/EmbeddedSoftwareMCU/Libraries/AT32/drivers/src/at32f403a_407_tmr.c ****   }
  64:/home/y/github/EmbeddedSoftwareMCU/Libraries/AT32/drivers/src/at32f403a_407_tmr.c ****   else if(tmr_x == TMR3)
  43              		.loc 1 64 0
  44 000e 5A4B     		ldr	r3, .L31+4
  45 0010 9842     		cmp	r0, r3
  46 0012 37D0     		beq	.L19
  65:/home/y/github/EmbeddedSoftwareMCU/Libraries/AT32/drivers/src/at32f403a_407_tmr.c ****   {
  66:/home/y/github/EmbeddedSoftwareMCU/Libraries/AT32/drivers/src/at32f403a_407_tmr.c ****     crm_periph_reset(CRM_TMR3_PERIPH_RESET, TRUE);
  67:/home/y/github/EmbeddedSoftwareMCU/Libraries/AT32/drivers/src/at32f403a_407_tmr.c ****     crm_periph_reset(CRM_TMR3_PERIPH_RESET, FALSE);
  68:/home/y/github/EmbeddedSoftwareMCU/Libraries/AT32/drivers/src/at32f403a_407_tmr.c ****   }
  69:/home/y/github/EmbeddedSoftwareMCU/Libraries/AT32/drivers/src/at32f403a_407_tmr.c ****   else if(tmr_x == TMR4)
ARM GAS  /tmp/ccPqktXd.s 			page 3


  47              		.loc 1 69 0
  48 0014 594B     		ldr	r3, .L31+8
  49 0016 9842     		cmp	r0, r3
  50 0018 3ED0     		beq	.L20
  70:/home/y/github/EmbeddedSoftwareMCU/Libraries/AT32/drivers/src/at32f403a_407_tmr.c ****   {
  71:/home/y/github/EmbeddedSoftwareMCU/Libraries/AT32/drivers/src/at32f403a_407_tmr.c ****     crm_periph_reset(CRM_TMR4_PERIPH_RESET, TRUE);
  72:/home/y/github/EmbeddedSoftwareMCU/Libraries/AT32/drivers/src/at32f403a_407_tmr.c ****     crm_periph_reset(CRM_TMR4_PERIPH_RESET, FALSE);
  73:/home/y/github/EmbeddedSoftwareMCU/Libraries/AT32/drivers/src/at32f403a_407_tmr.c ****   }
  74:/home/y/github/EmbeddedSoftwareMCU/Libraries/AT32/drivers/src/at32f403a_407_tmr.c ****   else if(tmr_x == TMR5)
  51              		.loc 1 74 0
  52 001a 594B     		ldr	r3, .L31+12
  53 001c 9842     		cmp	r0, r3
  54 001e 45D0     		beq	.L21
  75:/home/y/github/EmbeddedSoftwareMCU/Libraries/AT32/drivers/src/at32f403a_407_tmr.c ****   {
  76:/home/y/github/EmbeddedSoftwareMCU/Libraries/AT32/drivers/src/at32f403a_407_tmr.c ****     crm_periph_reset(CRM_TMR5_PERIPH_RESET, TRUE);
  77:/home/y/github/EmbeddedSoftwareMCU/Libraries/AT32/drivers/src/at32f403a_407_tmr.c ****     crm_periph_reset(CRM_TMR5_PERIPH_RESET, FALSE);
  78:/home/y/github/EmbeddedSoftwareMCU/Libraries/AT32/drivers/src/at32f403a_407_tmr.c ****   }
  79:/home/y/github/EmbeddedSoftwareMCU/Libraries/AT32/drivers/src/at32f403a_407_tmr.c ****   else if(tmr_x == TMR6)
  55              		.loc 1 79 0
  56 0020 584B     		ldr	r3, .L31+16
  57 0022 9842     		cmp	r0, r3
  58 0024 4CD0     		beq	.L22
  80:/home/y/github/EmbeddedSoftwareMCU/Libraries/AT32/drivers/src/at32f403a_407_tmr.c ****   {
  81:/home/y/github/EmbeddedSoftwareMCU/Libraries/AT32/drivers/src/at32f403a_407_tmr.c ****     crm_periph_reset(CRM_TMR6_PERIPH_RESET, TRUE);
  82:/home/y/github/EmbeddedSoftwareMCU/Libraries/AT32/drivers/src/at32f403a_407_tmr.c ****     crm_periph_reset(CRM_TMR6_PERIPH_RESET, FALSE);
  83:/home/y/github/EmbeddedSoftwareMCU/Libraries/AT32/drivers/src/at32f403a_407_tmr.c ****   }
  84:/home/y/github/EmbeddedSoftwareMCU/Libraries/AT32/drivers/src/at32f403a_407_tmr.c ****   else if(tmr_x == TMR7)
  59              		.loc 1 84 0
  60 0026 584B     		ldr	r3, .L31+20
  61 0028 9842     		cmp	r0, r3
  62 002a 53D0     		beq	.L23
  85:/home/y/github/EmbeddedSoftwareMCU/Libraries/AT32/drivers/src/at32f403a_407_tmr.c ****   {
  86:/home/y/github/EmbeddedSoftwareMCU/Libraries/AT32/drivers/src/at32f403a_407_tmr.c ****     crm_periph_reset(CRM_TMR7_PERIPH_RESET, TRUE);
  87:/home/y/github/EmbeddedSoftwareMCU/Libraries/AT32/drivers/src/at32f403a_407_tmr.c ****     crm_periph_reset(CRM_TMR7_PERIPH_RESET, FALSE);
  88:/home/y/github/EmbeddedSoftwareMCU/Libraries/AT32/drivers/src/at32f403a_407_tmr.c ****   }
  89:/home/y/github/EmbeddedSoftwareMCU/Libraries/AT32/drivers/src/at32f403a_407_tmr.c ****   else if(tmr_x == TMR8)
  63              		.loc 1 89 0
  64 002c 574B     		ldr	r3, .L31+24
  65 002e 9842     		cmp	r0, r3
  66 0030 5AD0     		beq	.L24
  90:/home/y/github/EmbeddedSoftwareMCU/Libraries/AT32/drivers/src/at32f403a_407_tmr.c ****   {
  91:/home/y/github/EmbeddedSoftwareMCU/Libraries/AT32/drivers/src/at32f403a_407_tmr.c ****     crm_periph_reset(CRM_TMR8_PERIPH_RESET, TRUE);
  92:/home/y/github/EmbeddedSoftwareMCU/Libraries/AT32/drivers/src/at32f403a_407_tmr.c ****     crm_periph_reset(CRM_TMR8_PERIPH_RESET, FALSE);
  93:/home/y/github/EmbeddedSoftwareMCU/Libraries/AT32/drivers/src/at32f403a_407_tmr.c ****   }
  94:/home/y/github/EmbeddedSoftwareMCU/Libraries/AT32/drivers/src/at32f403a_407_tmr.c ****   else if(tmr_x == TMR9)
  67              		.loc 1 94 0
  68 0032 574B     		ldr	r3, .L31+28
  69 0034 9842     		cmp	r0, r3
  70 0036 61D0     		beq	.L25
  95:/home/y/github/EmbeddedSoftwareMCU/Libraries/AT32/drivers/src/at32f403a_407_tmr.c ****   {
  96:/home/y/github/EmbeddedSoftwareMCU/Libraries/AT32/drivers/src/at32f403a_407_tmr.c ****     crm_periph_reset(CRM_TMR9_PERIPH_RESET, TRUE);
  97:/home/y/github/EmbeddedSoftwareMCU/Libraries/AT32/drivers/src/at32f403a_407_tmr.c ****     crm_periph_reset(CRM_TMR9_PERIPH_RESET, FALSE);
  98:/home/y/github/EmbeddedSoftwareMCU/Libraries/AT32/drivers/src/at32f403a_407_tmr.c ****   }
  99:/home/y/github/EmbeddedSoftwareMCU/Libraries/AT32/drivers/src/at32f403a_407_tmr.c ****   else if(tmr_x == TMR10)
  71              		.loc 1 99 0
  72 0038 564B     		ldr	r3, .L31+32
  73 003a 9842     		cmp	r0, r3
ARM GAS  /tmp/ccPqktXd.s 			page 4


  74 003c 68D0     		beq	.L26
 100:/home/y/github/EmbeddedSoftwareMCU/Libraries/AT32/drivers/src/at32f403a_407_tmr.c ****   {
 101:/home/y/github/EmbeddedSoftwareMCU/Libraries/AT32/drivers/src/at32f403a_407_tmr.c ****     crm_periph_reset(CRM_TMR10_PERIPH_RESET, TRUE);
 102:/home/y/github/EmbeddedSoftwareMCU/Libraries/AT32/drivers/src/at32f403a_407_tmr.c ****     crm_periph_reset(CRM_TMR10_PERIPH_RESET, FALSE);
 103:/home/y/github/EmbeddedSoftwareMCU/Libraries/AT32/drivers/src/at32f403a_407_tmr.c ****   }
 104:/home/y/github/EmbeddedSoftwareMCU/Libraries/AT32/drivers/src/at32f403a_407_tmr.c ****   else if(tmr_x == TMR11)
  75              		.loc 1 104 0
  76 003e 564B     		ldr	r3, .L31+36
  77 0040 9842     		cmp	r0, r3
  78 0042 6FD0     		beq	.L27
 105:/home/y/github/EmbeddedSoftwareMCU/Libraries/AT32/drivers/src/at32f403a_407_tmr.c ****   {
 106:/home/y/github/EmbeddedSoftwareMCU/Libraries/AT32/drivers/src/at32f403a_407_tmr.c ****     crm_periph_reset(CRM_TMR11_PERIPH_RESET, TRUE);
 107:/home/y/github/EmbeddedSoftwareMCU/Libraries/AT32/drivers/src/at32f403a_407_tmr.c ****     crm_periph_reset(CRM_TMR11_PERIPH_RESET, FALSE);
 108:/home/y/github/EmbeddedSoftwareMCU/Libraries/AT32/drivers/src/at32f403a_407_tmr.c ****   }
 109:/home/y/github/EmbeddedSoftwareMCU/Libraries/AT32/drivers/src/at32f403a_407_tmr.c ****   else if(tmr_x == TMR12)
  79              		.loc 1 109 0
  80 0044 554B     		ldr	r3, .L31+40
  81 0046 9842     		cmp	r0, r3
  82 0048 76D0     		beq	.L28
 110:/home/y/github/EmbeddedSoftwareMCU/Libraries/AT32/drivers/src/at32f403a_407_tmr.c ****   {
 111:/home/y/github/EmbeddedSoftwareMCU/Libraries/AT32/drivers/src/at32f403a_407_tmr.c ****     crm_periph_reset(CRM_TMR12_PERIPH_RESET, TRUE);
 112:/home/y/github/EmbeddedSoftwareMCU/Libraries/AT32/drivers/src/at32f403a_407_tmr.c ****     crm_periph_reset(CRM_TMR12_PERIPH_RESET, FALSE);
 113:/home/y/github/EmbeddedSoftwareMCU/Libraries/AT32/drivers/src/at32f403a_407_tmr.c ****   }
 114:/home/y/github/EmbeddedSoftwareMCU/Libraries/AT32/drivers/src/at32f403a_407_tmr.c ****   else if(tmr_x == TMR13)
  83              		.loc 1 114 0
  84 004a 554B     		ldr	r3, .L31+44
  85 004c 9842     		cmp	r0, r3
  86 004e 7DD0     		beq	.L29
 115:/home/y/github/EmbeddedSoftwareMCU/Libraries/AT32/drivers/src/at32f403a_407_tmr.c ****   {
 116:/home/y/github/EmbeddedSoftwareMCU/Libraries/AT32/drivers/src/at32f403a_407_tmr.c ****     crm_periph_reset(CRM_TMR13_PERIPH_RESET, TRUE);
 117:/home/y/github/EmbeddedSoftwareMCU/Libraries/AT32/drivers/src/at32f403a_407_tmr.c ****     crm_periph_reset(CRM_TMR13_PERIPH_RESET, FALSE);
 118:/home/y/github/EmbeddedSoftwareMCU/Libraries/AT32/drivers/src/at32f403a_407_tmr.c ****   }
 119:/home/y/github/EmbeddedSoftwareMCU/Libraries/AT32/drivers/src/at32f403a_407_tmr.c ****   else if(tmr_x == TMR14)
  87              		.loc 1 119 0
  88 0050 544B     		ldr	r3, .L31+48
  89 0052 9842     		cmp	r0, r3
  90 0054 00F08480 		beq	.L30
  91              	.LVL1:
  92              	.L1:
  93 0058 10BD     		pop	{r4, pc}
  94              	.LVL2:
  95              	.L17:
  56:/home/y/github/EmbeddedSoftwareMCU/Libraries/AT32/drivers/src/at32f403a_407_tmr.c ****     crm_periph_reset(CRM_TMR1_PERIPH_RESET, FALSE);
  96              		.loc 1 56 0
  97 005a 534C     		ldr	r4, .L31+52
  98 005c 0121     		movs	r1, #1
  99 005e 2046     		mov	r0, r4
 100              	.LVL3:
 101 0060 FFF7FEFF 		bl	crm_periph_reset
 102              	.LVL4:
  57:/home/y/github/EmbeddedSoftwareMCU/Libraries/AT32/drivers/src/at32f403a_407_tmr.c ****   }
 103              		.loc 1 57 0
 104 0064 0021     		movs	r1, #0
 105 0066 2046     		mov	r0, r4
 106 0068 FFF7FEFF 		bl	crm_periph_reset
 107              	.LVL5:
 108 006c 10BD     		pop	{r4, pc}
ARM GAS  /tmp/ccPqktXd.s 			page 5


 109              	.LVL6:
 110              	.L18:
  61:/home/y/github/EmbeddedSoftwareMCU/Libraries/AT32/drivers/src/at32f403a_407_tmr.c ****     crm_periph_reset(CRM_TMR2_PERIPH_RESET, FALSE);
 111              		.loc 1 61 0
 112 006e 0121     		movs	r1, #1
 113 0070 4FF48010 		mov	r0, #1048576
 114              	.LVL7:
 115 0074 FFF7FEFF 		bl	crm_periph_reset
 116              	.LVL8:
  62:/home/y/github/EmbeddedSoftwareMCU/Libraries/AT32/drivers/src/at32f403a_407_tmr.c ****   }
 117              		.loc 1 62 0
 118 0078 0021     		movs	r1, #0
 119 007a 4FF48010 		mov	r0, #1048576
 120 007e FFF7FEFF 		bl	crm_periph_reset
 121              	.LVL9:
 122 0082 10BD     		pop	{r4, pc}
 123              	.LVL10:
 124              	.L19:
  66:/home/y/github/EmbeddedSoftwareMCU/Libraries/AT32/drivers/src/at32f403a_407_tmr.c ****     crm_periph_reset(CRM_TMR3_PERIPH_RESET, FALSE);
 125              		.loc 1 66 0
 126 0084 494C     		ldr	r4, .L31+56
 127 0086 0121     		movs	r1, #1
 128 0088 2046     		mov	r0, r4
 129              	.LVL11:
 130 008a FFF7FEFF 		bl	crm_periph_reset
 131              	.LVL12:
  67:/home/y/github/EmbeddedSoftwareMCU/Libraries/AT32/drivers/src/at32f403a_407_tmr.c ****   }
 132              		.loc 1 67 0
 133 008e 0021     		movs	r1, #0
 134 0090 2046     		mov	r0, r4
 135 0092 FFF7FEFF 		bl	crm_periph_reset
 136              	.LVL13:
 137 0096 10BD     		pop	{r4, pc}
 138              	.LVL14:
 139              	.L20:
  71:/home/y/github/EmbeddedSoftwareMCU/Libraries/AT32/drivers/src/at32f403a_407_tmr.c ****     crm_periph_reset(CRM_TMR4_PERIPH_RESET, FALSE);
 140              		.loc 1 71 0
 141 0098 454C     		ldr	r4, .L31+60
 142 009a 0121     		movs	r1, #1
 143 009c 2046     		mov	r0, r4
 144              	.LVL15:
 145 009e FFF7FEFF 		bl	crm_periph_reset
 146              	.LVL16:
  72:/home/y/github/EmbeddedSoftwareMCU/Libraries/AT32/drivers/src/at32f403a_407_tmr.c ****   }
 147              		.loc 1 72 0
 148 00a2 0021     		movs	r1, #0
 149 00a4 2046     		mov	r0, r4
 150 00a6 FFF7FEFF 		bl	crm_periph_reset
 151              	.LVL17:
 152 00aa 10BD     		pop	{r4, pc}
 153              	.LVL18:
 154              	.L21:
  76:/home/y/github/EmbeddedSoftwareMCU/Libraries/AT32/drivers/src/at32f403a_407_tmr.c ****     crm_periph_reset(CRM_TMR5_PERIPH_RESET, FALSE);
 155              		.loc 1 76 0
 156 00ac 414C     		ldr	r4, .L31+64
 157 00ae 0121     		movs	r1, #1
 158 00b0 2046     		mov	r0, r4
ARM GAS  /tmp/ccPqktXd.s 			page 6


 159              	.LVL19:
 160 00b2 FFF7FEFF 		bl	crm_periph_reset
 161              	.LVL20:
  77:/home/y/github/EmbeddedSoftwareMCU/Libraries/AT32/drivers/src/at32f403a_407_tmr.c ****   }
 162              		.loc 1 77 0
 163 00b6 0021     		movs	r1, #0
 164 00b8 2046     		mov	r0, r4
 165 00ba FFF7FEFF 		bl	crm_periph_reset
 166              	.LVL21:
 167 00be 10BD     		pop	{r4, pc}
 168              	.LVL22:
 169              	.L22:
  81:/home/y/github/EmbeddedSoftwareMCU/Libraries/AT32/drivers/src/at32f403a_407_tmr.c ****     crm_periph_reset(CRM_TMR6_PERIPH_RESET, FALSE);
 170              		.loc 1 81 0
 171 00c0 3D4C     		ldr	r4, .L31+68
 172 00c2 0121     		movs	r1, #1
 173 00c4 2046     		mov	r0, r4
 174              	.LVL23:
 175 00c6 FFF7FEFF 		bl	crm_periph_reset
 176              	.LVL24:
  82:/home/y/github/EmbeddedSoftwareMCU/Libraries/AT32/drivers/src/at32f403a_407_tmr.c ****   }
 177              		.loc 1 82 0
 178 00ca 0021     		movs	r1, #0
 179 00cc 2046     		mov	r0, r4
 180 00ce FFF7FEFF 		bl	crm_periph_reset
 181              	.LVL25:
 182 00d2 10BD     		pop	{r4, pc}
 183              	.LVL26:
 184              	.L23:
  86:/home/y/github/EmbeddedSoftwareMCU/Libraries/AT32/drivers/src/at32f403a_407_tmr.c ****     crm_periph_reset(CRM_TMR7_PERIPH_RESET, FALSE);
 185              		.loc 1 86 0
 186 00d4 394C     		ldr	r4, .L31+72
 187 00d6 0121     		movs	r1, #1
 188 00d8 2046     		mov	r0, r4
 189              	.LVL27:
 190 00da FFF7FEFF 		bl	crm_periph_reset
 191              	.LVL28:
  87:/home/y/github/EmbeddedSoftwareMCU/Libraries/AT32/drivers/src/at32f403a_407_tmr.c ****   }
 192              		.loc 1 87 0
 193 00de 0021     		movs	r1, #0
 194 00e0 2046     		mov	r0, r4
 195 00e2 FFF7FEFF 		bl	crm_periph_reset
 196              	.LVL29:
 197 00e6 10BD     		pop	{r4, pc}
 198              	.LVL30:
 199              	.L24:
  91:/home/y/github/EmbeddedSoftwareMCU/Libraries/AT32/drivers/src/at32f403a_407_tmr.c ****     crm_periph_reset(CRM_TMR8_PERIPH_RESET, FALSE);
 200              		.loc 1 91 0
 201 00e8 354C     		ldr	r4, .L31+76
 202 00ea 0121     		movs	r1, #1
 203 00ec 2046     		mov	r0, r4
 204              	.LVL31:
 205 00ee FFF7FEFF 		bl	crm_periph_reset
 206              	.LVL32:
  92:/home/y/github/EmbeddedSoftwareMCU/Libraries/AT32/drivers/src/at32f403a_407_tmr.c ****   }
 207              		.loc 1 92 0
 208 00f2 0021     		movs	r1, #0
ARM GAS  /tmp/ccPqktXd.s 			page 7


 209 00f4 2046     		mov	r0, r4
 210 00f6 FFF7FEFF 		bl	crm_periph_reset
 211              	.LVL33:
 212 00fa 10BD     		pop	{r4, pc}
 213              	.LVL34:
 214              	.L25:
  96:/home/y/github/EmbeddedSoftwareMCU/Libraries/AT32/drivers/src/at32f403a_407_tmr.c ****     crm_periph_reset(CRM_TMR9_PERIPH_RESET, FALSE);
 215              		.loc 1 96 0
 216 00fc 314C     		ldr	r4, .L31+80
 217 00fe 0121     		movs	r1, #1
 218 0100 2046     		mov	r0, r4
 219              	.LVL35:
 220 0102 FFF7FEFF 		bl	crm_periph_reset
 221              	.LVL36:
  97:/home/y/github/EmbeddedSoftwareMCU/Libraries/AT32/drivers/src/at32f403a_407_tmr.c ****   }
 222              		.loc 1 97 0
 223 0106 0021     		movs	r1, #0
 224 0108 2046     		mov	r0, r4
 225 010a FFF7FEFF 		bl	crm_periph_reset
 226              	.LVL37:
 227 010e 10BD     		pop	{r4, pc}
 228              	.LVL38:
 229              	.L26:
 101:/home/y/github/EmbeddedSoftwareMCU/Libraries/AT32/drivers/src/at32f403a_407_tmr.c ****     crm_periph_reset(CRM_TMR10_PERIPH_RESET, FALSE);
 230              		.loc 1 101 0
 231 0110 2D4C     		ldr	r4, .L31+84
 232 0112 0121     		movs	r1, #1
 233 0114 2046     		mov	r0, r4
 234              	.LVL39:
 235 0116 FFF7FEFF 		bl	crm_periph_reset
 236              	.LVL40:
 102:/home/y/github/EmbeddedSoftwareMCU/Libraries/AT32/drivers/src/at32f403a_407_tmr.c ****   }
 237              		.loc 1 102 0
 238 011a 0021     		movs	r1, #0
 239 011c 2046     		mov	r0, r4
 240 011e FFF7FEFF 		bl	crm_periph_reset
 241              	.LVL41:
 242 0122 10BD     		pop	{r4, pc}
 243              	.LVL42:
 244              	.L27:
 106:/home/y/github/EmbeddedSoftwareMCU/Libraries/AT32/drivers/src/at32f403a_407_tmr.c ****     crm_periph_reset(CRM_TMR11_PERIPH_RESET, FALSE);
 245              		.loc 1 106 0
 246 0124 294C     		ldr	r4, .L31+88
 247 0126 0121     		movs	r1, #1
 248 0128 2046     		mov	r0, r4
 249              	.LVL43:
 250 012a FFF7FEFF 		bl	crm_periph_reset
 251              	.LVL44:
 107:/home/y/github/EmbeddedSoftwareMCU/Libraries/AT32/drivers/src/at32f403a_407_tmr.c ****   }
 252              		.loc 1 107 0
 253 012e 0021     		movs	r1, #0
 254 0130 2046     		mov	r0, r4
 255 0132 FFF7FEFF 		bl	crm_periph_reset
 256              	.LVL45:
 257 0136 10BD     		pop	{r4, pc}
 258              	.LVL46:
 259              	.L28:
ARM GAS  /tmp/ccPqktXd.s 			page 8


 111:/home/y/github/EmbeddedSoftwareMCU/Libraries/AT32/drivers/src/at32f403a_407_tmr.c ****     crm_periph_reset(CRM_TMR12_PERIPH_RESET, FALSE);
 260              		.loc 1 111 0
 261 0138 254C     		ldr	r4, .L31+92
 262 013a 0121     		movs	r1, #1
 263 013c 2046     		mov	r0, r4
 264              	.LVL47:
 265 013e FFF7FEFF 		bl	crm_periph_reset
 266              	.LVL48:
 112:/home/y/github/EmbeddedSoftwareMCU/Libraries/AT32/drivers/src/at32f403a_407_tmr.c ****   }
 267              		.loc 1 112 0
 268 0142 0021     		movs	r1, #0
 269 0144 2046     		mov	r0, r4
 270 0146 FFF7FEFF 		bl	crm_periph_reset
 271              	.LVL49:
 272 014a 10BD     		pop	{r4, pc}
 273              	.LVL50:
 274              	.L29:
 116:/home/y/github/EmbeddedSoftwareMCU/Libraries/AT32/drivers/src/at32f403a_407_tmr.c ****     crm_periph_reset(CRM_TMR13_PERIPH_RESET, FALSE);
 275              		.loc 1 116 0
 276 014c 214C     		ldr	r4, .L31+96
 277 014e 0121     		movs	r1, #1
 278 0150 2046     		mov	r0, r4
 279              	.LVL51:
 280 0152 FFF7FEFF 		bl	crm_periph_reset
 281              	.LVL52:
 117:/home/y/github/EmbeddedSoftwareMCU/Libraries/AT32/drivers/src/at32f403a_407_tmr.c ****   }
 282              		.loc 1 117 0
 283 0156 0021     		movs	r1, #0
 284 0158 2046     		mov	r0, r4
 285 015a FFF7FEFF 		bl	crm_periph_reset
 286              	.LVL53:
 287 015e 10BD     		pop	{r4, pc}
 288              	.LVL54:
 289              	.L30:
 120:/home/y/github/EmbeddedSoftwareMCU/Libraries/AT32/drivers/src/at32f403a_407_tmr.c ****   {
 121:/home/y/github/EmbeddedSoftwareMCU/Libraries/AT32/drivers/src/at32f403a_407_tmr.c ****     crm_periph_reset(CRM_TMR14_PERIPH_RESET, TRUE);
 290              		.loc 1 121 0
 291 0160 1D4C     		ldr	r4, .L31+100
 292 0162 0121     		movs	r1, #1
 293 0164 2046     		mov	r0, r4
 294              	.LVL55:
 295 0166 FFF7FEFF 		bl	crm_periph_reset
 296              	.LVL56:
 122:/home/y/github/EmbeddedSoftwareMCU/Libraries/AT32/drivers/src/at32f403a_407_tmr.c ****     crm_periph_reset(CRM_TMR14_PERIPH_RESET, FALSE);
 297              		.loc 1 122 0
 298 016a 0021     		movs	r1, #0
 299 016c 2046     		mov	r0, r4
 300 016e FFF7FEFF 		bl	crm_periph_reset
 301              	.LVL57:
 123:/home/y/github/EmbeddedSoftwareMCU/Libraries/AT32/drivers/src/at32f403a_407_tmr.c ****   }
 124:/home/y/github/EmbeddedSoftwareMCU/Libraries/AT32/drivers/src/at32f403a_407_tmr.c **** }
 302              		.loc 1 124 0
 303 0172 71E7     		b	.L1
 304              	.L32:
 305              		.align	2
 306              	.L31:
 307 0174 002C0140 		.word	1073818624
ARM GAS  /tmp/ccPqktXd.s 			page 9


 308 0178 00040040 		.word	1073742848
 309 017c 00080040 		.word	1073743872
 310 0180 000C0040 		.word	1073744896
 311 0184 00100040 		.word	1073745920
 312 0188 00140040 		.word	1073746944
 313 018c 00340140 		.word	1073820672
 314 0190 004C0140 		.word	1073826816
 315 0194 00500140 		.word	1073827840
 316 0198 00540140 		.word	1073828864
 317 019c 00180040 		.word	1073747968
 318 01a0 001C0040 		.word	1073748992
 319 01a4 00200040 		.word	1073750016
 320 01a8 0B000C00 		.word	786443
 321 01ac 01001000 		.word	1048577
 322 01b0 02001000 		.word	1048578
 323 01b4 03001000 		.word	1048579
 324 01b8 04001000 		.word	1048580
 325 01bc 05001000 		.word	1048581
 326 01c0 0D000C00 		.word	786445
 327 01c4 13000C00 		.word	786451
 328 01c8 14000C00 		.word	786452
 329 01cc 15000C00 		.word	786453
 330 01d0 06001000 		.word	1048582
 331 01d4 07001000 		.word	1048583
 332 01d8 08001000 		.word	1048584
 333              		.cfi_endproc
 334              	.LFE133:
 336              		.section	.text.tmr_counter_enable,"ax",%progbits
 337              		.align	1
 338              		.global	tmr_counter_enable
 339              		.syntax unified
 340              		.thumb
 341              		.thumb_func
 342              		.fpu softvfp
 344              	tmr_counter_enable:
 345              	.LFB134:
 125:/home/y/github/EmbeddedSoftwareMCU/Libraries/AT32/drivers/src/at32f403a_407_tmr.c **** 
 126:/home/y/github/EmbeddedSoftwareMCU/Libraries/AT32/drivers/src/at32f403a_407_tmr.c **** /**
 127:/home/y/github/EmbeddedSoftwareMCU/Libraries/AT32/drivers/src/at32f403a_407_tmr.c ****   * @brief  enable or disable tmr counter
 128:/home/y/github/EmbeddedSoftwareMCU/Libraries/AT32/drivers/src/at32f403a_407_tmr.c ****   * @param  tmr_x: select the tmr peripheral.
 129:/home/y/github/EmbeddedSoftwareMCU/Libraries/AT32/drivers/src/at32f403a_407_tmr.c ****   *         this parameter can be one of the following values:
 130:/home/y/github/EmbeddedSoftwareMCU/Libraries/AT32/drivers/src/at32f403a_407_tmr.c ****   *         TMR1, TMR2, TMR3, TMR4, TMR5, TMR6, TMR7, TMR8,
 131:/home/y/github/EmbeddedSoftwareMCU/Libraries/AT32/drivers/src/at32f403a_407_tmr.c ****   *         TMR9, TMR10, TMR11, TMR12, TMR13, TMR14
 132:/home/y/github/EmbeddedSoftwareMCU/Libraries/AT32/drivers/src/at32f403a_407_tmr.c ****   * @param  new_state (TRUE or FALSE)
 133:/home/y/github/EmbeddedSoftwareMCU/Libraries/AT32/drivers/src/at32f403a_407_tmr.c ****   * @retval none
 134:/home/y/github/EmbeddedSoftwareMCU/Libraries/AT32/drivers/src/at32f403a_407_tmr.c ****   */
 135:/home/y/github/EmbeddedSoftwareMCU/Libraries/AT32/drivers/src/at32f403a_407_tmr.c **** void tmr_counter_enable(tmr_type *tmr_x, confirm_state new_state)
 136:/home/y/github/EmbeddedSoftwareMCU/Libraries/AT32/drivers/src/at32f403a_407_tmr.c **** {
 346              		.loc 1 136 0
 347              		.cfi_startproc
 348              		@ args = 0, pretend = 0, frame = 0
 349              		@ frame_needed = 0, uses_anonymous_args = 0
 350              		@ link register save eliminated.
 351              	.LVL58:
 137:/home/y/github/EmbeddedSoftwareMCU/Libraries/AT32/drivers/src/at32f403a_407_tmr.c ****   /* tmr counter enable  */
 138:/home/y/github/EmbeddedSoftwareMCU/Libraries/AT32/drivers/src/at32f403a_407_tmr.c ****   tmr_x->ctrl1_bit.tmren = new_state;
 352              		.loc 1 138 0
ARM GAS  /tmp/ccPqktXd.s 			page 10


 353 0000 0368     		ldr	r3, [r0]
 354 0002 61F30003 		bfi	r3, r1, #0, #1
 355 0006 0360     		str	r3, [r0]
 356 0008 7047     		bx	lr
 357              		.cfi_endproc
 358              	.LFE134:
 360              		.section	.text.tmr_output_default_para_init,"ax",%progbits
 361              		.align	1
 362              		.global	tmr_output_default_para_init
 363              		.syntax unified
 364              		.thumb
 365              		.thumb_func
 366              		.fpu softvfp
 368              	tmr_output_default_para_init:
 369              	.LFB135:
 139:/home/y/github/EmbeddedSoftwareMCU/Libraries/AT32/drivers/src/at32f403a_407_tmr.c **** }
 140:/home/y/github/EmbeddedSoftwareMCU/Libraries/AT32/drivers/src/at32f403a_407_tmr.c **** 
 141:/home/y/github/EmbeddedSoftwareMCU/Libraries/AT32/drivers/src/at32f403a_407_tmr.c **** /**
 142:/home/y/github/EmbeddedSoftwareMCU/Libraries/AT32/drivers/src/at32f403a_407_tmr.c ****   * @brief  init tmr output default para
 143:/home/y/github/EmbeddedSoftwareMCU/Libraries/AT32/drivers/src/at32f403a_407_tmr.c ****   * @param  tmr_output_struct
 144:/home/y/github/EmbeddedSoftwareMCU/Libraries/AT32/drivers/src/at32f403a_407_tmr.c ****   *         - to the structure of tmr_output_config_type
 145:/home/y/github/EmbeddedSoftwareMCU/Libraries/AT32/drivers/src/at32f403a_407_tmr.c ****   * @retval none
 146:/home/y/github/EmbeddedSoftwareMCU/Libraries/AT32/drivers/src/at32f403a_407_tmr.c ****   */
 147:/home/y/github/EmbeddedSoftwareMCU/Libraries/AT32/drivers/src/at32f403a_407_tmr.c **** void tmr_output_default_para_init(tmr_output_config_type *tmr_output_struct)
 148:/home/y/github/EmbeddedSoftwareMCU/Libraries/AT32/drivers/src/at32f403a_407_tmr.c **** {
 370              		.loc 1 148 0
 371              		.cfi_startproc
 372              		@ args = 0, pretend = 0, frame = 0
 373              		@ frame_needed = 0, uses_anonymous_args = 0
 374              		@ link register save eliminated.
 375              	.LVL59:
 149:/home/y/github/EmbeddedSoftwareMCU/Libraries/AT32/drivers/src/at32f403a_407_tmr.c ****   tmr_output_struct->oc_mode = TMR_OUTPUT_CONTROL_OFF;
 376              		.loc 1 149 0
 377 0000 0023     		movs	r3, #0
 378 0002 0370     		strb	r3, [r0]
 150:/home/y/github/EmbeddedSoftwareMCU/Libraries/AT32/drivers/src/at32f403a_407_tmr.c ****   tmr_output_struct->oc_idle_state = FALSE;
 379              		.loc 1 150 0
 380 0004 4370     		strb	r3, [r0, #1]
 151:/home/y/github/EmbeddedSoftwareMCU/Libraries/AT32/drivers/src/at32f403a_407_tmr.c ****   tmr_output_struct->occ_idle_state = FALSE;
 381              		.loc 1 151 0
 382 0006 8370     		strb	r3, [r0, #2]
 152:/home/y/github/EmbeddedSoftwareMCU/Libraries/AT32/drivers/src/at32f403a_407_tmr.c ****   tmr_output_struct->oc_polarity = TMR_OUTPUT_ACTIVE_HIGH;
 383              		.loc 1 152 0
 384 0008 C370     		strb	r3, [r0, #3]
 153:/home/y/github/EmbeddedSoftwareMCU/Libraries/AT32/drivers/src/at32f403a_407_tmr.c ****   tmr_output_struct->occ_polarity = TMR_OUTPUT_ACTIVE_HIGH;
 385              		.loc 1 153 0
 386 000a 0371     		strb	r3, [r0, #4]
 154:/home/y/github/EmbeddedSoftwareMCU/Libraries/AT32/drivers/src/at32f403a_407_tmr.c ****   tmr_output_struct->oc_output_state = FALSE;
 387              		.loc 1 154 0
 388 000c 4371     		strb	r3, [r0, #5]
 155:/home/y/github/EmbeddedSoftwareMCU/Libraries/AT32/drivers/src/at32f403a_407_tmr.c ****   tmr_output_struct->occ_output_state = FALSE;
 389              		.loc 1 155 0
 390 000e 8371     		strb	r3, [r0, #6]
 391 0010 7047     		bx	lr
 392              		.cfi_endproc
 393              	.LFE135:
 395              		.section	.text.tmr_input_default_para_init,"ax",%progbits
ARM GAS  /tmp/ccPqktXd.s 			page 11


 396              		.align	1
 397              		.global	tmr_input_default_para_init
 398              		.syntax unified
 399              		.thumb
 400              		.thumb_func
 401              		.fpu softvfp
 403              	tmr_input_default_para_init:
 404              	.LFB136:
 156:/home/y/github/EmbeddedSoftwareMCU/Libraries/AT32/drivers/src/at32f403a_407_tmr.c **** }
 157:/home/y/github/EmbeddedSoftwareMCU/Libraries/AT32/drivers/src/at32f403a_407_tmr.c **** 
 158:/home/y/github/EmbeddedSoftwareMCU/Libraries/AT32/drivers/src/at32f403a_407_tmr.c **** /**
 159:/home/y/github/EmbeddedSoftwareMCU/Libraries/AT32/drivers/src/at32f403a_407_tmr.c ****   * @brief  init tmr input default para
 160:/home/y/github/EmbeddedSoftwareMCU/Libraries/AT32/drivers/src/at32f403a_407_tmr.c ****   * @param  tmr_input_struct
 161:/home/y/github/EmbeddedSoftwareMCU/Libraries/AT32/drivers/src/at32f403a_407_tmr.c ****   *         - to the structure of tmr_input_config_type
 162:/home/y/github/EmbeddedSoftwareMCU/Libraries/AT32/drivers/src/at32f403a_407_tmr.c ****   * @retval none
 163:/home/y/github/EmbeddedSoftwareMCU/Libraries/AT32/drivers/src/at32f403a_407_tmr.c ****   */
 164:/home/y/github/EmbeddedSoftwareMCU/Libraries/AT32/drivers/src/at32f403a_407_tmr.c **** void tmr_input_default_para_init(tmr_input_config_type *tmr_input_struct)
 165:/home/y/github/EmbeddedSoftwareMCU/Libraries/AT32/drivers/src/at32f403a_407_tmr.c **** {
 405              		.loc 1 165 0
 406              		.cfi_startproc
 407              		@ args = 0, pretend = 0, frame = 0
 408              		@ frame_needed = 0, uses_anonymous_args = 0
 409              		@ link register save eliminated.
 410              	.LVL60:
 166:/home/y/github/EmbeddedSoftwareMCU/Libraries/AT32/drivers/src/at32f403a_407_tmr.c ****   tmr_input_struct->input_channel_select = TMR_SELECT_CHANNEL_1;
 411              		.loc 1 166 0
 412 0000 0023     		movs	r3, #0
 413 0002 0370     		strb	r3, [r0]
 167:/home/y/github/EmbeddedSoftwareMCU/Libraries/AT32/drivers/src/at32f403a_407_tmr.c ****   tmr_input_struct->input_polarity_select = TMR_INPUT_RISING_EDGE;
 414              		.loc 1 167 0
 415 0004 4370     		strb	r3, [r0, #1]
 168:/home/y/github/EmbeddedSoftwareMCU/Libraries/AT32/drivers/src/at32f403a_407_tmr.c ****   tmr_input_struct->input_mapped_select = TMR_CC_CHANNEL_MAPPED_DIRECT;
 416              		.loc 1 168 0
 417 0006 0122     		movs	r2, #1
 418 0008 8270     		strb	r2, [r0, #2]
 169:/home/y/github/EmbeddedSoftwareMCU/Libraries/AT32/drivers/src/at32f403a_407_tmr.c ****   tmr_input_struct->input_filter_value = 0x0;
 419              		.loc 1 169 0
 420 000a C370     		strb	r3, [r0, #3]
 421 000c 7047     		bx	lr
 422              		.cfi_endproc
 423              	.LFE136:
 425              		.section	.text.tmr_brkdt_default_para_init,"ax",%progbits
 426              		.align	1
 427              		.global	tmr_brkdt_default_para_init
 428              		.syntax unified
 429              		.thumb
 430              		.thumb_func
 431              		.fpu softvfp
 433              	tmr_brkdt_default_para_init:
 434              	.LFB137:
 170:/home/y/github/EmbeddedSoftwareMCU/Libraries/AT32/drivers/src/at32f403a_407_tmr.c **** }
 171:/home/y/github/EmbeddedSoftwareMCU/Libraries/AT32/drivers/src/at32f403a_407_tmr.c **** 
 172:/home/y/github/EmbeddedSoftwareMCU/Libraries/AT32/drivers/src/at32f403a_407_tmr.c **** /**
 173:/home/y/github/EmbeddedSoftwareMCU/Libraries/AT32/drivers/src/at32f403a_407_tmr.c ****   * @brief  init tmr brkdt default para
 174:/home/y/github/EmbeddedSoftwareMCU/Libraries/AT32/drivers/src/at32f403a_407_tmr.c ****   * @param  tmr_brkdt_struct
 175:/home/y/github/EmbeddedSoftwareMCU/Libraries/AT32/drivers/src/at32f403a_407_tmr.c ****   *         - to the structure of tmr_brkdt_config_type
 176:/home/y/github/EmbeddedSoftwareMCU/Libraries/AT32/drivers/src/at32f403a_407_tmr.c ****   * @retval none
ARM GAS  /tmp/ccPqktXd.s 			page 12


 177:/home/y/github/EmbeddedSoftwareMCU/Libraries/AT32/drivers/src/at32f403a_407_tmr.c ****   */
 178:/home/y/github/EmbeddedSoftwareMCU/Libraries/AT32/drivers/src/at32f403a_407_tmr.c **** void tmr_brkdt_default_para_init(tmr_brkdt_config_type *tmr_brkdt_struct)
 179:/home/y/github/EmbeddedSoftwareMCU/Libraries/AT32/drivers/src/at32f403a_407_tmr.c **** {
 435              		.loc 1 179 0
 436              		.cfi_startproc
 437              		@ args = 0, pretend = 0, frame = 0
 438              		@ frame_needed = 0, uses_anonymous_args = 0
 439              		@ link register save eliminated.
 440              	.LVL61:
 180:/home/y/github/EmbeddedSoftwareMCU/Libraries/AT32/drivers/src/at32f403a_407_tmr.c ****   tmr_brkdt_struct->deadtime = 0x0;
 441              		.loc 1 180 0
 442 0000 0023     		movs	r3, #0
 443 0002 0370     		strb	r3, [r0]
 181:/home/y/github/EmbeddedSoftwareMCU/Libraries/AT32/drivers/src/at32f403a_407_tmr.c ****   tmr_brkdt_struct->brk_polarity = TMR_BRK_INPUT_ACTIVE_LOW;
 444              		.loc 1 181 0
 445 0004 4370     		strb	r3, [r0, #1]
 182:/home/y/github/EmbeddedSoftwareMCU/Libraries/AT32/drivers/src/at32f403a_407_tmr.c ****   tmr_brkdt_struct->wp_level = TMR_WP_OFF;
 446              		.loc 1 182 0
 447 0006 8370     		strb	r3, [r0, #2]
 183:/home/y/github/EmbeddedSoftwareMCU/Libraries/AT32/drivers/src/at32f403a_407_tmr.c ****   tmr_brkdt_struct->auto_output_enable = FALSE ;
 448              		.loc 1 183 0
 449 0008 C370     		strb	r3, [r0, #3]
 184:/home/y/github/EmbeddedSoftwareMCU/Libraries/AT32/drivers/src/at32f403a_407_tmr.c ****   tmr_brkdt_struct->fcsoen_state = FALSE ;
 450              		.loc 1 184 0
 451 000a 0371     		strb	r3, [r0, #4]
 185:/home/y/github/EmbeddedSoftwareMCU/Libraries/AT32/drivers/src/at32f403a_407_tmr.c ****   tmr_brkdt_struct->fcsodis_state = FALSE ;
 452              		.loc 1 185 0
 453 000c 4371     		strb	r3, [r0, #5]
 186:/home/y/github/EmbeddedSoftwareMCU/Libraries/AT32/drivers/src/at32f403a_407_tmr.c ****   tmr_brkdt_struct->brk_enable = FALSE ;
 454              		.loc 1 186 0
 455 000e 8371     		strb	r3, [r0, #6]
 456 0010 7047     		bx	lr
 457              		.cfi_endproc
 458              	.LFE137:
 460              		.section	.text.tmr_base_init,"ax",%progbits
 461              		.align	1
 462              		.global	tmr_base_init
 463              		.syntax unified
 464              		.thumb
 465              		.thumb_func
 466              		.fpu softvfp
 468              	tmr_base_init:
 469              	.LFB138:
 187:/home/y/github/EmbeddedSoftwareMCU/Libraries/AT32/drivers/src/at32f403a_407_tmr.c **** }
 188:/home/y/github/EmbeddedSoftwareMCU/Libraries/AT32/drivers/src/at32f403a_407_tmr.c **** 
 189:/home/y/github/EmbeddedSoftwareMCU/Libraries/AT32/drivers/src/at32f403a_407_tmr.c **** /**
 190:/home/y/github/EmbeddedSoftwareMCU/Libraries/AT32/drivers/src/at32f403a_407_tmr.c ****   * @brief  init tmr base
 191:/home/y/github/EmbeddedSoftwareMCU/Libraries/AT32/drivers/src/at32f403a_407_tmr.c ****   * @param  tmr_x: select the tmr peripheral.
 192:/home/y/github/EmbeddedSoftwareMCU/Libraries/AT32/drivers/src/at32f403a_407_tmr.c ****   *         this parameter can be one of the following values:
 193:/home/y/github/EmbeddedSoftwareMCU/Libraries/AT32/drivers/src/at32f403a_407_tmr.c ****   *         TMR1, TMR2, TMR3, TMR4, TMR5, TMR6, TMR7, TMR8,
 194:/home/y/github/EmbeddedSoftwareMCU/Libraries/AT32/drivers/src/at32f403a_407_tmr.c ****   *         TMR9, TMR10, TMR11, TMR12, TMR13, TMR14
 195:/home/y/github/EmbeddedSoftwareMCU/Libraries/AT32/drivers/src/at32f403a_407_tmr.c ****   * @param  tmr_pr (for 16 bit tmr 0x0000~0xFFFF,
 196:/home/y/github/EmbeddedSoftwareMCU/Libraries/AT32/drivers/src/at32f403a_407_tmr.c ****   *                  for 32 bit tmr 0x0000_0000~0xFFFF_FFFF)
 197:/home/y/github/EmbeddedSoftwareMCU/Libraries/AT32/drivers/src/at32f403a_407_tmr.c ****   * @param  tmr_div (timer div value:0x0000~0xFFFF)
 198:/home/y/github/EmbeddedSoftwareMCU/Libraries/AT32/drivers/src/at32f403a_407_tmr.c ****   * @retval none
 199:/home/y/github/EmbeddedSoftwareMCU/Libraries/AT32/drivers/src/at32f403a_407_tmr.c ****   */
 200:/home/y/github/EmbeddedSoftwareMCU/Libraries/AT32/drivers/src/at32f403a_407_tmr.c **** void tmr_base_init(tmr_type* tmr_x, uint32_t tmr_pr, uint32_t tmr_div)
ARM GAS  /tmp/ccPqktXd.s 			page 13


 201:/home/y/github/EmbeddedSoftwareMCU/Libraries/AT32/drivers/src/at32f403a_407_tmr.c **** {
 470              		.loc 1 201 0
 471              		.cfi_startproc
 472              		@ args = 0, pretend = 0, frame = 0
 473              		@ frame_needed = 0, uses_anonymous_args = 0
 474              		@ link register save eliminated.
 475              	.LVL62:
 202:/home/y/github/EmbeddedSoftwareMCU/Libraries/AT32/drivers/src/at32f403a_407_tmr.c ****   /* set the pr value */
 203:/home/y/github/EmbeddedSoftwareMCU/Libraries/AT32/drivers/src/at32f403a_407_tmr.c ****   tmr_x->pr = tmr_pr;
 476              		.loc 1 203 0
 477 0000 C162     		str	r1, [r0, #44]
 204:/home/y/github/EmbeddedSoftwareMCU/Libraries/AT32/drivers/src/at32f403a_407_tmr.c **** 
 205:/home/y/github/EmbeddedSoftwareMCU/Libraries/AT32/drivers/src/at32f403a_407_tmr.c ****   /* set the div value */
 206:/home/y/github/EmbeddedSoftwareMCU/Libraries/AT32/drivers/src/at32f403a_407_tmr.c ****   tmr_x->div = tmr_div;
 478              		.loc 1 206 0
 479 0002 8262     		str	r2, [r0, #40]
 207:/home/y/github/EmbeddedSoftwareMCU/Libraries/AT32/drivers/src/at32f403a_407_tmr.c **** 
 208:/home/y/github/EmbeddedSoftwareMCU/Libraries/AT32/drivers/src/at32f403a_407_tmr.c ****   /* trigger the overflow event to immediately reload pr value and div value */
 209:/home/y/github/EmbeddedSoftwareMCU/Libraries/AT32/drivers/src/at32f403a_407_tmr.c ****   tmr_x->swevt_bit.ovfswtr = TRUE;
 480              		.loc 1 209 0
 481 0004 4369     		ldr	r3, [r0, #20]
 482 0006 43F00103 		orr	r3, r3, #1
 483 000a 4361     		str	r3, [r0, #20]
 484 000c 7047     		bx	lr
 485              		.cfi_endproc
 486              	.LFE138:
 488              		.section	.text.tmr_clock_source_div_set,"ax",%progbits
 489              		.align	1
 490              		.global	tmr_clock_source_div_set
 491              		.syntax unified
 492              		.thumb
 493              		.thumb_func
 494              		.fpu softvfp
 496              	tmr_clock_source_div_set:
 497              	.LFB139:
 210:/home/y/github/EmbeddedSoftwareMCU/Libraries/AT32/drivers/src/at32f403a_407_tmr.c **** }
 211:/home/y/github/EmbeddedSoftwareMCU/Libraries/AT32/drivers/src/at32f403a_407_tmr.c **** 
 212:/home/y/github/EmbeddedSoftwareMCU/Libraries/AT32/drivers/src/at32f403a_407_tmr.c **** /**
 213:/home/y/github/EmbeddedSoftwareMCU/Libraries/AT32/drivers/src/at32f403a_407_tmr.c ****   * @brief  set tmr clock source division
 214:/home/y/github/EmbeddedSoftwareMCU/Libraries/AT32/drivers/src/at32f403a_407_tmr.c ****   * @param  tmr_x: select the tmr peripheral.
 215:/home/y/github/EmbeddedSoftwareMCU/Libraries/AT32/drivers/src/at32f403a_407_tmr.c ****   *         this parameter can be one of the following values:
 216:/home/y/github/EmbeddedSoftwareMCU/Libraries/AT32/drivers/src/at32f403a_407_tmr.c ****   *         TMR1, TMR2, TMR3, TMR4, TMR5, TMR8, TMR9, TMR10,
 217:/home/y/github/EmbeddedSoftwareMCU/Libraries/AT32/drivers/src/at32f403a_407_tmr.c ****   *         TMR11, TMR12, TMR13, TMR14
 218:/home/y/github/EmbeddedSoftwareMCU/Libraries/AT32/drivers/src/at32f403a_407_tmr.c ****   * @param  tmr_clock_div
 219:/home/y/github/EmbeddedSoftwareMCU/Libraries/AT32/drivers/src/at32f403a_407_tmr.c ****   *         this parameter can be one of the following values:
 220:/home/y/github/EmbeddedSoftwareMCU/Libraries/AT32/drivers/src/at32f403a_407_tmr.c ****   *         - TMR_CLOCK_DIV1
 221:/home/y/github/EmbeddedSoftwareMCU/Libraries/AT32/drivers/src/at32f403a_407_tmr.c ****   *         - TMR_CLOCK_DIV2
 222:/home/y/github/EmbeddedSoftwareMCU/Libraries/AT32/drivers/src/at32f403a_407_tmr.c ****   *         - TMR_CLOCK_DIV4
 223:/home/y/github/EmbeddedSoftwareMCU/Libraries/AT32/drivers/src/at32f403a_407_tmr.c ****   * @retval none
 224:/home/y/github/EmbeddedSoftwareMCU/Libraries/AT32/drivers/src/at32f403a_407_tmr.c ****   */
 225:/home/y/github/EmbeddedSoftwareMCU/Libraries/AT32/drivers/src/at32f403a_407_tmr.c **** void tmr_clock_source_div_set(tmr_type *tmr_x, tmr_clock_division_type tmr_clock_div)
 226:/home/y/github/EmbeddedSoftwareMCU/Libraries/AT32/drivers/src/at32f403a_407_tmr.c **** {
 498              		.loc 1 226 0
 499              		.cfi_startproc
 500              		@ args = 0, pretend = 0, frame = 0
 501              		@ frame_needed = 0, uses_anonymous_args = 0
 502              		@ link register save eliminated.
ARM GAS  /tmp/ccPqktXd.s 			page 14


 503              	.LVL63:
 227:/home/y/github/EmbeddedSoftwareMCU/Libraries/AT32/drivers/src/at32f403a_407_tmr.c ****   /* set tmr clock source division */
 228:/home/y/github/EmbeddedSoftwareMCU/Libraries/AT32/drivers/src/at32f403a_407_tmr.c ****   tmr_x->ctrl1_bit.clkdiv = tmr_clock_div;
 504              		.loc 1 228 0
 505 0000 0368     		ldr	r3, [r0]
 506 0002 61F30923 		bfi	r3, r1, #8, #2
 507 0006 0360     		str	r3, [r0]
 508 0008 7047     		bx	lr
 509              		.cfi_endproc
 510              	.LFE139:
 512              		.section	.text.tmr_cnt_dir_set,"ax",%progbits
 513              		.align	1
 514              		.global	tmr_cnt_dir_set
 515              		.syntax unified
 516              		.thumb
 517              		.thumb_func
 518              		.fpu softvfp
 520              	tmr_cnt_dir_set:
 521              	.LFB140:
 229:/home/y/github/EmbeddedSoftwareMCU/Libraries/AT32/drivers/src/at32f403a_407_tmr.c **** }
 230:/home/y/github/EmbeddedSoftwareMCU/Libraries/AT32/drivers/src/at32f403a_407_tmr.c **** 
 231:/home/y/github/EmbeddedSoftwareMCU/Libraries/AT32/drivers/src/at32f403a_407_tmr.c **** /**
 232:/home/y/github/EmbeddedSoftwareMCU/Libraries/AT32/drivers/src/at32f403a_407_tmr.c ****   * @brief  set tmr counter count direction
 233:/home/y/github/EmbeddedSoftwareMCU/Libraries/AT32/drivers/src/at32f403a_407_tmr.c ****   * @param  tmr_x: select the tmr peripheral.
 234:/home/y/github/EmbeddedSoftwareMCU/Libraries/AT32/drivers/src/at32f403a_407_tmr.c ****   *         this parameter can be one of the following values:
 235:/home/y/github/EmbeddedSoftwareMCU/Libraries/AT32/drivers/src/at32f403a_407_tmr.c ****   *         TMR1, TMR2, TMR3, TMR4, TMR5, TMR8, TMR9, TMR10,
 236:/home/y/github/EmbeddedSoftwareMCU/Libraries/AT32/drivers/src/at32f403a_407_tmr.c ****   *         TMR11, TMR12, TMR13, TMR14
 237:/home/y/github/EmbeddedSoftwareMCU/Libraries/AT32/drivers/src/at32f403a_407_tmr.c ****   * @param  tmr_cnt_dir
 238:/home/y/github/EmbeddedSoftwareMCU/Libraries/AT32/drivers/src/at32f403a_407_tmr.c ****   *         this parameter can be one of the following values:
 239:/home/y/github/EmbeddedSoftwareMCU/Libraries/AT32/drivers/src/at32f403a_407_tmr.c ****   *         - TMR_COUNT_UP
 240:/home/y/github/EmbeddedSoftwareMCU/Libraries/AT32/drivers/src/at32f403a_407_tmr.c ****   *         - TMR_COUNT_DOWN
 241:/home/y/github/EmbeddedSoftwareMCU/Libraries/AT32/drivers/src/at32f403a_407_tmr.c ****   *         - TMR_COUNT_TWO_WAY_1
 242:/home/y/github/EmbeddedSoftwareMCU/Libraries/AT32/drivers/src/at32f403a_407_tmr.c ****   *         - TMR_COUNT_TWO_WAY_2
 243:/home/y/github/EmbeddedSoftwareMCU/Libraries/AT32/drivers/src/at32f403a_407_tmr.c ****   *         - TMR_COUNT_TWO_WAY_3
 244:/home/y/github/EmbeddedSoftwareMCU/Libraries/AT32/drivers/src/at32f403a_407_tmr.c ****   * @retval none
 245:/home/y/github/EmbeddedSoftwareMCU/Libraries/AT32/drivers/src/at32f403a_407_tmr.c ****   */
 246:/home/y/github/EmbeddedSoftwareMCU/Libraries/AT32/drivers/src/at32f403a_407_tmr.c **** void tmr_cnt_dir_set(tmr_type *tmr_x, tmr_count_mode_type tmr_cnt_dir)
 247:/home/y/github/EmbeddedSoftwareMCU/Libraries/AT32/drivers/src/at32f403a_407_tmr.c **** {
 522              		.loc 1 247 0
 523              		.cfi_startproc
 524              		@ args = 0, pretend = 0, frame = 0
 525              		@ frame_needed = 0, uses_anonymous_args = 0
 526              		@ link register save eliminated.
 527              	.LVL64:
 248:/home/y/github/EmbeddedSoftwareMCU/Libraries/AT32/drivers/src/at32f403a_407_tmr.c ****   /* set the cnt direct */
 249:/home/y/github/EmbeddedSoftwareMCU/Libraries/AT32/drivers/src/at32f403a_407_tmr.c ****   tmr_x->ctrl1_bit.cnt_dir = tmr_cnt_dir;
 528              		.loc 1 249 0
 529 0000 0368     		ldr	r3, [r0]
 530 0002 61F30613 		bfi	r3, r1, #4, #3
 531 0006 0360     		str	r3, [r0]
 532 0008 7047     		bx	lr
 533              		.cfi_endproc
 534              	.LFE140:
 536              		.section	.text.tmr_repetition_counter_set,"ax",%progbits
 537              		.align	1
 538              		.global	tmr_repetition_counter_set
 539              		.syntax unified
ARM GAS  /tmp/ccPqktXd.s 			page 15


 540              		.thumb
 541              		.thumb_func
 542              		.fpu softvfp
 544              	tmr_repetition_counter_set:
 545              	.LFB141:
 250:/home/y/github/EmbeddedSoftwareMCU/Libraries/AT32/drivers/src/at32f403a_407_tmr.c **** }
 251:/home/y/github/EmbeddedSoftwareMCU/Libraries/AT32/drivers/src/at32f403a_407_tmr.c **** 
 252:/home/y/github/EmbeddedSoftwareMCU/Libraries/AT32/drivers/src/at32f403a_407_tmr.c **** /**
 253:/home/y/github/EmbeddedSoftwareMCU/Libraries/AT32/drivers/src/at32f403a_407_tmr.c ****   * @brief  set the repetition counter register(rpr) value
 254:/home/y/github/EmbeddedSoftwareMCU/Libraries/AT32/drivers/src/at32f403a_407_tmr.c ****   * @param  tmr_x: select the tmr peripheral.
 255:/home/y/github/EmbeddedSoftwareMCU/Libraries/AT32/drivers/src/at32f403a_407_tmr.c ****   *         this parameter can be one of the following values:
 256:/home/y/github/EmbeddedSoftwareMCU/Libraries/AT32/drivers/src/at32f403a_407_tmr.c ****   *         TMR1, TMR8
 257:/home/y/github/EmbeddedSoftwareMCU/Libraries/AT32/drivers/src/at32f403a_407_tmr.c ****   * @param  tmr_rpr_value (0x00~0xFF)
 258:/home/y/github/EmbeddedSoftwareMCU/Libraries/AT32/drivers/src/at32f403a_407_tmr.c ****   * @retval none
 259:/home/y/github/EmbeddedSoftwareMCU/Libraries/AT32/drivers/src/at32f403a_407_tmr.c ****   */
 260:/home/y/github/EmbeddedSoftwareMCU/Libraries/AT32/drivers/src/at32f403a_407_tmr.c **** void tmr_repetition_counter_set(tmr_type *tmr_x, uint8_t tmr_rpr_value)
 261:/home/y/github/EmbeddedSoftwareMCU/Libraries/AT32/drivers/src/at32f403a_407_tmr.c **** {
 546              		.loc 1 261 0
 547              		.cfi_startproc
 548              		@ args = 0, pretend = 0, frame = 0
 549              		@ frame_needed = 0, uses_anonymous_args = 0
 550              		@ link register save eliminated.
 551              	.LVL65:
 262:/home/y/github/EmbeddedSoftwareMCU/Libraries/AT32/drivers/src/at32f403a_407_tmr.c ****   /* set the repetition counter value */
 263:/home/y/github/EmbeddedSoftwareMCU/Libraries/AT32/drivers/src/at32f403a_407_tmr.c ****   if((tmr_x == TMR1) || (tmr_x == TMR8))
 552              		.loc 1 263 0
 553 0000 064B     		ldr	r3, .L43
 554 0002 9842     		cmp	r0, r3
 555 0004 04D0     		beq	.L41
 556              		.loc 1 263 0 is_stmt 0 discriminator 1
 557 0006 03F50063 		add	r3, r3, #2048
 558 000a 9842     		cmp	r0, r3
 559 000c 00D0     		beq	.L41
 560              	.LVL66:
 561              	.L40:
 562 000e 7047     		bx	lr
 563              	.LVL67:
 564              	.L41:
 264:/home/y/github/EmbeddedSoftwareMCU/Libraries/AT32/drivers/src/at32f403a_407_tmr.c **** 
 265:/home/y/github/EmbeddedSoftwareMCU/Libraries/AT32/drivers/src/at32f403a_407_tmr.c ****   {
 266:/home/y/github/EmbeddedSoftwareMCU/Libraries/AT32/drivers/src/at32f403a_407_tmr.c ****     tmr_x->rpr_bit.rpr = tmr_rpr_value;
 565              		.loc 1 266 0 is_stmt 1
 566 0010 036B     		ldr	r3, [r0, #48]
 567              	.LVL68:
 568 0012 61F30703 		bfi	r3, r1, #0, #8
 569 0016 0363     		str	r3, [r0, #48]
 267:/home/y/github/EmbeddedSoftwareMCU/Libraries/AT32/drivers/src/at32f403a_407_tmr.c ****   }
 268:/home/y/github/EmbeddedSoftwareMCU/Libraries/AT32/drivers/src/at32f403a_407_tmr.c **** }
 570              		.loc 1 268 0
 571 0018 F9E7     		b	.L40
 572              	.L44:
 573 001a 00BF     		.align	2
 574              	.L43:
 575 001c 002C0140 		.word	1073818624
 576              		.cfi_endproc
 577              	.LFE141:
 579              		.section	.text.tmr_counter_value_set,"ax",%progbits
ARM GAS  /tmp/ccPqktXd.s 			page 16


 580              		.align	1
 581              		.global	tmr_counter_value_set
 582              		.syntax unified
 583              		.thumb
 584              		.thumb_func
 585              		.fpu softvfp
 587              	tmr_counter_value_set:
 588              	.LFB142:
 269:/home/y/github/EmbeddedSoftwareMCU/Libraries/AT32/drivers/src/at32f403a_407_tmr.c **** 
 270:/home/y/github/EmbeddedSoftwareMCU/Libraries/AT32/drivers/src/at32f403a_407_tmr.c **** /**
 271:/home/y/github/EmbeddedSoftwareMCU/Libraries/AT32/drivers/src/at32f403a_407_tmr.c ****   * @brief  set tmr counter value
 272:/home/y/github/EmbeddedSoftwareMCU/Libraries/AT32/drivers/src/at32f403a_407_tmr.c ****   * @param  tmr_x: select the tmr peripheral.
 273:/home/y/github/EmbeddedSoftwareMCU/Libraries/AT32/drivers/src/at32f403a_407_tmr.c ****   *         this parameter can be one of the following values:
 274:/home/y/github/EmbeddedSoftwareMCU/Libraries/AT32/drivers/src/at32f403a_407_tmr.c ****   *         TMR1, TMR2, TMR3, TMR4, TMR5, TMR6, TMR7, TMR8,
 275:/home/y/github/EmbeddedSoftwareMCU/Libraries/AT32/drivers/src/at32f403a_407_tmr.c ****   *         TMR9, TMR10, TMR11, TMR12, TMR13, TMR14
 276:/home/y/github/EmbeddedSoftwareMCU/Libraries/AT32/drivers/src/at32f403a_407_tmr.c ****   * @param  tmr_cnt_value (for 16 bit tmr 0x0000~0xFFFF,
 277:/home/y/github/EmbeddedSoftwareMCU/Libraries/AT32/drivers/src/at32f403a_407_tmr.c ****   *                        for 32 bit tmr 0x0000_0000~0xFFFF_FFFF)
 278:/home/y/github/EmbeddedSoftwareMCU/Libraries/AT32/drivers/src/at32f403a_407_tmr.c ****   * @retval none
 279:/home/y/github/EmbeddedSoftwareMCU/Libraries/AT32/drivers/src/at32f403a_407_tmr.c ****   */
 280:/home/y/github/EmbeddedSoftwareMCU/Libraries/AT32/drivers/src/at32f403a_407_tmr.c **** void tmr_counter_value_set(tmr_type *tmr_x, uint32_t tmr_cnt_value)
 281:/home/y/github/EmbeddedSoftwareMCU/Libraries/AT32/drivers/src/at32f403a_407_tmr.c **** {
 589              		.loc 1 281 0
 590              		.cfi_startproc
 591              		@ args = 0, pretend = 0, frame = 0
 592              		@ frame_needed = 0, uses_anonymous_args = 0
 593              		@ link register save eliminated.
 594              	.LVL69:
 282:/home/y/github/EmbeddedSoftwareMCU/Libraries/AT32/drivers/src/at32f403a_407_tmr.c ****   /* set the tmr counter value */
 283:/home/y/github/EmbeddedSoftwareMCU/Libraries/AT32/drivers/src/at32f403a_407_tmr.c ****   tmr_x->cval = tmr_cnt_value;
 595              		.loc 1 283 0
 596 0000 4162     		str	r1, [r0, #36]
 597 0002 7047     		bx	lr
 598              		.cfi_endproc
 599              	.LFE142:
 601              		.section	.text.tmr_counter_value_get,"ax",%progbits
 602              		.align	1
 603              		.global	tmr_counter_value_get
 604              		.syntax unified
 605              		.thumb
 606              		.thumb_func
 607              		.fpu softvfp
 609              	tmr_counter_value_get:
 610              	.LFB143:
 284:/home/y/github/EmbeddedSoftwareMCU/Libraries/AT32/drivers/src/at32f403a_407_tmr.c **** }
 285:/home/y/github/EmbeddedSoftwareMCU/Libraries/AT32/drivers/src/at32f403a_407_tmr.c **** 
 286:/home/y/github/EmbeddedSoftwareMCU/Libraries/AT32/drivers/src/at32f403a_407_tmr.c **** /**
 287:/home/y/github/EmbeddedSoftwareMCU/Libraries/AT32/drivers/src/at32f403a_407_tmr.c ****   * @brief  get tmr counter value
 288:/home/y/github/EmbeddedSoftwareMCU/Libraries/AT32/drivers/src/at32f403a_407_tmr.c ****   * @param  tmr_x: select the tmr peripheral.
 289:/home/y/github/EmbeddedSoftwareMCU/Libraries/AT32/drivers/src/at32f403a_407_tmr.c ****   *         this parameter can be one of the following values:
 290:/home/y/github/EmbeddedSoftwareMCU/Libraries/AT32/drivers/src/at32f403a_407_tmr.c ****   *         TMR1, TMR2, TMR3, TMR4, TMR5, TMR6, TMR7, TMR8,
 291:/home/y/github/EmbeddedSoftwareMCU/Libraries/AT32/drivers/src/at32f403a_407_tmr.c ****   *         TMR9, TMR10, TMR11, TMR12, TMR13, TMR14
 292:/home/y/github/EmbeddedSoftwareMCU/Libraries/AT32/drivers/src/at32f403a_407_tmr.c ****   * @retval tmr counter value
 293:/home/y/github/EmbeddedSoftwareMCU/Libraries/AT32/drivers/src/at32f403a_407_tmr.c ****   */
 294:/home/y/github/EmbeddedSoftwareMCU/Libraries/AT32/drivers/src/at32f403a_407_tmr.c **** uint32_t tmr_counter_value_get(tmr_type *tmr_x)
 295:/home/y/github/EmbeddedSoftwareMCU/Libraries/AT32/drivers/src/at32f403a_407_tmr.c **** {
 611              		.loc 1 295 0
 612              		.cfi_startproc
ARM GAS  /tmp/ccPqktXd.s 			page 17


 613              		@ args = 0, pretend = 0, frame = 0
 614              		@ frame_needed = 0, uses_anonymous_args = 0
 615              		@ link register save eliminated.
 616              	.LVL70:
 296:/home/y/github/EmbeddedSoftwareMCU/Libraries/AT32/drivers/src/at32f403a_407_tmr.c ****   return tmr_x->cval;
 617              		.loc 1 296 0
 618 0000 406A     		ldr	r0, [r0, #36]
 619              	.LVL71:
 297:/home/y/github/EmbeddedSoftwareMCU/Libraries/AT32/drivers/src/at32f403a_407_tmr.c **** }
 620              		.loc 1 297 0
 621 0002 7047     		bx	lr
 622              		.cfi_endproc
 623              	.LFE143:
 625              		.section	.text.tmr_div_value_set,"ax",%progbits
 626              		.align	1
 627              		.global	tmr_div_value_set
 628              		.syntax unified
 629              		.thumb
 630              		.thumb_func
 631              		.fpu softvfp
 633              	tmr_div_value_set:
 634              	.LFB144:
 298:/home/y/github/EmbeddedSoftwareMCU/Libraries/AT32/drivers/src/at32f403a_407_tmr.c **** 
 299:/home/y/github/EmbeddedSoftwareMCU/Libraries/AT32/drivers/src/at32f403a_407_tmr.c **** /**
 300:/home/y/github/EmbeddedSoftwareMCU/Libraries/AT32/drivers/src/at32f403a_407_tmr.c ****   * @brief  set tmr div value
 301:/home/y/github/EmbeddedSoftwareMCU/Libraries/AT32/drivers/src/at32f403a_407_tmr.c ****   * @param  tmr_x: select the tmr peripheral.
 302:/home/y/github/EmbeddedSoftwareMCU/Libraries/AT32/drivers/src/at32f403a_407_tmr.c ****   *         this parameter can be one of the following values:
 303:/home/y/github/EmbeddedSoftwareMCU/Libraries/AT32/drivers/src/at32f403a_407_tmr.c ****   *         TMR1, TMR2, TMR3, TMR4, TMR5, TMR6, TMR7, TMR8,
 304:/home/y/github/EmbeddedSoftwareMCU/Libraries/AT32/drivers/src/at32f403a_407_tmr.c ****   *         TMR9, TMR10, TMR11, TMR12, TMR13, TMR14
 305:/home/y/github/EmbeddedSoftwareMCU/Libraries/AT32/drivers/src/at32f403a_407_tmr.c ****   * @param  tmr_div_value (for 16 bit tmr 0x0000~0xFFFF,
 306:/home/y/github/EmbeddedSoftwareMCU/Libraries/AT32/drivers/src/at32f403a_407_tmr.c ****   *                        for 32 bit tmr 0x0000_0000~0xFFFF_FFFF)
 307:/home/y/github/EmbeddedSoftwareMCU/Libraries/AT32/drivers/src/at32f403a_407_tmr.c ****   * @retval none
 308:/home/y/github/EmbeddedSoftwareMCU/Libraries/AT32/drivers/src/at32f403a_407_tmr.c ****   */
 309:/home/y/github/EmbeddedSoftwareMCU/Libraries/AT32/drivers/src/at32f403a_407_tmr.c **** void tmr_div_value_set(tmr_type *tmr_x, uint32_t tmr_div_value)
 310:/home/y/github/EmbeddedSoftwareMCU/Libraries/AT32/drivers/src/at32f403a_407_tmr.c **** {
 635              		.loc 1 310 0
 636              		.cfi_startproc
 637              		@ args = 0, pretend = 0, frame = 0
 638              		@ frame_needed = 0, uses_anonymous_args = 0
 639              		@ link register save eliminated.
 640              	.LVL72:
 311:/home/y/github/EmbeddedSoftwareMCU/Libraries/AT32/drivers/src/at32f403a_407_tmr.c ****   /* set the tmr div value */
 312:/home/y/github/EmbeddedSoftwareMCU/Libraries/AT32/drivers/src/at32f403a_407_tmr.c ****   tmr_x->div = tmr_div_value;
 641              		.loc 1 312 0
 642 0000 8162     		str	r1, [r0, #40]
 643 0002 7047     		bx	lr
 644              		.cfi_endproc
 645              	.LFE144:
 647              		.section	.text.tmr_div_value_get,"ax",%progbits
 648              		.align	1
 649              		.global	tmr_div_value_get
 650              		.syntax unified
 651              		.thumb
 652              		.thumb_func
 653              		.fpu softvfp
 655              	tmr_div_value_get:
 656              	.LFB145:
ARM GAS  /tmp/ccPqktXd.s 			page 18


 313:/home/y/github/EmbeddedSoftwareMCU/Libraries/AT32/drivers/src/at32f403a_407_tmr.c **** }
 314:/home/y/github/EmbeddedSoftwareMCU/Libraries/AT32/drivers/src/at32f403a_407_tmr.c **** 
 315:/home/y/github/EmbeddedSoftwareMCU/Libraries/AT32/drivers/src/at32f403a_407_tmr.c **** /**
 316:/home/y/github/EmbeddedSoftwareMCU/Libraries/AT32/drivers/src/at32f403a_407_tmr.c ****   * @brief  get tmr div value
 317:/home/y/github/EmbeddedSoftwareMCU/Libraries/AT32/drivers/src/at32f403a_407_tmr.c ****   * @param  tmr_x: select the tmr peripheral.
 318:/home/y/github/EmbeddedSoftwareMCU/Libraries/AT32/drivers/src/at32f403a_407_tmr.c ****   *         this parameter can be one of the following values:
 319:/home/y/github/EmbeddedSoftwareMCU/Libraries/AT32/drivers/src/at32f403a_407_tmr.c ****   *         TMR1, TMR2, TMR3, TMR4, TMR5, TMR6, TMR7, TMR8,
 320:/home/y/github/EmbeddedSoftwareMCU/Libraries/AT32/drivers/src/at32f403a_407_tmr.c ****   *         TMR9, TMR10, TMR11, TMR12, TMR13, TMR14
 321:/home/y/github/EmbeddedSoftwareMCU/Libraries/AT32/drivers/src/at32f403a_407_tmr.c ****   * @retval tmr div value
 322:/home/y/github/EmbeddedSoftwareMCU/Libraries/AT32/drivers/src/at32f403a_407_tmr.c ****   */
 323:/home/y/github/EmbeddedSoftwareMCU/Libraries/AT32/drivers/src/at32f403a_407_tmr.c **** uint32_t tmr_div_value_get(tmr_type *tmr_x)
 324:/home/y/github/EmbeddedSoftwareMCU/Libraries/AT32/drivers/src/at32f403a_407_tmr.c **** {
 657              		.loc 1 324 0
 658              		.cfi_startproc
 659              		@ args = 0, pretend = 0, frame = 0
 660              		@ frame_needed = 0, uses_anonymous_args = 0
 661              		@ link register save eliminated.
 662              	.LVL73:
 325:/home/y/github/EmbeddedSoftwareMCU/Libraries/AT32/drivers/src/at32f403a_407_tmr.c ****   return tmr_x->div;
 663              		.loc 1 325 0
 664 0000 806A     		ldr	r0, [r0, #40]
 665              	.LVL74:
 326:/home/y/github/EmbeddedSoftwareMCU/Libraries/AT32/drivers/src/at32f403a_407_tmr.c **** }
 666              		.loc 1 326 0
 667 0002 7047     		bx	lr
 668              		.cfi_endproc
 669              	.LFE145:
 671              		.section	.text.tmr_output_channel_config,"ax",%progbits
 672              		.align	1
 673              		.global	tmr_output_channel_config
 674              		.syntax unified
 675              		.thumb
 676              		.thumb_func
 677              		.fpu softvfp
 679              	tmr_output_channel_config:
 680              	.LFB146:
 327:/home/y/github/EmbeddedSoftwareMCU/Libraries/AT32/drivers/src/at32f403a_407_tmr.c **** 
 328:/home/y/github/EmbeddedSoftwareMCU/Libraries/AT32/drivers/src/at32f403a_407_tmr.c **** /**
 329:/home/y/github/EmbeddedSoftwareMCU/Libraries/AT32/drivers/src/at32f403a_407_tmr.c ****   * @brief  config tmr output channel
 330:/home/y/github/EmbeddedSoftwareMCU/Libraries/AT32/drivers/src/at32f403a_407_tmr.c ****   * @param  tmr_x: select the tmr peripheral.
 331:/home/y/github/EmbeddedSoftwareMCU/Libraries/AT32/drivers/src/at32f403a_407_tmr.c ****   *         this parameter can be one of the following values:
 332:/home/y/github/EmbeddedSoftwareMCU/Libraries/AT32/drivers/src/at32f403a_407_tmr.c ****   *         TMR1, TMR2, TMR3, TMR4, TMR5, TMR8, TMR9, TMR10,
 333:/home/y/github/EmbeddedSoftwareMCU/Libraries/AT32/drivers/src/at32f403a_407_tmr.c ****   *         TMR11, TMR12, TMR13, TMR14
 334:/home/y/github/EmbeddedSoftwareMCU/Libraries/AT32/drivers/src/at32f403a_407_tmr.c ****   * @param  tmr_channel
 335:/home/y/github/EmbeddedSoftwareMCU/Libraries/AT32/drivers/src/at32f403a_407_tmr.c ****   *         this parameter can be one of the following values:
 336:/home/y/github/EmbeddedSoftwareMCU/Libraries/AT32/drivers/src/at32f403a_407_tmr.c ****   *         - TMR_SELECT_CHANNEL_1
 337:/home/y/github/EmbeddedSoftwareMCU/Libraries/AT32/drivers/src/at32f403a_407_tmr.c ****   *         - TMR_SELECT_CHANNEL_2
 338:/home/y/github/EmbeddedSoftwareMCU/Libraries/AT32/drivers/src/at32f403a_407_tmr.c ****   *         - TMR_SELECT_CHANNEL_3
 339:/home/y/github/EmbeddedSoftwareMCU/Libraries/AT32/drivers/src/at32f403a_407_tmr.c ****   *         - TMR_SELECT_CHANNEL_4
 340:/home/y/github/EmbeddedSoftwareMCU/Libraries/AT32/drivers/src/at32f403a_407_tmr.c ****   * @param  tmr_output_struct
 341:/home/y/github/EmbeddedSoftwareMCU/Libraries/AT32/drivers/src/at32f403a_407_tmr.c ****   *         - to the structure of tmr_output_config_type
 342:/home/y/github/EmbeddedSoftwareMCU/Libraries/AT32/drivers/src/at32f403a_407_tmr.c ****   * @retval none
 343:/home/y/github/EmbeddedSoftwareMCU/Libraries/AT32/drivers/src/at32f403a_407_tmr.c ****   */
 344:/home/y/github/EmbeddedSoftwareMCU/Libraries/AT32/drivers/src/at32f403a_407_tmr.c **** void tmr_output_channel_config(tmr_type *tmr_x, tmr_channel_select_type tmr_channel,
 345:/home/y/github/EmbeddedSoftwareMCU/Libraries/AT32/drivers/src/at32f403a_407_tmr.c ****                                tmr_output_config_type *tmr_output_struct)
 346:/home/y/github/EmbeddedSoftwareMCU/Libraries/AT32/drivers/src/at32f403a_407_tmr.c **** {
 681              		.loc 1 346 0
ARM GAS  /tmp/ccPqktXd.s 			page 19


 682              		.cfi_startproc
 683              		@ args = 0, pretend = 0, frame = 0
 684              		@ frame_needed = 0, uses_anonymous_args = 0
 685              		@ link register save eliminated.
 686              	.LVL75:
 687 0000 70B4     		push	{r4, r5, r6}
 688              	.LCFI1:
 689              		.cfi_def_cfa_offset 12
 690              		.cfi_offset 4, -12
 691              		.cfi_offset 5, -8
 692              		.cfi_offset 6, -4
 693              	.LVL76:
 347:/home/y/github/EmbeddedSoftwareMCU/Libraries/AT32/drivers/src/at32f403a_407_tmr.c ****   uint16_t channel_index = 0, channel_c_index = 0, channel = 0;
 348:/home/y/github/EmbeddedSoftwareMCU/Libraries/AT32/drivers/src/at32f403a_407_tmr.c **** 
 349:/home/y/github/EmbeddedSoftwareMCU/Libraries/AT32/drivers/src/at32f403a_407_tmr.c ****   /* get channel idle state bit position in ctrl2 register */
 350:/home/y/github/EmbeddedSoftwareMCU/Libraries/AT32/drivers/src/at32f403a_407_tmr.c ****   channel_index = (uint16_t)(tmr_output_struct->oc_idle_state << (8 + tmr_channel));
 694              		.loc 1 350 0
 695 0002 5478     		ldrb	r4, [r2, #1]	@ zero_extendqisi2
 696 0004 01F10803 		add	r3, r1, #8
 697 0008 04FA03F3 		lsl	r3, r4, r3
 698              	.LVL77:
 351:/home/y/github/EmbeddedSoftwareMCU/Libraries/AT32/drivers/src/at32f403a_407_tmr.c **** 
 352:/home/y/github/EmbeddedSoftwareMCU/Libraries/AT32/drivers/src/at32f403a_407_tmr.c ****   /* get channel complementary idle state bit position in ctrl2 register */
 353:/home/y/github/EmbeddedSoftwareMCU/Libraries/AT32/drivers/src/at32f403a_407_tmr.c ****   channel_c_index = (uint16_t)(tmr_output_struct->occ_idle_state << (9 + tmr_channel));
 699              		.loc 1 353 0
 700 000c 9478     		ldrb	r4, [r2, #2]	@ zero_extendqisi2
 701 000e 01F10905 		add	r5, r1, #9
 702 0012 AC40     		lsls	r4, r4, r5
 703              	.LVL78:
 354:/home/y/github/EmbeddedSoftwareMCU/Libraries/AT32/drivers/src/at32f403a_407_tmr.c **** 
 355:/home/y/github/EmbeddedSoftwareMCU/Libraries/AT32/drivers/src/at32f403a_407_tmr.c ****   if((tmr_x == TMR1) || (tmr_x == TMR8))
 704              		.loc 1 355 0
 705 0014 364D     		ldr	r5, .L63
 706 0016 A842     		cmp	r0, r5
 707 0018 13D0     		beq	.L50
 708              		.loc 1 355 0 is_stmt 0 discriminator 1
 709 001a 05F50065 		add	r5, r5, #2048
 710 001e A842     		cmp	r0, r5
 711 0020 0FD0     		beq	.L50
 712              	.LVL79:
 713              	.L51:
 356:/home/y/github/EmbeddedSoftwareMCU/Libraries/AT32/drivers/src/at32f403a_407_tmr.c ****   {
 357:/home/y/github/EmbeddedSoftwareMCU/Libraries/AT32/drivers/src/at32f403a_407_tmr.c ****     /* set output channel complementary idle state */
 358:/home/y/github/EmbeddedSoftwareMCU/Libraries/AT32/drivers/src/at32f403a_407_tmr.c ****     tmr_x->ctrl2 &= ~channel_c_index;
 359:/home/y/github/EmbeddedSoftwareMCU/Libraries/AT32/drivers/src/at32f403a_407_tmr.c ****     tmr_x->ctrl2 |= channel_c_index;
 360:/home/y/github/EmbeddedSoftwareMCU/Libraries/AT32/drivers/src/at32f403a_407_tmr.c ****   }
 361:/home/y/github/EmbeddedSoftwareMCU/Libraries/AT32/drivers/src/at32f403a_407_tmr.c **** 
 362:/home/y/github/EmbeddedSoftwareMCU/Libraries/AT32/drivers/src/at32f403a_407_tmr.c ****   /* set output channel idle state */
 363:/home/y/github/EmbeddedSoftwareMCU/Libraries/AT32/drivers/src/at32f403a_407_tmr.c ****   tmr_x->ctrl2 &= ~channel_index;
 714              		.loc 1 363 0 is_stmt 1
 715 0022 4468     		ldr	r4, [r0, #4]
 716 0024 9BB2     		uxth	r3, r3
 717 0026 24EA0304 		bic	r4, r4, r3
 718 002a 4460     		str	r4, [r0, #4]
 364:/home/y/github/EmbeddedSoftwareMCU/Libraries/AT32/drivers/src/at32f403a_407_tmr.c ****   tmr_x->ctrl2 |= channel_index;
 719              		.loc 1 364 0
 720 002c 4468     		ldr	r4, [r0, #4]
ARM GAS  /tmp/ccPqktXd.s 			page 20


 721 002e 2343     		orrs	r3, r3, r4
 722              	.LVL80:
 723 0030 4360     		str	r3, [r0, #4]
 724              	.LVL81:
 365:/home/y/github/EmbeddedSoftwareMCU/Libraries/AT32/drivers/src/at32f403a_407_tmr.c **** 
 366:/home/y/github/EmbeddedSoftwareMCU/Libraries/AT32/drivers/src/at32f403a_407_tmr.c ****   /* set channel output mode */
 367:/home/y/github/EmbeddedSoftwareMCU/Libraries/AT32/drivers/src/at32f403a_407_tmr.c ****   channel = tmr_channel;
 368:/home/y/github/EmbeddedSoftwareMCU/Libraries/AT32/drivers/src/at32f403a_407_tmr.c **** 
 369:/home/y/github/EmbeddedSoftwareMCU/Libraries/AT32/drivers/src/at32f403a_407_tmr.c ****   switch(channel)
 725              		.loc 1 369 0
 726 0032 0629     		cmp	r1, #6
 727 0034 13D8     		bhi	.L52
 728 0036 DFE801F0 		tbb	[pc, r1]
 729              	.L54:
 730 003a 0D       		.byte	(.L53-.L54)/2
 731 003b 12       		.byte	(.L52-.L54)/2
 732 003c 3C       		.byte	(.L55-.L54)/2
 733 003d 12       		.byte	(.L52-.L54)/2
 734 003e 42       		.byte	(.L56-.L54)/2
 735 003f 12       		.byte	(.L52-.L54)/2
 736 0040 48       		.byte	(.L57-.L54)/2
 737              	.LVL82:
 738 0041 00       		.p2align 1
 739              	.L50:
 358:/home/y/github/EmbeddedSoftwareMCU/Libraries/AT32/drivers/src/at32f403a_407_tmr.c ****     tmr_x->ctrl2 |= channel_c_index;
 740              		.loc 1 358 0
 741 0042 4568     		ldr	r5, [r0, #4]
 742 0044 A4B2     		uxth	r4, r4
 743 0046 25EA0405 		bic	r5, r5, r4
 744 004a 4560     		str	r5, [r0, #4]
 359:/home/y/github/EmbeddedSoftwareMCU/Libraries/AT32/drivers/src/at32f403a_407_tmr.c ****   }
 745              		.loc 1 359 0
 746 004c 4568     		ldr	r5, [r0, #4]
 747 004e 2C43     		orrs	r4, r4, r5
 748              	.LVL83:
 749 0050 4460     		str	r4, [r0, #4]
 750 0052 E6E7     		b	.L51
 751              	.LVL84:
 752              	.L53:
 370:/home/y/github/EmbeddedSoftwareMCU/Libraries/AT32/drivers/src/at32f403a_407_tmr.c ****   {
 371:/home/y/github/EmbeddedSoftwareMCU/Libraries/AT32/drivers/src/at32f403a_407_tmr.c ****     case TMR_SELECT_CHANNEL_1:
 372:/home/y/github/EmbeddedSoftwareMCU/Libraries/AT32/drivers/src/at32f403a_407_tmr.c ****       tmr_x->cm1_output_bit.c1octrl = tmr_output_struct->oc_mode;
 753              		.loc 1 372 0
 754 0054 1478     		ldrb	r4, [r2]	@ zero_extendqisi2
 755 0056 8369     		ldr	r3, [r0, #24]
 756 0058 64F30613 		bfi	r3, r4, #4, #3
 757 005c 8361     		str	r3, [r0, #24]
 758              	.L52:
 373:/home/y/github/EmbeddedSoftwareMCU/Libraries/AT32/drivers/src/at32f403a_407_tmr.c ****       break;
 374:/home/y/github/EmbeddedSoftwareMCU/Libraries/AT32/drivers/src/at32f403a_407_tmr.c **** 
 375:/home/y/github/EmbeddedSoftwareMCU/Libraries/AT32/drivers/src/at32f403a_407_tmr.c ****     case TMR_SELECT_CHANNEL_2:
 376:/home/y/github/EmbeddedSoftwareMCU/Libraries/AT32/drivers/src/at32f403a_407_tmr.c ****       tmr_x->cm1_output_bit.c2octrl = tmr_output_struct->oc_mode;
 377:/home/y/github/EmbeddedSoftwareMCU/Libraries/AT32/drivers/src/at32f403a_407_tmr.c ****       break;
 378:/home/y/github/EmbeddedSoftwareMCU/Libraries/AT32/drivers/src/at32f403a_407_tmr.c **** 
 379:/home/y/github/EmbeddedSoftwareMCU/Libraries/AT32/drivers/src/at32f403a_407_tmr.c ****     case TMR_SELECT_CHANNEL_3:
 380:/home/y/github/EmbeddedSoftwareMCU/Libraries/AT32/drivers/src/at32f403a_407_tmr.c ****       tmr_x->cm2_output_bit.c3octrl = tmr_output_struct->oc_mode;
 381:/home/y/github/EmbeddedSoftwareMCU/Libraries/AT32/drivers/src/at32f403a_407_tmr.c ****       break;
ARM GAS  /tmp/ccPqktXd.s 			page 21


 382:/home/y/github/EmbeddedSoftwareMCU/Libraries/AT32/drivers/src/at32f403a_407_tmr.c **** 
 383:/home/y/github/EmbeddedSoftwareMCU/Libraries/AT32/drivers/src/at32f403a_407_tmr.c ****     case TMR_SELECT_CHANNEL_4:
 384:/home/y/github/EmbeddedSoftwareMCU/Libraries/AT32/drivers/src/at32f403a_407_tmr.c ****       tmr_x->cm2_output_bit.c4octrl = tmr_output_struct->oc_mode;
 385:/home/y/github/EmbeddedSoftwareMCU/Libraries/AT32/drivers/src/at32f403a_407_tmr.c ****       break;
 386:/home/y/github/EmbeddedSoftwareMCU/Libraries/AT32/drivers/src/at32f403a_407_tmr.c **** 
 387:/home/y/github/EmbeddedSoftwareMCU/Libraries/AT32/drivers/src/at32f403a_407_tmr.c ****     default:
 388:/home/y/github/EmbeddedSoftwareMCU/Libraries/AT32/drivers/src/at32f403a_407_tmr.c ****       break;
 389:/home/y/github/EmbeddedSoftwareMCU/Libraries/AT32/drivers/src/at32f403a_407_tmr.c ****   }
 390:/home/y/github/EmbeddedSoftwareMCU/Libraries/AT32/drivers/src/at32f403a_407_tmr.c **** 
 391:/home/y/github/EmbeddedSoftwareMCU/Libraries/AT32/drivers/src/at32f403a_407_tmr.c ****   /* get channel polarity bit position in cctrl register */
 392:/home/y/github/EmbeddedSoftwareMCU/Libraries/AT32/drivers/src/at32f403a_407_tmr.c ****   channel_index = (uint16_t)(tmr_output_struct->oc_polarity << ((tmr_channel * 2) + 1));
 759              		.loc 1 392 0
 760 005e D378     		ldrb	r3, [r2, #3]	@ zero_extendqisi2
 761 0060 4E00     		lsls	r6, r1, #1
 762 0062 741C     		adds	r4, r6, #1
 763 0064 A340     		lsls	r3, r3, r4
 764              	.LVL85:
 393:/home/y/github/EmbeddedSoftwareMCU/Libraries/AT32/drivers/src/at32f403a_407_tmr.c **** 
 394:/home/y/github/EmbeddedSoftwareMCU/Libraries/AT32/drivers/src/at32f403a_407_tmr.c ****   /* get channel complementary polarity bit position in cctrl register */
 395:/home/y/github/EmbeddedSoftwareMCU/Libraries/AT32/drivers/src/at32f403a_407_tmr.c ****   channel_c_index = (uint16_t)(tmr_output_struct->occ_polarity << ((tmr_channel * 2) + 3));
 765              		.loc 1 395 0
 766 0066 1579     		ldrb	r5, [r2, #4]	@ zero_extendqisi2
 767 0068 F41C     		adds	r4, r6, #3
 768 006a A540     		lsls	r5, r5, r4
 769              	.LVL86:
 396:/home/y/github/EmbeddedSoftwareMCU/Libraries/AT32/drivers/src/at32f403a_407_tmr.c **** 
 397:/home/y/github/EmbeddedSoftwareMCU/Libraries/AT32/drivers/src/at32f403a_407_tmr.c ****   if((tmr_x == TMR1) || (tmr_x == TMR8))
 770              		.loc 1 397 0
 771 006c 204C     		ldr	r4, .L63
 772 006e A042     		cmp	r0, r4
 773 0070 31D0     		beq	.L58
 774              		.loc 1 397 0 is_stmt 0 discriminator 1
 775 0072 04F50064 		add	r4, r4, #2048
 776 0076 A042     		cmp	r0, r4
 777 0078 2DD0     		beq	.L58
 778              	.LVL87:
 779              	.L59:
 780 007a 9BB2     		uxth	r3, r3
 398:/home/y/github/EmbeddedSoftwareMCU/Libraries/AT32/drivers/src/at32f403a_407_tmr.c ****   {
 399:/home/y/github/EmbeddedSoftwareMCU/Libraries/AT32/drivers/src/at32f403a_407_tmr.c ****     /* set output channel complementary polarity */
 400:/home/y/github/EmbeddedSoftwareMCU/Libraries/AT32/drivers/src/at32f403a_407_tmr.c ****     tmr_x->cctrl &= ~channel_c_index;
 401:/home/y/github/EmbeddedSoftwareMCU/Libraries/AT32/drivers/src/at32f403a_407_tmr.c ****     tmr_x->cctrl |= channel_c_index;
 402:/home/y/github/EmbeddedSoftwareMCU/Libraries/AT32/drivers/src/at32f403a_407_tmr.c ****   }
 403:/home/y/github/EmbeddedSoftwareMCU/Libraries/AT32/drivers/src/at32f403a_407_tmr.c **** 
 404:/home/y/github/EmbeddedSoftwareMCU/Libraries/AT32/drivers/src/at32f403a_407_tmr.c ****   /* set output channel polarity */
 405:/home/y/github/EmbeddedSoftwareMCU/Libraries/AT32/drivers/src/at32f403a_407_tmr.c ****   tmr_x->cctrl &= ~channel_index;
 781              		.loc 1 405 0 is_stmt 1
 782 007c 046A     		ldr	r4, [r0, #32]
 783 007e 24EA0304 		bic	r4, r4, r3
 406:/home/y/github/EmbeddedSoftwareMCU/Libraries/AT32/drivers/src/at32f403a_407_tmr.c ****   tmr_x->cctrl |= channel_index;
 784              		.loc 1 406 0
 785 0082 2343     		orrs	r3, r3, r4
 786              	.LVL88:
 787 0084 0362     		str	r3, [r0, #32]
 407:/home/y/github/EmbeddedSoftwareMCU/Libraries/AT32/drivers/src/at32f403a_407_tmr.c **** 
 408:/home/y/github/EmbeddedSoftwareMCU/Libraries/AT32/drivers/src/at32f403a_407_tmr.c ****   /* get channel enable bit position in cctrl register */
 409:/home/y/github/EmbeddedSoftwareMCU/Libraries/AT32/drivers/src/at32f403a_407_tmr.c ****   channel_index = (uint16_t)(tmr_output_struct->oc_output_state << (tmr_channel * 2));
ARM GAS  /tmp/ccPqktXd.s 			page 22


 788              		.loc 1 409 0
 789 0086 5479     		ldrb	r4, [r2, #5]	@ zero_extendqisi2
 790 0088 B440     		lsls	r4, r4, r6
 791              	.LVL89:
 410:/home/y/github/EmbeddedSoftwareMCU/Libraries/AT32/drivers/src/at32f403a_407_tmr.c **** 
 411:/home/y/github/EmbeddedSoftwareMCU/Libraries/AT32/drivers/src/at32f403a_407_tmr.c ****   /* get channel complementary enable bit position in cctrl register */
 412:/home/y/github/EmbeddedSoftwareMCU/Libraries/AT32/drivers/src/at32f403a_407_tmr.c ****   channel_c_index = (uint16_t)(tmr_output_struct->occ_output_state << ((tmr_channel * 2) + 2));
 792              		.loc 1 412 0
 793 008a 9279     		ldrb	r2, [r2, #6]	@ zero_extendqisi2
 794              	.LVL90:
 795 008c 0131     		adds	r1, r1, #1
 796              	.LVL91:
 797 008e 4900     		lsls	r1, r1, #1
 798 0090 02FA01F1 		lsl	r1, r2, r1
 799              	.LVL92:
 413:/home/y/github/EmbeddedSoftwareMCU/Libraries/AT32/drivers/src/at32f403a_407_tmr.c **** 
 414:/home/y/github/EmbeddedSoftwareMCU/Libraries/AT32/drivers/src/at32f403a_407_tmr.c ****   if((tmr_x == TMR1) || (tmr_x == TMR8))
 800              		.loc 1 414 0
 801 0094 164A     		ldr	r2, .L63
 802 0096 9042     		cmp	r0, r2
 803 0098 24D0     		beq	.L60
 804              		.loc 1 414 0 is_stmt 0 discriminator 1
 805 009a 02F50062 		add	r2, r2, #2048
 806 009e 9042     		cmp	r0, r2
 807 00a0 20D0     		beq	.L60
 808              	.LVL93:
 809              	.L61:
 810 00a2 A3B2     		uxth	r3, r4
 415:/home/y/github/EmbeddedSoftwareMCU/Libraries/AT32/drivers/src/at32f403a_407_tmr.c ****   {
 416:/home/y/github/EmbeddedSoftwareMCU/Libraries/AT32/drivers/src/at32f403a_407_tmr.c ****     /* set output channel complementary enable bit */
 417:/home/y/github/EmbeddedSoftwareMCU/Libraries/AT32/drivers/src/at32f403a_407_tmr.c ****     tmr_x->cctrl &= ~channel_c_index;
 418:/home/y/github/EmbeddedSoftwareMCU/Libraries/AT32/drivers/src/at32f403a_407_tmr.c ****     tmr_x->cctrl |= channel_c_index;
 419:/home/y/github/EmbeddedSoftwareMCU/Libraries/AT32/drivers/src/at32f403a_407_tmr.c ****   }
 420:/home/y/github/EmbeddedSoftwareMCU/Libraries/AT32/drivers/src/at32f403a_407_tmr.c **** 
 421:/home/y/github/EmbeddedSoftwareMCU/Libraries/AT32/drivers/src/at32f403a_407_tmr.c ****   /* set output channel enable bit */
 422:/home/y/github/EmbeddedSoftwareMCU/Libraries/AT32/drivers/src/at32f403a_407_tmr.c ****   tmr_x->cctrl &= ~channel_index;
 811              		.loc 1 422 0 is_stmt 1
 812 00a4 026A     		ldr	r2, [r0, #32]
 813 00a6 22EA0302 		bic	r2, r2, r3
 423:/home/y/github/EmbeddedSoftwareMCU/Libraries/AT32/drivers/src/at32f403a_407_tmr.c ****   tmr_x->cctrl |= channel_index;
 814              		.loc 1 423 0
 815 00aa 1343     		orrs	r3, r3, r2
 816 00ac 0362     		str	r3, [r0, #32]
 424:/home/y/github/EmbeddedSoftwareMCU/Libraries/AT32/drivers/src/at32f403a_407_tmr.c **** }
 817              		.loc 1 424 0
 818 00ae 70BC     		pop	{r4, r5, r6}
 819              	.LCFI2:
 820              		.cfi_remember_state
 821              		.cfi_restore 6
 822              		.cfi_restore 5
 823              		.cfi_restore 4
 824              		.cfi_def_cfa_offset 0
 825              	.LVL94:
 826 00b0 7047     		bx	lr
 827              	.LVL95:
 828              	.L55:
 829              	.LCFI3:
ARM GAS  /tmp/ccPqktXd.s 			page 23


 830              		.cfi_restore_state
 376:/home/y/github/EmbeddedSoftwareMCU/Libraries/AT32/drivers/src/at32f403a_407_tmr.c ****       break;
 831              		.loc 1 376 0
 832 00b2 1478     		ldrb	r4, [r2]	@ zero_extendqisi2
 833 00b4 8369     		ldr	r3, [r0, #24]
 834 00b6 64F30E33 		bfi	r3, r4, #12, #3
 835 00ba 8361     		str	r3, [r0, #24]
 377:/home/y/github/EmbeddedSoftwareMCU/Libraries/AT32/drivers/src/at32f403a_407_tmr.c **** 
 836              		.loc 1 377 0
 837 00bc CFE7     		b	.L52
 838              	.L56:
 380:/home/y/github/EmbeddedSoftwareMCU/Libraries/AT32/drivers/src/at32f403a_407_tmr.c ****       break;
 839              		.loc 1 380 0
 840 00be 1478     		ldrb	r4, [r2]	@ zero_extendqisi2
 841 00c0 C369     		ldr	r3, [r0, #28]
 842 00c2 64F30613 		bfi	r3, r4, #4, #3
 843 00c6 C361     		str	r3, [r0, #28]
 381:/home/y/github/EmbeddedSoftwareMCU/Libraries/AT32/drivers/src/at32f403a_407_tmr.c **** 
 844              		.loc 1 381 0
 845 00c8 C9E7     		b	.L52
 846              	.L57:
 384:/home/y/github/EmbeddedSoftwareMCU/Libraries/AT32/drivers/src/at32f403a_407_tmr.c ****       break;
 847              		.loc 1 384 0
 848 00ca 1478     		ldrb	r4, [r2]	@ zero_extendqisi2
 849 00cc C369     		ldr	r3, [r0, #28]
 850 00ce 64F30E33 		bfi	r3, r4, #12, #3
 851 00d2 C361     		str	r3, [r0, #28]
 385:/home/y/github/EmbeddedSoftwareMCU/Libraries/AT32/drivers/src/at32f403a_407_tmr.c **** 
 852              		.loc 1 385 0
 853 00d4 C3E7     		b	.L52
 854              	.LVL96:
 855              	.L58:
 856 00d6 ADB2     		uxth	r5, r5
 400:/home/y/github/EmbeddedSoftwareMCU/Libraries/AT32/drivers/src/at32f403a_407_tmr.c ****     tmr_x->cctrl |= channel_c_index;
 857              		.loc 1 400 0
 858 00d8 046A     		ldr	r4, [r0, #32]
 859 00da 24EA0504 		bic	r4, r4, r5
 401:/home/y/github/EmbeddedSoftwareMCU/Libraries/AT32/drivers/src/at32f403a_407_tmr.c ****   }
 860              		.loc 1 401 0
 861 00de 2543     		orrs	r5, r5, r4
 862              	.LVL97:
 863 00e0 0562     		str	r5, [r0, #32]
 864              	.LVL98:
 865 00e2 CAE7     		b	.L59
 866              	.LVL99:
 867              	.L60:
 868 00e4 89B2     		uxth	r1, r1
 417:/home/y/github/EmbeddedSoftwareMCU/Libraries/AT32/drivers/src/at32f403a_407_tmr.c ****     tmr_x->cctrl |= channel_c_index;
 869              		.loc 1 417 0
 870 00e6 23EA0103 		bic	r3, r3, r1
 418:/home/y/github/EmbeddedSoftwareMCU/Libraries/AT32/drivers/src/at32f403a_407_tmr.c ****   }
 871              		.loc 1 418 0
 872 00ea 0B43     		orrs	r3, r3, r1
 873 00ec 0362     		str	r3, [r0, #32]
 874 00ee D8E7     		b	.L61
 875              	.L64:
 876              		.align	2
ARM GAS  /tmp/ccPqktXd.s 			page 24


 877              	.L63:
 878 00f0 002C0140 		.word	1073818624
 879              		.cfi_endproc
 880              	.LFE146:
 882              		.section	.text.tmr_output_channel_mode_select,"ax",%progbits
 883              		.align	1
 884              		.global	tmr_output_channel_mode_select
 885              		.syntax unified
 886              		.thumb
 887              		.thumb_func
 888              		.fpu softvfp
 890              	tmr_output_channel_mode_select:
 891              	.LFB147:
 425:/home/y/github/EmbeddedSoftwareMCU/Libraries/AT32/drivers/src/at32f403a_407_tmr.c **** 
 426:/home/y/github/EmbeddedSoftwareMCU/Libraries/AT32/drivers/src/at32f403a_407_tmr.c **** /**
 427:/home/y/github/EmbeddedSoftwareMCU/Libraries/AT32/drivers/src/at32f403a_407_tmr.c ****   * @brief  select tmr output channel mode
 428:/home/y/github/EmbeddedSoftwareMCU/Libraries/AT32/drivers/src/at32f403a_407_tmr.c ****   * @param  tmr_x: select the tmr peripheral.
 429:/home/y/github/EmbeddedSoftwareMCU/Libraries/AT32/drivers/src/at32f403a_407_tmr.c ****   *         this parameter can be one of the following values:
 430:/home/y/github/EmbeddedSoftwareMCU/Libraries/AT32/drivers/src/at32f403a_407_tmr.c ****   *         TMR1, TMR2, TMR3, TMR4, TMR5, TMR8, TMR9, TMR10,
 431:/home/y/github/EmbeddedSoftwareMCU/Libraries/AT32/drivers/src/at32f403a_407_tmr.c ****   *         TMR11, TMR12, TMR13, TMR14
 432:/home/y/github/EmbeddedSoftwareMCU/Libraries/AT32/drivers/src/at32f403a_407_tmr.c ****   * @param  tmr_channel
 433:/home/y/github/EmbeddedSoftwareMCU/Libraries/AT32/drivers/src/at32f403a_407_tmr.c ****   *         this parameter can be one of the following values:
 434:/home/y/github/EmbeddedSoftwareMCU/Libraries/AT32/drivers/src/at32f403a_407_tmr.c ****   *         - TMR_SELECT_CHANNEL_1
 435:/home/y/github/EmbeddedSoftwareMCU/Libraries/AT32/drivers/src/at32f403a_407_tmr.c ****   *         - TMR_SELECT_CHANNEL_2
 436:/home/y/github/EmbeddedSoftwareMCU/Libraries/AT32/drivers/src/at32f403a_407_tmr.c ****   *         - TMR_SELECT_CHANNEL_3
 437:/home/y/github/EmbeddedSoftwareMCU/Libraries/AT32/drivers/src/at32f403a_407_tmr.c ****   *         - TMR_SELECT_CHANNEL_4
 438:/home/y/github/EmbeddedSoftwareMCU/Libraries/AT32/drivers/src/at32f403a_407_tmr.c ****   * @param  oc_mode
 439:/home/y/github/EmbeddedSoftwareMCU/Libraries/AT32/drivers/src/at32f403a_407_tmr.c ****   *         this parameter can be one of the following values:
 440:/home/y/github/EmbeddedSoftwareMCU/Libraries/AT32/drivers/src/at32f403a_407_tmr.c ****   *         - TMR_OUTPUT_CONTROL_OFF
 441:/home/y/github/EmbeddedSoftwareMCU/Libraries/AT32/drivers/src/at32f403a_407_tmr.c ****   *         - TMR_OUTPUT_CONTROL_HIGH
 442:/home/y/github/EmbeddedSoftwareMCU/Libraries/AT32/drivers/src/at32f403a_407_tmr.c ****   *         - TMR_OUTPUT_CONTROL_LOW
 443:/home/y/github/EmbeddedSoftwareMCU/Libraries/AT32/drivers/src/at32f403a_407_tmr.c ****   *         - TMR_OUTPUT_CONTROL_SWITCH
 444:/home/y/github/EmbeddedSoftwareMCU/Libraries/AT32/drivers/src/at32f403a_407_tmr.c ****   *         - TMR_OUTPUT_CONTROL_FORCE_HIGH
 445:/home/y/github/EmbeddedSoftwareMCU/Libraries/AT32/drivers/src/at32f403a_407_tmr.c ****   *         - TMR_OUTPUT_CONTROL_FORCE_LOW
 446:/home/y/github/EmbeddedSoftwareMCU/Libraries/AT32/drivers/src/at32f403a_407_tmr.c ****   *         - TMR_OUTPUT_CONTROL_PWM_MODE_A
 447:/home/y/github/EmbeddedSoftwareMCU/Libraries/AT32/drivers/src/at32f403a_407_tmr.c ****   *         - TMR_OUTPUT_CONTROL_PWM_MODE_B
 448:/home/y/github/EmbeddedSoftwareMCU/Libraries/AT32/drivers/src/at32f403a_407_tmr.c ****   * @retval none
 449:/home/y/github/EmbeddedSoftwareMCU/Libraries/AT32/drivers/src/at32f403a_407_tmr.c ****   */
 450:/home/y/github/EmbeddedSoftwareMCU/Libraries/AT32/drivers/src/at32f403a_407_tmr.c **** void tmr_output_channel_mode_select(tmr_type *tmr_x, tmr_channel_select_type tmr_channel,
 451:/home/y/github/EmbeddedSoftwareMCU/Libraries/AT32/drivers/src/at32f403a_407_tmr.c ****                                     tmr_output_control_mode_type oc_mode)
 452:/home/y/github/EmbeddedSoftwareMCU/Libraries/AT32/drivers/src/at32f403a_407_tmr.c **** {
 892              		.loc 1 452 0
 893              		.cfi_startproc
 894              		@ args = 0, pretend = 0, frame = 0
 895              		@ frame_needed = 0, uses_anonymous_args = 0
 896              		@ link register save eliminated.
 897              	.LVL100:
 453:/home/y/github/EmbeddedSoftwareMCU/Libraries/AT32/drivers/src/at32f403a_407_tmr.c ****   uint16_t channel;
 454:/home/y/github/EmbeddedSoftwareMCU/Libraries/AT32/drivers/src/at32f403a_407_tmr.c **** 
 455:/home/y/github/EmbeddedSoftwareMCU/Libraries/AT32/drivers/src/at32f403a_407_tmr.c ****   channel = tmr_channel;
 456:/home/y/github/EmbeddedSoftwareMCU/Libraries/AT32/drivers/src/at32f403a_407_tmr.c **** 
 457:/home/y/github/EmbeddedSoftwareMCU/Libraries/AT32/drivers/src/at32f403a_407_tmr.c ****   switch(channel)
 898              		.loc 1 457 0
 899 0000 0629     		cmp	r1, #6
 900 0002 18D8     		bhi	.L65
 901 0004 DFE801F0 		tbb	[pc, r1]
 902              	.L68:
ARM GAS  /tmp/ccPqktXd.s 			page 25


 903 0008 04       		.byte	(.L67-.L68)/2
 904 0009 17       		.byte	(.L65-.L68)/2
 905 000a 09       		.byte	(.L69-.L68)/2
 906 000b 17       		.byte	(.L65-.L68)/2
 907 000c 0E       		.byte	(.L70-.L68)/2
 908 000d 17       		.byte	(.L65-.L68)/2
 909 000e 13       		.byte	(.L71-.L68)/2
 910 000f 00       		.p2align 1
 911              	.L67:
 458:/home/y/github/EmbeddedSoftwareMCU/Libraries/AT32/drivers/src/at32f403a_407_tmr.c ****   {
 459:/home/y/github/EmbeddedSoftwareMCU/Libraries/AT32/drivers/src/at32f403a_407_tmr.c ****     case TMR_SELECT_CHANNEL_1:
 460:/home/y/github/EmbeddedSoftwareMCU/Libraries/AT32/drivers/src/at32f403a_407_tmr.c ****       tmr_x->cm1_output_bit.c1octrl = oc_mode;
 912              		.loc 1 460 0
 913 0010 8369     		ldr	r3, [r0, #24]
 914 0012 62F30613 		bfi	r3, r2, #4, #3
 915 0016 8361     		str	r3, [r0, #24]
 461:/home/y/github/EmbeddedSoftwareMCU/Libraries/AT32/drivers/src/at32f403a_407_tmr.c ****       break;
 916              		.loc 1 461 0
 917 0018 7047     		bx	lr
 918              	.L69:
 462:/home/y/github/EmbeddedSoftwareMCU/Libraries/AT32/drivers/src/at32f403a_407_tmr.c **** 
 463:/home/y/github/EmbeddedSoftwareMCU/Libraries/AT32/drivers/src/at32f403a_407_tmr.c ****     case TMR_SELECT_CHANNEL_2:
 464:/home/y/github/EmbeddedSoftwareMCU/Libraries/AT32/drivers/src/at32f403a_407_tmr.c ****       tmr_x->cm1_output_bit.c2octrl = oc_mode;
 919              		.loc 1 464 0
 920 001a 8369     		ldr	r3, [r0, #24]
 921 001c 62F30E33 		bfi	r3, r2, #12, #3
 922 0020 8361     		str	r3, [r0, #24]
 465:/home/y/github/EmbeddedSoftwareMCU/Libraries/AT32/drivers/src/at32f403a_407_tmr.c ****       break;
 923              		.loc 1 465 0
 924 0022 7047     		bx	lr
 925              	.L70:
 466:/home/y/github/EmbeddedSoftwareMCU/Libraries/AT32/drivers/src/at32f403a_407_tmr.c **** 
 467:/home/y/github/EmbeddedSoftwareMCU/Libraries/AT32/drivers/src/at32f403a_407_tmr.c ****     case TMR_SELECT_CHANNEL_3:
 468:/home/y/github/EmbeddedSoftwareMCU/Libraries/AT32/drivers/src/at32f403a_407_tmr.c ****       tmr_x->cm2_output_bit.c3octrl = oc_mode;
 926              		.loc 1 468 0
 927 0024 C369     		ldr	r3, [r0, #28]
 928 0026 62F30613 		bfi	r3, r2, #4, #3
 929 002a C361     		str	r3, [r0, #28]
 469:/home/y/github/EmbeddedSoftwareMCU/Libraries/AT32/drivers/src/at32f403a_407_tmr.c ****       break;
 930              		.loc 1 469 0
 931 002c 7047     		bx	lr
 932              	.L71:
 470:/home/y/github/EmbeddedSoftwareMCU/Libraries/AT32/drivers/src/at32f403a_407_tmr.c **** 
 471:/home/y/github/EmbeddedSoftwareMCU/Libraries/AT32/drivers/src/at32f403a_407_tmr.c ****     case TMR_SELECT_CHANNEL_4:
 472:/home/y/github/EmbeddedSoftwareMCU/Libraries/AT32/drivers/src/at32f403a_407_tmr.c ****       tmr_x->cm2_output_bit.c4octrl = oc_mode;
 933              		.loc 1 472 0
 934 002e C369     		ldr	r3, [r0, #28]
 935 0030 62F30E33 		bfi	r3, r2, #12, #3
 936 0034 C361     		str	r3, [r0, #28]
 937              	.L65:
 938 0036 7047     		bx	lr
 939              		.cfi_endproc
 940              	.LFE147:
 942              		.section	.text.tmr_period_value_set,"ax",%progbits
 943              		.align	1
 944              		.global	tmr_period_value_set
 945              		.syntax unified
ARM GAS  /tmp/ccPqktXd.s 			page 26


 946              		.thumb
 947              		.thumb_func
 948              		.fpu softvfp
 950              	tmr_period_value_set:
 951              	.LFB148:
 473:/home/y/github/EmbeddedSoftwareMCU/Libraries/AT32/drivers/src/at32f403a_407_tmr.c ****       break;
 474:/home/y/github/EmbeddedSoftwareMCU/Libraries/AT32/drivers/src/at32f403a_407_tmr.c **** 
 475:/home/y/github/EmbeddedSoftwareMCU/Libraries/AT32/drivers/src/at32f403a_407_tmr.c ****     default:
 476:/home/y/github/EmbeddedSoftwareMCU/Libraries/AT32/drivers/src/at32f403a_407_tmr.c ****       break;
 477:/home/y/github/EmbeddedSoftwareMCU/Libraries/AT32/drivers/src/at32f403a_407_tmr.c ****   }
 478:/home/y/github/EmbeddedSoftwareMCU/Libraries/AT32/drivers/src/at32f403a_407_tmr.c **** }
 479:/home/y/github/EmbeddedSoftwareMCU/Libraries/AT32/drivers/src/at32f403a_407_tmr.c **** /**
 480:/home/y/github/EmbeddedSoftwareMCU/Libraries/AT32/drivers/src/at32f403a_407_tmr.c ****   * @brief  set tmr period value
 481:/home/y/github/EmbeddedSoftwareMCU/Libraries/AT32/drivers/src/at32f403a_407_tmr.c ****   * @param  tmr_x: select the tmr peripheral.
 482:/home/y/github/EmbeddedSoftwareMCU/Libraries/AT32/drivers/src/at32f403a_407_tmr.c ****   *         this parameter can be one of the following values:
 483:/home/y/github/EmbeddedSoftwareMCU/Libraries/AT32/drivers/src/at32f403a_407_tmr.c ****   *         TMR1, TMR2, TMR3, TMR4, TMR5, TMR6, TMR7, TMR8,
 484:/home/y/github/EmbeddedSoftwareMCU/Libraries/AT32/drivers/src/at32f403a_407_tmr.c ****   *         TMR9, TMR10, TMR11, TMR12, TMR13, TMR14
 485:/home/y/github/EmbeddedSoftwareMCU/Libraries/AT32/drivers/src/at32f403a_407_tmr.c ****   * @param  tmr_pr_value: timer period register value of counter
 486:/home/y/github/EmbeddedSoftwareMCU/Libraries/AT32/drivers/src/at32f403a_407_tmr.c ****   *                       (for 16 bit tmr 0x0000~0xFFFF,
 487:/home/y/github/EmbeddedSoftwareMCU/Libraries/AT32/drivers/src/at32f403a_407_tmr.c ****   *                       for 32 bit tmr 0x0000_0000~0xFFFF_FFFF)
 488:/home/y/github/EmbeddedSoftwareMCU/Libraries/AT32/drivers/src/at32f403a_407_tmr.c ****   * @retval none
 489:/home/y/github/EmbeddedSoftwareMCU/Libraries/AT32/drivers/src/at32f403a_407_tmr.c ****   */
 490:/home/y/github/EmbeddedSoftwareMCU/Libraries/AT32/drivers/src/at32f403a_407_tmr.c **** void tmr_period_value_set(tmr_type *tmr_x, uint32_t tmr_pr_value)
 491:/home/y/github/EmbeddedSoftwareMCU/Libraries/AT32/drivers/src/at32f403a_407_tmr.c **** {
 952              		.loc 1 491 0
 953              		.cfi_startproc
 954              		@ args = 0, pretend = 0, frame = 0
 955              		@ frame_needed = 0, uses_anonymous_args = 0
 956              		@ link register save eliminated.
 957              	.LVL101:
 492:/home/y/github/EmbeddedSoftwareMCU/Libraries/AT32/drivers/src/at32f403a_407_tmr.c ****   /* set tmr period value */
 493:/home/y/github/EmbeddedSoftwareMCU/Libraries/AT32/drivers/src/at32f403a_407_tmr.c ****   tmr_x->pr = tmr_pr_value;
 958              		.loc 1 493 0
 959 0000 C162     		str	r1, [r0, #44]
 960 0002 7047     		bx	lr
 961              		.cfi_endproc
 962              	.LFE148:
 964              		.section	.text.tmr_period_value_get,"ax",%progbits
 965              		.align	1
 966              		.global	tmr_period_value_get
 967              		.syntax unified
 968              		.thumb
 969              		.thumb_func
 970              		.fpu softvfp
 972              	tmr_period_value_get:
 973              	.LFB149:
 494:/home/y/github/EmbeddedSoftwareMCU/Libraries/AT32/drivers/src/at32f403a_407_tmr.c **** }
 495:/home/y/github/EmbeddedSoftwareMCU/Libraries/AT32/drivers/src/at32f403a_407_tmr.c **** 
 496:/home/y/github/EmbeddedSoftwareMCU/Libraries/AT32/drivers/src/at32f403a_407_tmr.c **** /**
 497:/home/y/github/EmbeddedSoftwareMCU/Libraries/AT32/drivers/src/at32f403a_407_tmr.c ****   * @brief  get tmr period value
 498:/home/y/github/EmbeddedSoftwareMCU/Libraries/AT32/drivers/src/at32f403a_407_tmr.c ****   * @param  tmr_x: select the tmr peripheral.
 499:/home/y/github/EmbeddedSoftwareMCU/Libraries/AT32/drivers/src/at32f403a_407_tmr.c ****   *         this parameter can be one of the following values:
 500:/home/y/github/EmbeddedSoftwareMCU/Libraries/AT32/drivers/src/at32f403a_407_tmr.c ****   *         TMR1, TMR2, TMR3, TMR4, TMR5, TMR6, TMR7, TMR8,
 501:/home/y/github/EmbeddedSoftwareMCU/Libraries/AT32/drivers/src/at32f403a_407_tmr.c ****   *         TMR9, TMR10, TMR11, TMR12, TMR13, TMR14
 502:/home/y/github/EmbeddedSoftwareMCU/Libraries/AT32/drivers/src/at32f403a_407_tmr.c ****   * @retval timer period register value of counter
 503:/home/y/github/EmbeddedSoftwareMCU/Libraries/AT32/drivers/src/at32f403a_407_tmr.c ****   *         (for 16 bit tmr 0x0000~0xFFFF, for 32 bit tmr
 504:/home/y/github/EmbeddedSoftwareMCU/Libraries/AT32/drivers/src/at32f403a_407_tmr.c ****   *         0x0000_0000~0xFFFF_FFFF)
ARM GAS  /tmp/ccPqktXd.s 			page 27


 505:/home/y/github/EmbeddedSoftwareMCU/Libraries/AT32/drivers/src/at32f403a_407_tmr.c ****   */
 506:/home/y/github/EmbeddedSoftwareMCU/Libraries/AT32/drivers/src/at32f403a_407_tmr.c **** uint32_t tmr_period_value_get(tmr_type *tmr_x)
 507:/home/y/github/EmbeddedSoftwareMCU/Libraries/AT32/drivers/src/at32f403a_407_tmr.c **** {
 974              		.loc 1 507 0
 975              		.cfi_startproc
 976              		@ args = 0, pretend = 0, frame = 0
 977              		@ frame_needed = 0, uses_anonymous_args = 0
 978              		@ link register save eliminated.
 979              	.LVL102:
 508:/home/y/github/EmbeddedSoftwareMCU/Libraries/AT32/drivers/src/at32f403a_407_tmr.c ****   return tmr_x->pr;
 980              		.loc 1 508 0
 981 0000 C06A     		ldr	r0, [r0, #44]
 982              	.LVL103:
 509:/home/y/github/EmbeddedSoftwareMCU/Libraries/AT32/drivers/src/at32f403a_407_tmr.c **** }
 983              		.loc 1 509 0
 984 0002 7047     		bx	lr
 985              		.cfi_endproc
 986              	.LFE149:
 988              		.section	.text.tmr_channel_value_set,"ax",%progbits
 989              		.align	1
 990              		.global	tmr_channel_value_set
 991              		.syntax unified
 992              		.thumb
 993              		.thumb_func
 994              		.fpu softvfp
 996              	tmr_channel_value_set:
 997              	.LFB150:
 510:/home/y/github/EmbeddedSoftwareMCU/Libraries/AT32/drivers/src/at32f403a_407_tmr.c **** 
 511:/home/y/github/EmbeddedSoftwareMCU/Libraries/AT32/drivers/src/at32f403a_407_tmr.c **** /**
 512:/home/y/github/EmbeddedSoftwareMCU/Libraries/AT32/drivers/src/at32f403a_407_tmr.c ****   * @brief  set tmr channel value
 513:/home/y/github/EmbeddedSoftwareMCU/Libraries/AT32/drivers/src/at32f403a_407_tmr.c ****   * @param  tmr_x: select the tmr peripheral.
 514:/home/y/github/EmbeddedSoftwareMCU/Libraries/AT32/drivers/src/at32f403a_407_tmr.c ****   *         this parameter can be one of the following values:
 515:/home/y/github/EmbeddedSoftwareMCU/Libraries/AT32/drivers/src/at32f403a_407_tmr.c ****   *         TMR1, TMR2, TMR3, TMR4, TMR5, TMR8, TMR9, TMR10,
 516:/home/y/github/EmbeddedSoftwareMCU/Libraries/AT32/drivers/src/at32f403a_407_tmr.c ****   *         TMR11, TMR12, TMR13, TMR14
 517:/home/y/github/EmbeddedSoftwareMCU/Libraries/AT32/drivers/src/at32f403a_407_tmr.c ****   * @param  tmr_channel
 518:/home/y/github/EmbeddedSoftwareMCU/Libraries/AT32/drivers/src/at32f403a_407_tmr.c ****   *         this parameter can be one of the following values:
 519:/home/y/github/EmbeddedSoftwareMCU/Libraries/AT32/drivers/src/at32f403a_407_tmr.c ****   *         - TMR_SELECT_CHANNEL_1
 520:/home/y/github/EmbeddedSoftwareMCU/Libraries/AT32/drivers/src/at32f403a_407_tmr.c ****   *         - TMR_SELECT_CHANNEL_2
 521:/home/y/github/EmbeddedSoftwareMCU/Libraries/AT32/drivers/src/at32f403a_407_tmr.c ****   *         - TMR_SELECT_CHANNEL_3
 522:/home/y/github/EmbeddedSoftwareMCU/Libraries/AT32/drivers/src/at32f403a_407_tmr.c ****   *         - TMR_SELECT_CHANNEL_4
 523:/home/y/github/EmbeddedSoftwareMCU/Libraries/AT32/drivers/src/at32f403a_407_tmr.c ****   * @param  tmr_channel_value (for 16 bit tmr 0x0000~0xFFFF,
 524:/home/y/github/EmbeddedSoftwareMCU/Libraries/AT32/drivers/src/at32f403a_407_tmr.c ****   *                       for 32 bit tmr 0x0000_0000~0xFFFF_FFFF)
 525:/home/y/github/EmbeddedSoftwareMCU/Libraries/AT32/drivers/src/at32f403a_407_tmr.c ****   * @retval none
 526:/home/y/github/EmbeddedSoftwareMCU/Libraries/AT32/drivers/src/at32f403a_407_tmr.c ****   */
 527:/home/y/github/EmbeddedSoftwareMCU/Libraries/AT32/drivers/src/at32f403a_407_tmr.c **** void tmr_channel_value_set(tmr_type *tmr_x, tmr_channel_select_type tmr_channel,
 528:/home/y/github/EmbeddedSoftwareMCU/Libraries/AT32/drivers/src/at32f403a_407_tmr.c ****                            uint32_t tmr_channel_value)
 529:/home/y/github/EmbeddedSoftwareMCU/Libraries/AT32/drivers/src/at32f403a_407_tmr.c **** {
 998              		.loc 1 529 0
 999              		.cfi_startproc
 1000              		@ args = 0, pretend = 0, frame = 0
 1001              		@ frame_needed = 0, uses_anonymous_args = 0
 1002              		@ link register save eliminated.
 1003              	.LVL104:
 530:/home/y/github/EmbeddedSoftwareMCU/Libraries/AT32/drivers/src/at32f403a_407_tmr.c ****   uint16_t channel;
 531:/home/y/github/EmbeddedSoftwareMCU/Libraries/AT32/drivers/src/at32f403a_407_tmr.c **** 
 532:/home/y/github/EmbeddedSoftwareMCU/Libraries/AT32/drivers/src/at32f403a_407_tmr.c ****   channel = tmr_channel;
 533:/home/y/github/EmbeddedSoftwareMCU/Libraries/AT32/drivers/src/at32f403a_407_tmr.c **** 
ARM GAS  /tmp/ccPqktXd.s 			page 28


 534:/home/y/github/EmbeddedSoftwareMCU/Libraries/AT32/drivers/src/at32f403a_407_tmr.c ****   /* set tmr channel value */
 535:/home/y/github/EmbeddedSoftwareMCU/Libraries/AT32/drivers/src/at32f403a_407_tmr.c ****   switch(channel)
 1004              		.loc 1 535 0
 1005 0000 0629     		cmp	r1, #6
 1006 0002 0CD8     		bhi	.L74
 1007 0004 DFE801F0 		tbb	[pc, r1]
 1008              	.L77:
 1009 0008 04       		.byte	(.L76-.L77)/2
 1010 0009 0B       		.byte	(.L74-.L77)/2
 1011 000a 06       		.byte	(.L78-.L77)/2
 1012 000b 0B       		.byte	(.L74-.L77)/2
 1013 000c 08       		.byte	(.L79-.L77)/2
 1014 000d 0B       		.byte	(.L74-.L77)/2
 1015 000e 0A       		.byte	(.L80-.L77)/2
 1016 000f 00       		.p2align 1
 1017              	.L76:
 536:/home/y/github/EmbeddedSoftwareMCU/Libraries/AT32/drivers/src/at32f403a_407_tmr.c ****   {
 537:/home/y/github/EmbeddedSoftwareMCU/Libraries/AT32/drivers/src/at32f403a_407_tmr.c ****     case TMR_SELECT_CHANNEL_1:
 538:/home/y/github/EmbeddedSoftwareMCU/Libraries/AT32/drivers/src/at32f403a_407_tmr.c ****       tmr_x->c1dt = tmr_channel_value;
 1018              		.loc 1 538 0
 1019 0010 4263     		str	r2, [r0, #52]
 539:/home/y/github/EmbeddedSoftwareMCU/Libraries/AT32/drivers/src/at32f403a_407_tmr.c ****       break;
 1020              		.loc 1 539 0
 1021 0012 7047     		bx	lr
 1022              	.L78:
 540:/home/y/github/EmbeddedSoftwareMCU/Libraries/AT32/drivers/src/at32f403a_407_tmr.c **** 
 541:/home/y/github/EmbeddedSoftwareMCU/Libraries/AT32/drivers/src/at32f403a_407_tmr.c ****     case TMR_SELECT_CHANNEL_2:
 542:/home/y/github/EmbeddedSoftwareMCU/Libraries/AT32/drivers/src/at32f403a_407_tmr.c ****       tmr_x->c2dt = tmr_channel_value;
 1023              		.loc 1 542 0
 1024 0014 8263     		str	r2, [r0, #56]
 543:/home/y/github/EmbeddedSoftwareMCU/Libraries/AT32/drivers/src/at32f403a_407_tmr.c ****       break;
 1025              		.loc 1 543 0
 1026 0016 7047     		bx	lr
 1027              	.L79:
 544:/home/y/github/EmbeddedSoftwareMCU/Libraries/AT32/drivers/src/at32f403a_407_tmr.c **** 
 545:/home/y/github/EmbeddedSoftwareMCU/Libraries/AT32/drivers/src/at32f403a_407_tmr.c ****     case TMR_SELECT_CHANNEL_3:
 546:/home/y/github/EmbeddedSoftwareMCU/Libraries/AT32/drivers/src/at32f403a_407_tmr.c ****       tmr_x->c3dt = tmr_channel_value;
 1028              		.loc 1 546 0
 1029 0018 C263     		str	r2, [r0, #60]
 547:/home/y/github/EmbeddedSoftwareMCU/Libraries/AT32/drivers/src/at32f403a_407_tmr.c ****       break;
 1030              		.loc 1 547 0
 1031 001a 7047     		bx	lr
 1032              	.L80:
 548:/home/y/github/EmbeddedSoftwareMCU/Libraries/AT32/drivers/src/at32f403a_407_tmr.c **** 
 549:/home/y/github/EmbeddedSoftwareMCU/Libraries/AT32/drivers/src/at32f403a_407_tmr.c ****     case TMR_SELECT_CHANNEL_4:
 550:/home/y/github/EmbeddedSoftwareMCU/Libraries/AT32/drivers/src/at32f403a_407_tmr.c ****       tmr_x->c4dt = tmr_channel_value;
 1033              		.loc 1 550 0
 1034 001c 0264     		str	r2, [r0, #64]
 1035              	.L74:
 1036 001e 7047     		bx	lr
 1037              		.cfi_endproc
 1038              	.LFE150:
 1040              		.section	.text.tmr_channel_value_get,"ax",%progbits
 1041              		.align	1
 1042              		.global	tmr_channel_value_get
 1043              		.syntax unified
 1044              		.thumb
ARM GAS  /tmp/ccPqktXd.s 			page 29


 1045              		.thumb_func
 1046              		.fpu softvfp
 1048              	tmr_channel_value_get:
 1049              	.LFB151:
 551:/home/y/github/EmbeddedSoftwareMCU/Libraries/AT32/drivers/src/at32f403a_407_tmr.c ****       break;
 552:/home/y/github/EmbeddedSoftwareMCU/Libraries/AT32/drivers/src/at32f403a_407_tmr.c **** 
 553:/home/y/github/EmbeddedSoftwareMCU/Libraries/AT32/drivers/src/at32f403a_407_tmr.c ****     default:
 554:/home/y/github/EmbeddedSoftwareMCU/Libraries/AT32/drivers/src/at32f403a_407_tmr.c ****       break;
 555:/home/y/github/EmbeddedSoftwareMCU/Libraries/AT32/drivers/src/at32f403a_407_tmr.c ****   }
 556:/home/y/github/EmbeddedSoftwareMCU/Libraries/AT32/drivers/src/at32f403a_407_tmr.c **** }
 557:/home/y/github/EmbeddedSoftwareMCU/Libraries/AT32/drivers/src/at32f403a_407_tmr.c **** 
 558:/home/y/github/EmbeddedSoftwareMCU/Libraries/AT32/drivers/src/at32f403a_407_tmr.c **** /**
 559:/home/y/github/EmbeddedSoftwareMCU/Libraries/AT32/drivers/src/at32f403a_407_tmr.c ****   * @brief  get tmr channel value
 560:/home/y/github/EmbeddedSoftwareMCU/Libraries/AT32/drivers/src/at32f403a_407_tmr.c ****   * @param  tmr_x: select the tmr peripheral.
 561:/home/y/github/EmbeddedSoftwareMCU/Libraries/AT32/drivers/src/at32f403a_407_tmr.c ****   *         this parameter can be one of the following values:
 562:/home/y/github/EmbeddedSoftwareMCU/Libraries/AT32/drivers/src/at32f403a_407_tmr.c ****   *         TMR1, TMR2, TMR3, TMR4, TMR5, TMR8, TMR9, TMR10,
 563:/home/y/github/EmbeddedSoftwareMCU/Libraries/AT32/drivers/src/at32f403a_407_tmr.c ****   *         TMR11, TMR12, TMR13, TMR14
 564:/home/y/github/EmbeddedSoftwareMCU/Libraries/AT32/drivers/src/at32f403a_407_tmr.c ****   * @param  tmr_channel
 565:/home/y/github/EmbeddedSoftwareMCU/Libraries/AT32/drivers/src/at32f403a_407_tmr.c ****   *         this parameter can be one of the following values:
 566:/home/y/github/EmbeddedSoftwareMCU/Libraries/AT32/drivers/src/at32f403a_407_tmr.c ****   *         - TMR_SELECT_CHANNEL_1
 567:/home/y/github/EmbeddedSoftwareMCU/Libraries/AT32/drivers/src/at32f403a_407_tmr.c ****   *         - TMR_SELECT_CHANNEL_2
 568:/home/y/github/EmbeddedSoftwareMCU/Libraries/AT32/drivers/src/at32f403a_407_tmr.c ****   *         - TMR_SELECT_CHANNEL_3
 569:/home/y/github/EmbeddedSoftwareMCU/Libraries/AT32/drivers/src/at32f403a_407_tmr.c ****   *         - TMR_SELECT_CHANNEL_4
 570:/home/y/github/EmbeddedSoftwareMCU/Libraries/AT32/drivers/src/at32f403a_407_tmr.c ****   * @retval tmr channel value
 571:/home/y/github/EmbeddedSoftwareMCU/Libraries/AT32/drivers/src/at32f403a_407_tmr.c ****   */
 572:/home/y/github/EmbeddedSoftwareMCU/Libraries/AT32/drivers/src/at32f403a_407_tmr.c **** uint32_t tmr_channel_value_get(tmr_type *tmr_x, tmr_channel_select_type tmr_channel)
 573:/home/y/github/EmbeddedSoftwareMCU/Libraries/AT32/drivers/src/at32f403a_407_tmr.c **** {
 1050              		.loc 1 573 0
 1051              		.cfi_startproc
 1052              		@ args = 0, pretend = 0, frame = 0
 1053              		@ frame_needed = 0, uses_anonymous_args = 0
 1054              		@ link register save eliminated.
 1055              	.LVL105:
 574:/home/y/github/EmbeddedSoftwareMCU/Libraries/AT32/drivers/src/at32f403a_407_tmr.c ****   uint32_t cc_value_get = 0;
 575:/home/y/github/EmbeddedSoftwareMCU/Libraries/AT32/drivers/src/at32f403a_407_tmr.c ****   uint16_t channel;
 576:/home/y/github/EmbeddedSoftwareMCU/Libraries/AT32/drivers/src/at32f403a_407_tmr.c **** 
 577:/home/y/github/EmbeddedSoftwareMCU/Libraries/AT32/drivers/src/at32f403a_407_tmr.c ****   channel = tmr_channel;
 578:/home/y/github/EmbeddedSoftwareMCU/Libraries/AT32/drivers/src/at32f403a_407_tmr.c **** 
 579:/home/y/github/EmbeddedSoftwareMCU/Libraries/AT32/drivers/src/at32f403a_407_tmr.c ****   /* get tmr channel value */
 580:/home/y/github/EmbeddedSoftwareMCU/Libraries/AT32/drivers/src/at32f403a_407_tmr.c ****   switch(channel)
 1056              		.loc 1 580 0
 1057 0000 0629     		cmp	r1, #6
 1058 0002 0DD8     		bhi	.L88
 1059 0004 DFE801F0 		tbb	[pc, r1]
 1060              	.L84:
 1061 0008 04       		.byte	(.L83-.L84)/2
 1062 0009 0C       		.byte	(.L88-.L84)/2
 1063 000a 06       		.byte	(.L85-.L84)/2
 1064 000b 0C       		.byte	(.L88-.L84)/2
 1065 000c 08       		.byte	(.L86-.L84)/2
 1066 000d 0C       		.byte	(.L88-.L84)/2
 1067 000e 0A       		.byte	(.L87-.L84)/2
 1068 000f 00       		.p2align 1
 1069              	.L83:
 581:/home/y/github/EmbeddedSoftwareMCU/Libraries/AT32/drivers/src/at32f403a_407_tmr.c ****   {
 582:/home/y/github/EmbeddedSoftwareMCU/Libraries/AT32/drivers/src/at32f403a_407_tmr.c ****     case TMR_SELECT_CHANNEL_1:
 583:/home/y/github/EmbeddedSoftwareMCU/Libraries/AT32/drivers/src/at32f403a_407_tmr.c ****       cc_value_get = tmr_x->c1dt;
ARM GAS  /tmp/ccPqktXd.s 			page 30


 1070              		.loc 1 583 0
 1071 0010 406B     		ldr	r0, [r0, #52]
 1072              	.LVL106:
 584:/home/y/github/EmbeddedSoftwareMCU/Libraries/AT32/drivers/src/at32f403a_407_tmr.c ****       break;
 1073              		.loc 1 584 0
 1074 0012 7047     		bx	lr
 1075              	.LVL107:
 1076              	.L85:
 585:/home/y/github/EmbeddedSoftwareMCU/Libraries/AT32/drivers/src/at32f403a_407_tmr.c **** 
 586:/home/y/github/EmbeddedSoftwareMCU/Libraries/AT32/drivers/src/at32f403a_407_tmr.c ****     case TMR_SELECT_CHANNEL_2:
 587:/home/y/github/EmbeddedSoftwareMCU/Libraries/AT32/drivers/src/at32f403a_407_tmr.c ****       cc_value_get = tmr_x->c2dt;
 1077              		.loc 1 587 0
 1078 0014 806B     		ldr	r0, [r0, #56]
 1079              	.LVL108:
 588:/home/y/github/EmbeddedSoftwareMCU/Libraries/AT32/drivers/src/at32f403a_407_tmr.c ****       break;
 1080              		.loc 1 588 0
 1081 0016 7047     		bx	lr
 1082              	.LVL109:
 1083              	.L86:
 589:/home/y/github/EmbeddedSoftwareMCU/Libraries/AT32/drivers/src/at32f403a_407_tmr.c **** 
 590:/home/y/github/EmbeddedSoftwareMCU/Libraries/AT32/drivers/src/at32f403a_407_tmr.c ****     case TMR_SELECT_CHANNEL_3:
 591:/home/y/github/EmbeddedSoftwareMCU/Libraries/AT32/drivers/src/at32f403a_407_tmr.c ****       cc_value_get = tmr_x->c3dt;
 1084              		.loc 1 591 0
 1085 0018 C06B     		ldr	r0, [r0, #60]
 1086              	.LVL110:
 592:/home/y/github/EmbeddedSoftwareMCU/Libraries/AT32/drivers/src/at32f403a_407_tmr.c ****       break;
 1087              		.loc 1 592 0
 1088 001a 7047     		bx	lr
 1089              	.LVL111:
 1090              	.L87:
 593:/home/y/github/EmbeddedSoftwareMCU/Libraries/AT32/drivers/src/at32f403a_407_tmr.c **** 
 594:/home/y/github/EmbeddedSoftwareMCU/Libraries/AT32/drivers/src/at32f403a_407_tmr.c ****     case TMR_SELECT_CHANNEL_4:
 595:/home/y/github/EmbeddedSoftwareMCU/Libraries/AT32/drivers/src/at32f403a_407_tmr.c ****       cc_value_get = tmr_x->c4dt;
 1091              		.loc 1 595 0
 1092 001c 006C     		ldr	r0, [r0, #64]
 1093              	.LVL112:
 596:/home/y/github/EmbeddedSoftwareMCU/Libraries/AT32/drivers/src/at32f403a_407_tmr.c ****       break;
 1094              		.loc 1 596 0
 1095 001e 7047     		bx	lr
 1096              	.LVL113:
 1097              	.L88:
 574:/home/y/github/EmbeddedSoftwareMCU/Libraries/AT32/drivers/src/at32f403a_407_tmr.c ****   uint16_t channel;
 1098              		.loc 1 574 0
 1099 0020 0020     		movs	r0, #0
 1100              	.LVL114:
 597:/home/y/github/EmbeddedSoftwareMCU/Libraries/AT32/drivers/src/at32f403a_407_tmr.c **** 
 598:/home/y/github/EmbeddedSoftwareMCU/Libraries/AT32/drivers/src/at32f403a_407_tmr.c ****     default:
 599:/home/y/github/EmbeddedSoftwareMCU/Libraries/AT32/drivers/src/at32f403a_407_tmr.c ****       break;
 600:/home/y/github/EmbeddedSoftwareMCU/Libraries/AT32/drivers/src/at32f403a_407_tmr.c ****   }
 601:/home/y/github/EmbeddedSoftwareMCU/Libraries/AT32/drivers/src/at32f403a_407_tmr.c **** 
 602:/home/y/github/EmbeddedSoftwareMCU/Libraries/AT32/drivers/src/at32f403a_407_tmr.c ****   return cc_value_get;
 603:/home/y/github/EmbeddedSoftwareMCU/Libraries/AT32/drivers/src/at32f403a_407_tmr.c **** }
 1101              		.loc 1 603 0
 1102 0022 7047     		bx	lr
 1103              		.cfi_endproc
 1104              	.LFE151:
 1106              		.section	.text.tmr_period_buffer_enable,"ax",%progbits
ARM GAS  /tmp/ccPqktXd.s 			page 31


 1107              		.align	1
 1108              		.global	tmr_period_buffer_enable
 1109              		.syntax unified
 1110              		.thumb
 1111              		.thumb_func
 1112              		.fpu softvfp
 1114              	tmr_period_buffer_enable:
 1115              	.LFB152:
 604:/home/y/github/EmbeddedSoftwareMCU/Libraries/AT32/drivers/src/at32f403a_407_tmr.c **** /**
 605:/home/y/github/EmbeddedSoftwareMCU/Libraries/AT32/drivers/src/at32f403a_407_tmr.c ****   * @brief  enable tmr period buffer
 606:/home/y/github/EmbeddedSoftwareMCU/Libraries/AT32/drivers/src/at32f403a_407_tmr.c ****   * @param  tmr_x: select the tmr peripheral.
 607:/home/y/github/EmbeddedSoftwareMCU/Libraries/AT32/drivers/src/at32f403a_407_tmr.c ****   *         this parameter can be one of the following values:
 608:/home/y/github/EmbeddedSoftwareMCU/Libraries/AT32/drivers/src/at32f403a_407_tmr.c ****   *         TMR1, TMR2, TMR3, TMR4, TMR5, TMR6, TMR7, TMR8,
 609:/home/y/github/EmbeddedSoftwareMCU/Libraries/AT32/drivers/src/at32f403a_407_tmr.c ****   *         TMR9, TMR10, TMR11, TMR12, TMR13, TMR14
 610:/home/y/github/EmbeddedSoftwareMCU/Libraries/AT32/drivers/src/at32f403a_407_tmr.c ****   * @param  new_state (TRUE or FALSE)
 611:/home/y/github/EmbeddedSoftwareMCU/Libraries/AT32/drivers/src/at32f403a_407_tmr.c ****   * @retval none
 612:/home/y/github/EmbeddedSoftwareMCU/Libraries/AT32/drivers/src/at32f403a_407_tmr.c ****   */
 613:/home/y/github/EmbeddedSoftwareMCU/Libraries/AT32/drivers/src/at32f403a_407_tmr.c **** void tmr_period_buffer_enable(tmr_type *tmr_x, confirm_state new_state)
 614:/home/y/github/EmbeddedSoftwareMCU/Libraries/AT32/drivers/src/at32f403a_407_tmr.c **** {
 1116              		.loc 1 614 0
 1117              		.cfi_startproc
 1118              		@ args = 0, pretend = 0, frame = 0
 1119              		@ frame_needed = 0, uses_anonymous_args = 0
 1120              		@ link register save eliminated.
 1121              	.LVL115:
 615:/home/y/github/EmbeddedSoftwareMCU/Libraries/AT32/drivers/src/at32f403a_407_tmr.c ****   /* tmr period buffer set */
 616:/home/y/github/EmbeddedSoftwareMCU/Libraries/AT32/drivers/src/at32f403a_407_tmr.c ****   tmr_x->ctrl1_bit.prben = new_state;
 1122              		.loc 1 616 0
 1123 0000 0368     		ldr	r3, [r0]
 1124 0002 61F3C713 		bfi	r3, r1, #7, #1
 1125 0006 0360     		str	r3, [r0]
 1126 0008 7047     		bx	lr
 1127              		.cfi_endproc
 1128              	.LFE152:
 1130              		.section	.text.tmr_output_channel_buffer_enable,"ax",%progbits
 1131              		.align	1
 1132              		.global	tmr_output_channel_buffer_enable
 1133              		.syntax unified
 1134              		.thumb
 1135              		.thumb_func
 1136              		.fpu softvfp
 1138              	tmr_output_channel_buffer_enable:
 1139              	.LFB153:
 617:/home/y/github/EmbeddedSoftwareMCU/Libraries/AT32/drivers/src/at32f403a_407_tmr.c **** }
 618:/home/y/github/EmbeddedSoftwareMCU/Libraries/AT32/drivers/src/at32f403a_407_tmr.c **** 
 619:/home/y/github/EmbeddedSoftwareMCU/Libraries/AT32/drivers/src/at32f403a_407_tmr.c **** /**
 620:/home/y/github/EmbeddedSoftwareMCU/Libraries/AT32/drivers/src/at32f403a_407_tmr.c ****   * @brief  enable tmr output channel buffer
 621:/home/y/github/EmbeddedSoftwareMCU/Libraries/AT32/drivers/src/at32f403a_407_tmr.c ****   * @param  tmr_x: select the tmr peripheral.
 622:/home/y/github/EmbeddedSoftwareMCU/Libraries/AT32/drivers/src/at32f403a_407_tmr.c ****   *         this parameter can be one of the following values:
 623:/home/y/github/EmbeddedSoftwareMCU/Libraries/AT32/drivers/src/at32f403a_407_tmr.c ****   *         TMR1, TMR2, TMR3, TMR4, TMR5, TMR8, TMR9, TMR10,
 624:/home/y/github/EmbeddedSoftwareMCU/Libraries/AT32/drivers/src/at32f403a_407_tmr.c ****   *         TMR11, TMR12, TMR13, TMR14
 625:/home/y/github/EmbeddedSoftwareMCU/Libraries/AT32/drivers/src/at32f403a_407_tmr.c ****   * @param  tmr_channel
 626:/home/y/github/EmbeddedSoftwareMCU/Libraries/AT32/drivers/src/at32f403a_407_tmr.c ****   *         this parameter can be one of the following values:
 627:/home/y/github/EmbeddedSoftwareMCU/Libraries/AT32/drivers/src/at32f403a_407_tmr.c ****   *         - TMR_SELECT_CHANNEL_1
 628:/home/y/github/EmbeddedSoftwareMCU/Libraries/AT32/drivers/src/at32f403a_407_tmr.c ****   *         - TMR_SELECT_CHANNEL_2
 629:/home/y/github/EmbeddedSoftwareMCU/Libraries/AT32/drivers/src/at32f403a_407_tmr.c ****   *         - TMR_SELECT_CHANNEL_3
 630:/home/y/github/EmbeddedSoftwareMCU/Libraries/AT32/drivers/src/at32f403a_407_tmr.c ****   *         - TMR_SELECT_CHANNEL_4
ARM GAS  /tmp/ccPqktXd.s 			page 32


 631:/home/y/github/EmbeddedSoftwareMCU/Libraries/AT32/drivers/src/at32f403a_407_tmr.c ****   * @param  new_state (TRUE or FALSE)
 632:/home/y/github/EmbeddedSoftwareMCU/Libraries/AT32/drivers/src/at32f403a_407_tmr.c ****   * @retval none
 633:/home/y/github/EmbeddedSoftwareMCU/Libraries/AT32/drivers/src/at32f403a_407_tmr.c ****   */
 634:/home/y/github/EmbeddedSoftwareMCU/Libraries/AT32/drivers/src/at32f403a_407_tmr.c **** void tmr_output_channel_buffer_enable(tmr_type *tmr_x, tmr_channel_select_type tmr_channel,
 635:/home/y/github/EmbeddedSoftwareMCU/Libraries/AT32/drivers/src/at32f403a_407_tmr.c ****                                    confirm_state new_state)
 636:/home/y/github/EmbeddedSoftwareMCU/Libraries/AT32/drivers/src/at32f403a_407_tmr.c **** {
 1140              		.loc 1 636 0
 1141              		.cfi_startproc
 1142              		@ args = 0, pretend = 0, frame = 0
 1143              		@ frame_needed = 0, uses_anonymous_args = 0
 1144              		@ link register save eliminated.
 1145              	.LVL116:
 637:/home/y/github/EmbeddedSoftwareMCU/Libraries/AT32/drivers/src/at32f403a_407_tmr.c ****   uint16_t channel;
 638:/home/y/github/EmbeddedSoftwareMCU/Libraries/AT32/drivers/src/at32f403a_407_tmr.c **** 
 639:/home/y/github/EmbeddedSoftwareMCU/Libraries/AT32/drivers/src/at32f403a_407_tmr.c ****   channel = tmr_channel;
 640:/home/y/github/EmbeddedSoftwareMCU/Libraries/AT32/drivers/src/at32f403a_407_tmr.c **** 
 641:/home/y/github/EmbeddedSoftwareMCU/Libraries/AT32/drivers/src/at32f403a_407_tmr.c ****   /* get tmr channel value */
 642:/home/y/github/EmbeddedSoftwareMCU/Libraries/AT32/drivers/src/at32f403a_407_tmr.c ****   switch(channel)
 1146              		.loc 1 642 0
 1147 0000 0629     		cmp	r1, #6
 1148 0002 18D8     		bhi	.L90
 1149 0004 DFE801F0 		tbb	[pc, r1]
 1150              	.L93:
 1151 0008 04       		.byte	(.L92-.L93)/2
 1152 0009 17       		.byte	(.L90-.L93)/2
 1153 000a 09       		.byte	(.L94-.L93)/2
 1154 000b 17       		.byte	(.L90-.L93)/2
 1155 000c 0E       		.byte	(.L95-.L93)/2
 1156 000d 17       		.byte	(.L90-.L93)/2
 1157 000e 13       		.byte	(.L96-.L93)/2
 1158 000f 00       		.p2align 1
 1159              	.L92:
 643:/home/y/github/EmbeddedSoftwareMCU/Libraries/AT32/drivers/src/at32f403a_407_tmr.c ****   {
 644:/home/y/github/EmbeddedSoftwareMCU/Libraries/AT32/drivers/src/at32f403a_407_tmr.c ****     case TMR_SELECT_CHANNEL_1:
 645:/home/y/github/EmbeddedSoftwareMCU/Libraries/AT32/drivers/src/at32f403a_407_tmr.c ****       tmr_x->cm1_output_bit.c1oben = new_state;
 1160              		.loc 1 645 0
 1161 0010 8369     		ldr	r3, [r0, #24]
 1162 0012 62F3C303 		bfi	r3, r2, #3, #1
 1163 0016 8361     		str	r3, [r0, #24]
 646:/home/y/github/EmbeddedSoftwareMCU/Libraries/AT32/drivers/src/at32f403a_407_tmr.c ****       break;
 1164              		.loc 1 646 0
 1165 0018 7047     		bx	lr
 1166              	.L94:
 647:/home/y/github/EmbeddedSoftwareMCU/Libraries/AT32/drivers/src/at32f403a_407_tmr.c **** 
 648:/home/y/github/EmbeddedSoftwareMCU/Libraries/AT32/drivers/src/at32f403a_407_tmr.c ****     case TMR_SELECT_CHANNEL_2:
 649:/home/y/github/EmbeddedSoftwareMCU/Libraries/AT32/drivers/src/at32f403a_407_tmr.c ****       tmr_x->cm1_output_bit.c2oben = new_state;
 1167              		.loc 1 649 0
 1168 001a 8369     		ldr	r3, [r0, #24]
 1169 001c 62F3CB23 		bfi	r3, r2, #11, #1
 1170 0020 8361     		str	r3, [r0, #24]
 650:/home/y/github/EmbeddedSoftwareMCU/Libraries/AT32/drivers/src/at32f403a_407_tmr.c ****       break;
 1171              		.loc 1 650 0
 1172 0022 7047     		bx	lr
 1173              	.L95:
 651:/home/y/github/EmbeddedSoftwareMCU/Libraries/AT32/drivers/src/at32f403a_407_tmr.c **** 
 652:/home/y/github/EmbeddedSoftwareMCU/Libraries/AT32/drivers/src/at32f403a_407_tmr.c ****     case TMR_SELECT_CHANNEL_3:
 653:/home/y/github/EmbeddedSoftwareMCU/Libraries/AT32/drivers/src/at32f403a_407_tmr.c ****       tmr_x->cm2_output_bit.c3oben = new_state;
ARM GAS  /tmp/ccPqktXd.s 			page 33


 1174              		.loc 1 653 0
 1175 0024 C369     		ldr	r3, [r0, #28]
 1176 0026 62F3C303 		bfi	r3, r2, #3, #1
 1177 002a C361     		str	r3, [r0, #28]
 654:/home/y/github/EmbeddedSoftwareMCU/Libraries/AT32/drivers/src/at32f403a_407_tmr.c ****       break;
 1178              		.loc 1 654 0
 1179 002c 7047     		bx	lr
 1180              	.L96:
 655:/home/y/github/EmbeddedSoftwareMCU/Libraries/AT32/drivers/src/at32f403a_407_tmr.c **** 
 656:/home/y/github/EmbeddedSoftwareMCU/Libraries/AT32/drivers/src/at32f403a_407_tmr.c ****     case TMR_SELECT_CHANNEL_4:
 657:/home/y/github/EmbeddedSoftwareMCU/Libraries/AT32/drivers/src/at32f403a_407_tmr.c ****       tmr_x->cm2_output_bit.c4oben = new_state;
 1181              		.loc 1 657 0
 1182 002e C369     		ldr	r3, [r0, #28]
 1183 0030 62F3CB23 		bfi	r3, r2, #11, #1
 1184 0034 C361     		str	r3, [r0, #28]
 1185              	.L90:
 1186 0036 7047     		bx	lr
 1187              		.cfi_endproc
 1188              	.LFE153:
 1190              		.section	.text.tmr_output_channel_immediately_set,"ax",%progbits
 1191              		.align	1
 1192              		.global	tmr_output_channel_immediately_set
 1193              		.syntax unified
 1194              		.thumb
 1195              		.thumb_func
 1196              		.fpu softvfp
 1198              	tmr_output_channel_immediately_set:
 1199              	.LFB154:
 658:/home/y/github/EmbeddedSoftwareMCU/Libraries/AT32/drivers/src/at32f403a_407_tmr.c ****       break;
 659:/home/y/github/EmbeddedSoftwareMCU/Libraries/AT32/drivers/src/at32f403a_407_tmr.c **** 
 660:/home/y/github/EmbeddedSoftwareMCU/Libraries/AT32/drivers/src/at32f403a_407_tmr.c ****     default:
 661:/home/y/github/EmbeddedSoftwareMCU/Libraries/AT32/drivers/src/at32f403a_407_tmr.c ****       break;
 662:/home/y/github/EmbeddedSoftwareMCU/Libraries/AT32/drivers/src/at32f403a_407_tmr.c ****   }
 663:/home/y/github/EmbeddedSoftwareMCU/Libraries/AT32/drivers/src/at32f403a_407_tmr.c **** }
 664:/home/y/github/EmbeddedSoftwareMCU/Libraries/AT32/drivers/src/at32f403a_407_tmr.c **** 
 665:/home/y/github/EmbeddedSoftwareMCU/Libraries/AT32/drivers/src/at32f403a_407_tmr.c **** /**
 666:/home/y/github/EmbeddedSoftwareMCU/Libraries/AT32/drivers/src/at32f403a_407_tmr.c ****   * @brief  set tmr output channel immediately
 667:/home/y/github/EmbeddedSoftwareMCU/Libraries/AT32/drivers/src/at32f403a_407_tmr.c ****   * @param  tmr_x: select the tmr peripheral.
 668:/home/y/github/EmbeddedSoftwareMCU/Libraries/AT32/drivers/src/at32f403a_407_tmr.c ****   *         this parameter can be one of the following values:
 669:/home/y/github/EmbeddedSoftwareMCU/Libraries/AT32/drivers/src/at32f403a_407_tmr.c ****   *         TMR1, TMR2, TMR3, TMR4, TMR5, TMR8, TMR9, TMR10,
 670:/home/y/github/EmbeddedSoftwareMCU/Libraries/AT32/drivers/src/at32f403a_407_tmr.c ****   *         TMR11, TMR12, TMR13, TMR14
 671:/home/y/github/EmbeddedSoftwareMCU/Libraries/AT32/drivers/src/at32f403a_407_tmr.c ****   * @param  tmr_channel
 672:/home/y/github/EmbeddedSoftwareMCU/Libraries/AT32/drivers/src/at32f403a_407_tmr.c ****   *         this parameter can be one of the following values:
 673:/home/y/github/EmbeddedSoftwareMCU/Libraries/AT32/drivers/src/at32f403a_407_tmr.c ****   *         - TMR_SELECT_CHANNEL_1
 674:/home/y/github/EmbeddedSoftwareMCU/Libraries/AT32/drivers/src/at32f403a_407_tmr.c ****   *         - TMR_SELECT_CHANNEL_2
 675:/home/y/github/EmbeddedSoftwareMCU/Libraries/AT32/drivers/src/at32f403a_407_tmr.c ****   *         - TMR_SELECT_CHANNEL_3
 676:/home/y/github/EmbeddedSoftwareMCU/Libraries/AT32/drivers/src/at32f403a_407_tmr.c ****   *         - TMR_SELECT_CHANNEL_4
 677:/home/y/github/EmbeddedSoftwareMCU/Libraries/AT32/drivers/src/at32f403a_407_tmr.c ****   * @param  new_state (TRUE or FALSE)
 678:/home/y/github/EmbeddedSoftwareMCU/Libraries/AT32/drivers/src/at32f403a_407_tmr.c ****   * @retval none
 679:/home/y/github/EmbeddedSoftwareMCU/Libraries/AT32/drivers/src/at32f403a_407_tmr.c ****   */
 680:/home/y/github/EmbeddedSoftwareMCU/Libraries/AT32/drivers/src/at32f403a_407_tmr.c **** void tmr_output_channel_immediately_set(tmr_type *tmr_x, tmr_channel_select_type tmr_channel,
 681:/home/y/github/EmbeddedSoftwareMCU/Libraries/AT32/drivers/src/at32f403a_407_tmr.c ****                                         confirm_state new_state)
 682:/home/y/github/EmbeddedSoftwareMCU/Libraries/AT32/drivers/src/at32f403a_407_tmr.c **** {
 1200              		.loc 1 682 0
 1201              		.cfi_startproc
 1202              		@ args = 0, pretend = 0, frame = 0
 1203              		@ frame_needed = 0, uses_anonymous_args = 0
ARM GAS  /tmp/ccPqktXd.s 			page 34


 1204              		@ link register save eliminated.
 1205              	.LVL117:
 683:/home/y/github/EmbeddedSoftwareMCU/Libraries/AT32/drivers/src/at32f403a_407_tmr.c ****   uint16_t channel;
 684:/home/y/github/EmbeddedSoftwareMCU/Libraries/AT32/drivers/src/at32f403a_407_tmr.c **** 
 685:/home/y/github/EmbeddedSoftwareMCU/Libraries/AT32/drivers/src/at32f403a_407_tmr.c ****   channel = tmr_channel;
 686:/home/y/github/EmbeddedSoftwareMCU/Libraries/AT32/drivers/src/at32f403a_407_tmr.c **** 
 687:/home/y/github/EmbeddedSoftwareMCU/Libraries/AT32/drivers/src/at32f403a_407_tmr.c ****   /* get tmr channel value */
 688:/home/y/github/EmbeddedSoftwareMCU/Libraries/AT32/drivers/src/at32f403a_407_tmr.c ****   switch(channel)
 1206              		.loc 1 688 0
 1207 0000 0629     		cmp	r1, #6
 1208 0002 18D8     		bhi	.L97
 1209 0004 DFE801F0 		tbb	[pc, r1]
 1210              	.L100:
 1211 0008 04       		.byte	(.L99-.L100)/2
 1212 0009 17       		.byte	(.L97-.L100)/2
 1213 000a 09       		.byte	(.L101-.L100)/2
 1214 000b 17       		.byte	(.L97-.L100)/2
 1215 000c 0E       		.byte	(.L102-.L100)/2
 1216 000d 17       		.byte	(.L97-.L100)/2
 1217 000e 13       		.byte	(.L103-.L100)/2
 1218 000f 00       		.p2align 1
 1219              	.L99:
 689:/home/y/github/EmbeddedSoftwareMCU/Libraries/AT32/drivers/src/at32f403a_407_tmr.c ****   {
 690:/home/y/github/EmbeddedSoftwareMCU/Libraries/AT32/drivers/src/at32f403a_407_tmr.c ****     case TMR_SELECT_CHANNEL_1:
 691:/home/y/github/EmbeddedSoftwareMCU/Libraries/AT32/drivers/src/at32f403a_407_tmr.c ****       tmr_x->cm1_output_bit.c1oien = new_state;
 1220              		.loc 1 691 0
 1221 0010 8369     		ldr	r3, [r0, #24]
 1222 0012 62F38203 		bfi	r3, r2, #2, #1
 1223 0016 8361     		str	r3, [r0, #24]
 692:/home/y/github/EmbeddedSoftwareMCU/Libraries/AT32/drivers/src/at32f403a_407_tmr.c ****       break;
 1224              		.loc 1 692 0
 1225 0018 7047     		bx	lr
 1226              	.L101:
 693:/home/y/github/EmbeddedSoftwareMCU/Libraries/AT32/drivers/src/at32f403a_407_tmr.c **** 
 694:/home/y/github/EmbeddedSoftwareMCU/Libraries/AT32/drivers/src/at32f403a_407_tmr.c ****     case TMR_SELECT_CHANNEL_2:
 695:/home/y/github/EmbeddedSoftwareMCU/Libraries/AT32/drivers/src/at32f403a_407_tmr.c ****       tmr_x->cm1_output_bit.c2oien = new_state;
 1227              		.loc 1 695 0
 1228 001a 8369     		ldr	r3, [r0, #24]
 1229 001c 62F38A23 		bfi	r3, r2, #10, #1
 1230 0020 8361     		str	r3, [r0, #24]
 696:/home/y/github/EmbeddedSoftwareMCU/Libraries/AT32/drivers/src/at32f403a_407_tmr.c ****       break;
 1231              		.loc 1 696 0
 1232 0022 7047     		bx	lr
 1233              	.L102:
 697:/home/y/github/EmbeddedSoftwareMCU/Libraries/AT32/drivers/src/at32f403a_407_tmr.c **** 
 698:/home/y/github/EmbeddedSoftwareMCU/Libraries/AT32/drivers/src/at32f403a_407_tmr.c ****     case TMR_SELECT_CHANNEL_3:
 699:/home/y/github/EmbeddedSoftwareMCU/Libraries/AT32/drivers/src/at32f403a_407_tmr.c ****       tmr_x->cm2_output_bit.c3oien = new_state;
 1234              		.loc 1 699 0
 1235 0024 C369     		ldr	r3, [r0, #28]
 1236 0026 62F38203 		bfi	r3, r2, #2, #1
 1237 002a C361     		str	r3, [r0, #28]
 700:/home/y/github/EmbeddedSoftwareMCU/Libraries/AT32/drivers/src/at32f403a_407_tmr.c ****       break;
 1238              		.loc 1 700 0
 1239 002c 7047     		bx	lr
 1240              	.L103:
 701:/home/y/github/EmbeddedSoftwareMCU/Libraries/AT32/drivers/src/at32f403a_407_tmr.c **** 
 702:/home/y/github/EmbeddedSoftwareMCU/Libraries/AT32/drivers/src/at32f403a_407_tmr.c ****     case TMR_SELECT_CHANNEL_4:
ARM GAS  /tmp/ccPqktXd.s 			page 35


 703:/home/y/github/EmbeddedSoftwareMCU/Libraries/AT32/drivers/src/at32f403a_407_tmr.c ****       tmr_x->cm2_output_bit.c4oien = new_state;
 1241              		.loc 1 703 0
 1242 002e C369     		ldr	r3, [r0, #28]
 1243 0030 62F38A23 		bfi	r3, r2, #10, #1
 1244 0034 C361     		str	r3, [r0, #28]
 1245              	.L97:
 1246 0036 7047     		bx	lr
 1247              		.cfi_endproc
 1248              	.LFE154:
 1250              		.section	.text.tmr_output_channel_switch_set,"ax",%progbits
 1251              		.align	1
 1252              		.global	tmr_output_channel_switch_set
 1253              		.syntax unified
 1254              		.thumb
 1255              		.thumb_func
 1256              		.fpu softvfp
 1258              	tmr_output_channel_switch_set:
 1259              	.LFB155:
 704:/home/y/github/EmbeddedSoftwareMCU/Libraries/AT32/drivers/src/at32f403a_407_tmr.c ****       break;
 705:/home/y/github/EmbeddedSoftwareMCU/Libraries/AT32/drivers/src/at32f403a_407_tmr.c **** 
 706:/home/y/github/EmbeddedSoftwareMCU/Libraries/AT32/drivers/src/at32f403a_407_tmr.c ****     default:
 707:/home/y/github/EmbeddedSoftwareMCU/Libraries/AT32/drivers/src/at32f403a_407_tmr.c ****       break;
 708:/home/y/github/EmbeddedSoftwareMCU/Libraries/AT32/drivers/src/at32f403a_407_tmr.c ****   }
 709:/home/y/github/EmbeddedSoftwareMCU/Libraries/AT32/drivers/src/at32f403a_407_tmr.c **** }
 710:/home/y/github/EmbeddedSoftwareMCU/Libraries/AT32/drivers/src/at32f403a_407_tmr.c **** 
 711:/home/y/github/EmbeddedSoftwareMCU/Libraries/AT32/drivers/src/at32f403a_407_tmr.c **** /**
 712:/home/y/github/EmbeddedSoftwareMCU/Libraries/AT32/drivers/src/at32f403a_407_tmr.c ****   * @brief  set tmr output channel switch
 713:/home/y/github/EmbeddedSoftwareMCU/Libraries/AT32/drivers/src/at32f403a_407_tmr.c ****   * @param  tmr_x: select the tmr peripheral.
 714:/home/y/github/EmbeddedSoftwareMCU/Libraries/AT32/drivers/src/at32f403a_407_tmr.c ****   *         this parameter can be one of the following values:
 715:/home/y/github/EmbeddedSoftwareMCU/Libraries/AT32/drivers/src/at32f403a_407_tmr.c ****   *         TMR1, TMR2, TMR3, TMR4, TMR5, TMR8, TMR9, TMR10,
 716:/home/y/github/EmbeddedSoftwareMCU/Libraries/AT32/drivers/src/at32f403a_407_tmr.c ****   *         TMR11, TMR12, TMR13, TMR14
 717:/home/y/github/EmbeddedSoftwareMCU/Libraries/AT32/drivers/src/at32f403a_407_tmr.c ****   * @param  tmr_channel
 718:/home/y/github/EmbeddedSoftwareMCU/Libraries/AT32/drivers/src/at32f403a_407_tmr.c ****   *         this parameter can be one of the following values:
 719:/home/y/github/EmbeddedSoftwareMCU/Libraries/AT32/drivers/src/at32f403a_407_tmr.c ****   *         - TMR_SELECT_CHANNEL_1
 720:/home/y/github/EmbeddedSoftwareMCU/Libraries/AT32/drivers/src/at32f403a_407_tmr.c ****   *         - TMR_SELECT_CHANNEL_2
 721:/home/y/github/EmbeddedSoftwareMCU/Libraries/AT32/drivers/src/at32f403a_407_tmr.c ****   *         - TMR_SELECT_CHANNEL_3
 722:/home/y/github/EmbeddedSoftwareMCU/Libraries/AT32/drivers/src/at32f403a_407_tmr.c ****   *         - TMR_SELECT_CHANNEL_4
 723:/home/y/github/EmbeddedSoftwareMCU/Libraries/AT32/drivers/src/at32f403a_407_tmr.c ****   * @param  new_state (TRUE or FALSE)
 724:/home/y/github/EmbeddedSoftwareMCU/Libraries/AT32/drivers/src/at32f403a_407_tmr.c ****   * @retval none
 725:/home/y/github/EmbeddedSoftwareMCU/Libraries/AT32/drivers/src/at32f403a_407_tmr.c ****   */
 726:/home/y/github/EmbeddedSoftwareMCU/Libraries/AT32/drivers/src/at32f403a_407_tmr.c **** void tmr_output_channel_switch_set(tmr_type *tmr_x, tmr_channel_select_type tmr_channel,
 727:/home/y/github/EmbeddedSoftwareMCU/Libraries/AT32/drivers/src/at32f403a_407_tmr.c ****                                    confirm_state new_state)
 728:/home/y/github/EmbeddedSoftwareMCU/Libraries/AT32/drivers/src/at32f403a_407_tmr.c **** {
 1260              		.loc 1 728 0
 1261              		.cfi_startproc
 1262              		@ args = 0, pretend = 0, frame = 0
 1263              		@ frame_needed = 0, uses_anonymous_args = 0
 1264              		@ link register save eliminated.
 1265              	.LVL118:
 729:/home/y/github/EmbeddedSoftwareMCU/Libraries/AT32/drivers/src/at32f403a_407_tmr.c ****   uint16_t channel;
 730:/home/y/github/EmbeddedSoftwareMCU/Libraries/AT32/drivers/src/at32f403a_407_tmr.c **** 
 731:/home/y/github/EmbeddedSoftwareMCU/Libraries/AT32/drivers/src/at32f403a_407_tmr.c ****   channel = tmr_channel;
 732:/home/y/github/EmbeddedSoftwareMCU/Libraries/AT32/drivers/src/at32f403a_407_tmr.c **** 
 733:/home/y/github/EmbeddedSoftwareMCU/Libraries/AT32/drivers/src/at32f403a_407_tmr.c ****   /* get tmr channel value */
 734:/home/y/github/EmbeddedSoftwareMCU/Libraries/AT32/drivers/src/at32f403a_407_tmr.c ****   switch(channel)
 1266              		.loc 1 734 0
 1267 0000 0629     		cmp	r1, #6
ARM GAS  /tmp/ccPqktXd.s 			page 36


 1268 0002 18D8     		bhi	.L104
 1269 0004 DFE801F0 		tbb	[pc, r1]
 1270              	.L107:
 1271 0008 04       		.byte	(.L106-.L107)/2
 1272 0009 17       		.byte	(.L104-.L107)/2
 1273 000a 09       		.byte	(.L108-.L107)/2
 1274 000b 17       		.byte	(.L104-.L107)/2
 1275 000c 0E       		.byte	(.L109-.L107)/2
 1276 000d 17       		.byte	(.L104-.L107)/2
 1277 000e 13       		.byte	(.L110-.L107)/2
 1278 000f 00       		.p2align 1
 1279              	.L106:
 735:/home/y/github/EmbeddedSoftwareMCU/Libraries/AT32/drivers/src/at32f403a_407_tmr.c ****   {
 736:/home/y/github/EmbeddedSoftwareMCU/Libraries/AT32/drivers/src/at32f403a_407_tmr.c ****     case TMR_SELECT_CHANNEL_1:
 737:/home/y/github/EmbeddedSoftwareMCU/Libraries/AT32/drivers/src/at32f403a_407_tmr.c ****       tmr_x->cm1_output_bit.c1osen = new_state;
 1280              		.loc 1 737 0
 1281 0010 8369     		ldr	r3, [r0, #24]
 1282 0012 62F3C713 		bfi	r3, r2, #7, #1
 1283 0016 8361     		str	r3, [r0, #24]
 738:/home/y/github/EmbeddedSoftwareMCU/Libraries/AT32/drivers/src/at32f403a_407_tmr.c ****       break;
 1284              		.loc 1 738 0
 1285 0018 7047     		bx	lr
 1286              	.L108:
 739:/home/y/github/EmbeddedSoftwareMCU/Libraries/AT32/drivers/src/at32f403a_407_tmr.c **** 
 740:/home/y/github/EmbeddedSoftwareMCU/Libraries/AT32/drivers/src/at32f403a_407_tmr.c ****     case TMR_SELECT_CHANNEL_2:
 741:/home/y/github/EmbeddedSoftwareMCU/Libraries/AT32/drivers/src/at32f403a_407_tmr.c ****       tmr_x->cm1_output_bit.c2osen = new_state;
 1287              		.loc 1 741 0
 1288 001a 8369     		ldr	r3, [r0, #24]
 1289 001c 62F3CF33 		bfi	r3, r2, #15, #1
 1290 0020 8361     		str	r3, [r0, #24]
 742:/home/y/github/EmbeddedSoftwareMCU/Libraries/AT32/drivers/src/at32f403a_407_tmr.c ****       break;
 1291              		.loc 1 742 0
 1292 0022 7047     		bx	lr
 1293              	.L109:
 743:/home/y/github/EmbeddedSoftwareMCU/Libraries/AT32/drivers/src/at32f403a_407_tmr.c **** 
 744:/home/y/github/EmbeddedSoftwareMCU/Libraries/AT32/drivers/src/at32f403a_407_tmr.c ****     case TMR_SELECT_CHANNEL_3:
 745:/home/y/github/EmbeddedSoftwareMCU/Libraries/AT32/drivers/src/at32f403a_407_tmr.c ****       tmr_x->cm2_output_bit.c3osen = new_state;
 1294              		.loc 1 745 0
 1295 0024 C369     		ldr	r3, [r0, #28]
 1296 0026 62F3C713 		bfi	r3, r2, #7, #1
 1297 002a C361     		str	r3, [r0, #28]
 746:/home/y/github/EmbeddedSoftwareMCU/Libraries/AT32/drivers/src/at32f403a_407_tmr.c ****       break;
 1298              		.loc 1 746 0
 1299 002c 7047     		bx	lr
 1300              	.L110:
 747:/home/y/github/EmbeddedSoftwareMCU/Libraries/AT32/drivers/src/at32f403a_407_tmr.c **** 
 748:/home/y/github/EmbeddedSoftwareMCU/Libraries/AT32/drivers/src/at32f403a_407_tmr.c ****     case TMR_SELECT_CHANNEL_4:
 749:/home/y/github/EmbeddedSoftwareMCU/Libraries/AT32/drivers/src/at32f403a_407_tmr.c ****       tmr_x->cm2_output_bit.c4osen = new_state;
 1301              		.loc 1 749 0
 1302 002e C369     		ldr	r3, [r0, #28]
 1303 0030 62F3CF33 		bfi	r3, r2, #15, #1
 1304 0034 C361     		str	r3, [r0, #28]
 1305              	.L104:
 1306 0036 7047     		bx	lr
 1307              		.cfi_endproc
 1308              	.LFE155:
 1310              		.section	.text.tmr_one_cycle_mode_enable,"ax",%progbits
ARM GAS  /tmp/ccPqktXd.s 			page 37


 1311              		.align	1
 1312              		.global	tmr_one_cycle_mode_enable
 1313              		.syntax unified
 1314              		.thumb
 1315              		.thumb_func
 1316              		.fpu softvfp
 1318              	tmr_one_cycle_mode_enable:
 1319              	.LFB156:
 750:/home/y/github/EmbeddedSoftwareMCU/Libraries/AT32/drivers/src/at32f403a_407_tmr.c ****       break;
 751:/home/y/github/EmbeddedSoftwareMCU/Libraries/AT32/drivers/src/at32f403a_407_tmr.c **** 
 752:/home/y/github/EmbeddedSoftwareMCU/Libraries/AT32/drivers/src/at32f403a_407_tmr.c ****     default:
 753:/home/y/github/EmbeddedSoftwareMCU/Libraries/AT32/drivers/src/at32f403a_407_tmr.c ****       break;
 754:/home/y/github/EmbeddedSoftwareMCU/Libraries/AT32/drivers/src/at32f403a_407_tmr.c ****   }
 755:/home/y/github/EmbeddedSoftwareMCU/Libraries/AT32/drivers/src/at32f403a_407_tmr.c **** }
 756:/home/y/github/EmbeddedSoftwareMCU/Libraries/AT32/drivers/src/at32f403a_407_tmr.c **** 
 757:/home/y/github/EmbeddedSoftwareMCU/Libraries/AT32/drivers/src/at32f403a_407_tmr.c **** /**
 758:/home/y/github/EmbeddedSoftwareMCU/Libraries/AT32/drivers/src/at32f403a_407_tmr.c ****   * @brief  enable or disable tmr one cycle mode
 759:/home/y/github/EmbeddedSoftwareMCU/Libraries/AT32/drivers/src/at32f403a_407_tmr.c ****   * @param  tmr_x: select the tmr peripheral.
 760:/home/y/github/EmbeddedSoftwareMCU/Libraries/AT32/drivers/src/at32f403a_407_tmr.c ****   *         this parameter can be one of the following values:
 761:/home/y/github/EmbeddedSoftwareMCU/Libraries/AT32/drivers/src/at32f403a_407_tmr.c ****   *         TMR1, TMR2, TMR3, TMR4, TMR5, TMR6, TMR7, TMR8, TMR9, TMR12
 762:/home/y/github/EmbeddedSoftwareMCU/Libraries/AT32/drivers/src/at32f403a_407_tmr.c ****   * @param  new_state (TRUE or FALSE)
 763:/home/y/github/EmbeddedSoftwareMCU/Libraries/AT32/drivers/src/at32f403a_407_tmr.c ****   * @retval none
 764:/home/y/github/EmbeddedSoftwareMCU/Libraries/AT32/drivers/src/at32f403a_407_tmr.c ****   */
 765:/home/y/github/EmbeddedSoftwareMCU/Libraries/AT32/drivers/src/at32f403a_407_tmr.c **** void tmr_one_cycle_mode_enable(tmr_type *tmr_x, confirm_state new_state)
 766:/home/y/github/EmbeddedSoftwareMCU/Libraries/AT32/drivers/src/at32f403a_407_tmr.c **** {
 1320              		.loc 1 766 0
 1321              		.cfi_startproc
 1322              		@ args = 0, pretend = 0, frame = 0
 1323              		@ frame_needed = 0, uses_anonymous_args = 0
 1324              		@ link register save eliminated.
 1325              	.LVL119:
 767:/home/y/github/EmbeddedSoftwareMCU/Libraries/AT32/drivers/src/at32f403a_407_tmr.c ****   /* tmr one cycle mode enable */
 768:/home/y/github/EmbeddedSoftwareMCU/Libraries/AT32/drivers/src/at32f403a_407_tmr.c ****   tmr_x->ctrl1_bit.ocmen = new_state;
 1326              		.loc 1 768 0
 1327 0000 0368     		ldr	r3, [r0]
 1328 0002 61F3C303 		bfi	r3, r1, #3, #1
 1329 0006 0360     		str	r3, [r0]
 1330 0008 7047     		bx	lr
 1331              		.cfi_endproc
 1332              	.LFE156:
 1334              		.section	.text.tmr_32_bit_function_enable,"ax",%progbits
 1335              		.align	1
 1336              		.global	tmr_32_bit_function_enable
 1337              		.syntax unified
 1338              		.thumb
 1339              		.thumb_func
 1340              		.fpu softvfp
 1342              	tmr_32_bit_function_enable:
 1343              	.LFB157:
 769:/home/y/github/EmbeddedSoftwareMCU/Libraries/AT32/drivers/src/at32f403a_407_tmr.c **** }
 770:/home/y/github/EmbeddedSoftwareMCU/Libraries/AT32/drivers/src/at32f403a_407_tmr.c **** 
 771:/home/y/github/EmbeddedSoftwareMCU/Libraries/AT32/drivers/src/at32f403a_407_tmr.c **** /**
 772:/home/y/github/EmbeddedSoftwareMCU/Libraries/AT32/drivers/src/at32f403a_407_tmr.c ****   * @brief  enable or disable  tmr 32 bit function(plus mode)
 773:/home/y/github/EmbeddedSoftwareMCU/Libraries/AT32/drivers/src/at32f403a_407_tmr.c ****   * @param  tmr_x: select the tmr peripheral.
 774:/home/y/github/EmbeddedSoftwareMCU/Libraries/AT32/drivers/src/at32f403a_407_tmr.c ****   *         this parameter can be one of the following values:
 775:/home/y/github/EmbeddedSoftwareMCU/Libraries/AT32/drivers/src/at32f403a_407_tmr.c ****   *         TMR2, TMR5
 776:/home/y/github/EmbeddedSoftwareMCU/Libraries/AT32/drivers/src/at32f403a_407_tmr.c ****   * @param  new_state (TRUE or FALSE)
ARM GAS  /tmp/ccPqktXd.s 			page 38


 777:/home/y/github/EmbeddedSoftwareMCU/Libraries/AT32/drivers/src/at32f403a_407_tmr.c ****   * @retval none
 778:/home/y/github/EmbeddedSoftwareMCU/Libraries/AT32/drivers/src/at32f403a_407_tmr.c ****   */
 779:/home/y/github/EmbeddedSoftwareMCU/Libraries/AT32/drivers/src/at32f403a_407_tmr.c **** void tmr_32_bit_function_enable (tmr_type *tmr_x, confirm_state new_state)
 780:/home/y/github/EmbeddedSoftwareMCU/Libraries/AT32/drivers/src/at32f403a_407_tmr.c **** {
 1344              		.loc 1 780 0
 1345              		.cfi_startproc
 1346              		@ args = 0, pretend = 0, frame = 0
 1347              		@ frame_needed = 0, uses_anonymous_args = 0
 1348              		@ link register save eliminated.
 1349              	.LVL120:
 781:/home/y/github/EmbeddedSoftwareMCU/Libraries/AT32/drivers/src/at32f403a_407_tmr.c ****   /* tmr 32 bit function(plus mode) enable,only for TMR2/TMR5 */
 782:/home/y/github/EmbeddedSoftwareMCU/Libraries/AT32/drivers/src/at32f403a_407_tmr.c ****   if((tmr_x == TMR2) || (tmr_x == TMR5))
 1350              		.loc 1 782 0
 1351 0000 B0F1804F 		cmp	r0, #1073741824
 1352 0004 03D0     		beq	.L113
 1353              		.loc 1 782 0 is_stmt 0 discriminator 1
 1354 0006 044B     		ldr	r3, .L115
 1355 0008 9842     		cmp	r0, r3
 1356 000a 00D0     		beq	.L113
 1357              	.L112:
 1358 000c 7047     		bx	lr
 1359              	.L113:
 783:/home/y/github/EmbeddedSoftwareMCU/Libraries/AT32/drivers/src/at32f403a_407_tmr.c ****   {
 784:/home/y/github/EmbeddedSoftwareMCU/Libraries/AT32/drivers/src/at32f403a_407_tmr.c ****     tmr_x->ctrl1_bit.pmen = new_state;
 1360              		.loc 1 784 0 is_stmt 1
 1361 000e 0368     		ldr	r3, [r0]
 1362 0010 61F38A23 		bfi	r3, r1, #10, #1
 1363 0014 0360     		str	r3, [r0]
 785:/home/y/github/EmbeddedSoftwareMCU/Libraries/AT32/drivers/src/at32f403a_407_tmr.c ****   }
 786:/home/y/github/EmbeddedSoftwareMCU/Libraries/AT32/drivers/src/at32f403a_407_tmr.c **** }
 1364              		.loc 1 786 0
 1365 0016 F9E7     		b	.L112
 1366              	.L116:
 1367              		.align	2
 1368              	.L115:
 1369 0018 000C0040 		.word	1073744896
 1370              		.cfi_endproc
 1371              	.LFE157:
 1373              		.section	.text.tmr_overflow_request_source_set,"ax",%progbits
 1374              		.align	1
 1375              		.global	tmr_overflow_request_source_set
 1376              		.syntax unified
 1377              		.thumb
 1378              		.thumb_func
 1379              		.fpu softvfp
 1381              	tmr_overflow_request_source_set:
 1382              	.LFB158:
 787:/home/y/github/EmbeddedSoftwareMCU/Libraries/AT32/drivers/src/at32f403a_407_tmr.c **** 
 788:/home/y/github/EmbeddedSoftwareMCU/Libraries/AT32/drivers/src/at32f403a_407_tmr.c **** /**
 789:/home/y/github/EmbeddedSoftwareMCU/Libraries/AT32/drivers/src/at32f403a_407_tmr.c ****   * @brief  select tmr the overflow event sources
 790:/home/y/github/EmbeddedSoftwareMCU/Libraries/AT32/drivers/src/at32f403a_407_tmr.c ****   * @param  tmr_x: select the tmr peripheral.
 791:/home/y/github/EmbeddedSoftwareMCU/Libraries/AT32/drivers/src/at32f403a_407_tmr.c ****   *         this parameter can be one of the following values:
 792:/home/y/github/EmbeddedSoftwareMCU/Libraries/AT32/drivers/src/at32f403a_407_tmr.c ****   *         TMR1, TMR2, TMR3, TMR4, TMR5, TMR6, TMR7, TMR8,
 793:/home/y/github/EmbeddedSoftwareMCU/Libraries/AT32/drivers/src/at32f403a_407_tmr.c ****   *         TMR9, TMR10, TMR11, TMR12, TMR13, TMR14
 794:/home/y/github/EmbeddedSoftwareMCU/Libraries/AT32/drivers/src/at32f403a_407_tmr.c ****   * @param  new_state (TRUE or FALSE)
 795:/home/y/github/EmbeddedSoftwareMCU/Libraries/AT32/drivers/src/at32f403a_407_tmr.c ****   * @retval none
 796:/home/y/github/EmbeddedSoftwareMCU/Libraries/AT32/drivers/src/at32f403a_407_tmr.c ****   */
ARM GAS  /tmp/ccPqktXd.s 			page 39


 797:/home/y/github/EmbeddedSoftwareMCU/Libraries/AT32/drivers/src/at32f403a_407_tmr.c **** void tmr_overflow_request_source_set(tmr_type *tmr_x, confirm_state new_state)
 798:/home/y/github/EmbeddedSoftwareMCU/Libraries/AT32/drivers/src/at32f403a_407_tmr.c **** {
 1383              		.loc 1 798 0
 1384              		.cfi_startproc
 1385              		@ args = 0, pretend = 0, frame = 0
 1386              		@ frame_needed = 0, uses_anonymous_args = 0
 1387              		@ link register save eliminated.
 1388              	.LVL121:
 799:/home/y/github/EmbeddedSoftwareMCU/Libraries/AT32/drivers/src/at32f403a_407_tmr.c ****   tmr_x->ctrl1_bit.ovfs = new_state;
 1389              		.loc 1 799 0
 1390 0000 0368     		ldr	r3, [r0]
 1391 0002 61F38203 		bfi	r3, r1, #2, #1
 1392 0006 0360     		str	r3, [r0]
 1393 0008 7047     		bx	lr
 1394              		.cfi_endproc
 1395              	.LFE158:
 1397              		.section	.text.tmr_overflow_event_disable,"ax",%progbits
 1398              		.align	1
 1399              		.global	tmr_overflow_event_disable
 1400              		.syntax unified
 1401              		.thumb
 1402              		.thumb_func
 1403              		.fpu softvfp
 1405              	tmr_overflow_event_disable:
 1406              	.LFB159:
 800:/home/y/github/EmbeddedSoftwareMCU/Libraries/AT32/drivers/src/at32f403a_407_tmr.c **** }
 801:/home/y/github/EmbeddedSoftwareMCU/Libraries/AT32/drivers/src/at32f403a_407_tmr.c **** 
 802:/home/y/github/EmbeddedSoftwareMCU/Libraries/AT32/drivers/src/at32f403a_407_tmr.c **** /**
 803:/home/y/github/EmbeddedSoftwareMCU/Libraries/AT32/drivers/src/at32f403a_407_tmr.c ****   * @brief  enable or disable tmr overflow event generation
 804:/home/y/github/EmbeddedSoftwareMCU/Libraries/AT32/drivers/src/at32f403a_407_tmr.c ****   * @param  tmr_x: select the tmr peripheral.
 805:/home/y/github/EmbeddedSoftwareMCU/Libraries/AT32/drivers/src/at32f403a_407_tmr.c ****   *         this parameter can be one of the following values:
 806:/home/y/github/EmbeddedSoftwareMCU/Libraries/AT32/drivers/src/at32f403a_407_tmr.c ****   *         TMR1, TMR2, TMR3, TMR4, TMR5, TMR6, TMR7, TMR8,
 807:/home/y/github/EmbeddedSoftwareMCU/Libraries/AT32/drivers/src/at32f403a_407_tmr.c ****   *         TMR9, TMR10, TMR11, TMR12, TMR13, TMR14
 808:/home/y/github/EmbeddedSoftwareMCU/Libraries/AT32/drivers/src/at32f403a_407_tmr.c ****   * @param  new_state (TRUE or FALSE)
 809:/home/y/github/EmbeddedSoftwareMCU/Libraries/AT32/drivers/src/at32f403a_407_tmr.c ****   * @retval none
 810:/home/y/github/EmbeddedSoftwareMCU/Libraries/AT32/drivers/src/at32f403a_407_tmr.c ****   */
 811:/home/y/github/EmbeddedSoftwareMCU/Libraries/AT32/drivers/src/at32f403a_407_tmr.c **** void tmr_overflow_event_disable(tmr_type *tmr_x, confirm_state new_state)
 812:/home/y/github/EmbeddedSoftwareMCU/Libraries/AT32/drivers/src/at32f403a_407_tmr.c **** {
 1407              		.loc 1 812 0
 1408              		.cfi_startproc
 1409              		@ args = 0, pretend = 0, frame = 0
 1410              		@ frame_needed = 0, uses_anonymous_args = 0
 1411              		@ link register save eliminated.
 1412              	.LVL122:
 813:/home/y/github/EmbeddedSoftwareMCU/Libraries/AT32/drivers/src/at32f403a_407_tmr.c ****   tmr_x->ctrl1_bit.ovfen = new_state;
 1413              		.loc 1 813 0
 1414 0000 0368     		ldr	r3, [r0]
 1415 0002 61F34103 		bfi	r3, r1, #1, #1
 1416 0006 0360     		str	r3, [r0]
 1417 0008 7047     		bx	lr
 1418              		.cfi_endproc
 1419              	.LFE159:
 1421              		.section	.text.tmr_input_channel_init,"ax",%progbits
 1422              		.align	1
 1423              		.global	tmr_input_channel_init
 1424              		.syntax unified
 1425              		.thumb
ARM GAS  /tmp/ccPqktXd.s 			page 40


 1426              		.thumb_func
 1427              		.fpu softvfp
 1429              	tmr_input_channel_init:
 1430              	.LFB160:
 814:/home/y/github/EmbeddedSoftwareMCU/Libraries/AT32/drivers/src/at32f403a_407_tmr.c **** }
 815:/home/y/github/EmbeddedSoftwareMCU/Libraries/AT32/drivers/src/at32f403a_407_tmr.c **** 
 816:/home/y/github/EmbeddedSoftwareMCU/Libraries/AT32/drivers/src/at32f403a_407_tmr.c **** /**
 817:/home/y/github/EmbeddedSoftwareMCU/Libraries/AT32/drivers/src/at32f403a_407_tmr.c ****   * @brief  init tmr input channel
 818:/home/y/github/EmbeddedSoftwareMCU/Libraries/AT32/drivers/src/at32f403a_407_tmr.c ****   * @param  tmr_x: select the tmr peripheral.
 819:/home/y/github/EmbeddedSoftwareMCU/Libraries/AT32/drivers/src/at32f403a_407_tmr.c ****   *         this parameter can be one of the following values:
 820:/home/y/github/EmbeddedSoftwareMCU/Libraries/AT32/drivers/src/at32f403a_407_tmr.c ****   *         TMR1, TMR2, TMR3, TMR4, TMR5, TMR8, TMR9, TMR10,
 821:/home/y/github/EmbeddedSoftwareMCU/Libraries/AT32/drivers/src/at32f403a_407_tmr.c ****   *         TMR11, TMR12, TMR13, TMR14
 822:/home/y/github/EmbeddedSoftwareMCU/Libraries/AT32/drivers/src/at32f403a_407_tmr.c ****   * @param  input_struct
 823:/home/y/github/EmbeddedSoftwareMCU/Libraries/AT32/drivers/src/at32f403a_407_tmr.c ****   *         - to the structure of tmr_input_config_type
 824:/home/y/github/EmbeddedSoftwareMCU/Libraries/AT32/drivers/src/at32f403a_407_tmr.c ****   * @param  divider_factor
 825:/home/y/github/EmbeddedSoftwareMCU/Libraries/AT32/drivers/src/at32f403a_407_tmr.c ****   *         this parameter can be one of the following values:
 826:/home/y/github/EmbeddedSoftwareMCU/Libraries/AT32/drivers/src/at32f403a_407_tmr.c ****   *         - TMR_CHANNEL_INPUT_DIV_1
 827:/home/y/github/EmbeddedSoftwareMCU/Libraries/AT32/drivers/src/at32f403a_407_tmr.c ****   *         - TMR_CHANNEL_INPUT_DIV_2
 828:/home/y/github/EmbeddedSoftwareMCU/Libraries/AT32/drivers/src/at32f403a_407_tmr.c ****   *         - TMR_CHANNEL_INPUT_DIV_4
 829:/home/y/github/EmbeddedSoftwareMCU/Libraries/AT32/drivers/src/at32f403a_407_tmr.c ****   *         - TMR_CHANNEL_INPUT_DIV_8
 830:/home/y/github/EmbeddedSoftwareMCU/Libraries/AT32/drivers/src/at32f403a_407_tmr.c ****   * @retval none
 831:/home/y/github/EmbeddedSoftwareMCU/Libraries/AT32/drivers/src/at32f403a_407_tmr.c ****   */
 832:/home/y/github/EmbeddedSoftwareMCU/Libraries/AT32/drivers/src/at32f403a_407_tmr.c **** void tmr_input_channel_init(tmr_type *tmr_x, tmr_input_config_type *input_struct,
 833:/home/y/github/EmbeddedSoftwareMCU/Libraries/AT32/drivers/src/at32f403a_407_tmr.c ****                             tmr_channel_input_divider_type divider_factor)
 834:/home/y/github/EmbeddedSoftwareMCU/Libraries/AT32/drivers/src/at32f403a_407_tmr.c **** {
 1431              		.loc 1 834 0
 1432              		.cfi_startproc
 1433              		@ args = 0, pretend = 0, frame = 0
 1434              		@ frame_needed = 0, uses_anonymous_args = 0
 1435              		@ link register save eliminated.
 1436              	.LVL123:
 1437 0000 10B4     		push	{r4}
 1438              	.LCFI4:
 1439              		.cfi_def_cfa_offset 4
 1440              		.cfi_offset 4, -4
 1441              	.LVL124:
 835:/home/y/github/EmbeddedSoftwareMCU/Libraries/AT32/drivers/src/at32f403a_407_tmr.c ****   uint16_t channel = 0;
 836:/home/y/github/EmbeddedSoftwareMCU/Libraries/AT32/drivers/src/at32f403a_407_tmr.c **** 
 837:/home/y/github/EmbeddedSoftwareMCU/Libraries/AT32/drivers/src/at32f403a_407_tmr.c ****   /* get channel selected */
 838:/home/y/github/EmbeddedSoftwareMCU/Libraries/AT32/drivers/src/at32f403a_407_tmr.c ****   channel = input_struct->input_channel_select;
 1442              		.loc 1 838 0
 1443 0002 0B78     		ldrb	r3, [r1]	@ zero_extendqisi2
 1444              	.LVL125:
 839:/home/y/github/EmbeddedSoftwareMCU/Libraries/AT32/drivers/src/at32f403a_407_tmr.c **** 
 840:/home/y/github/EmbeddedSoftwareMCU/Libraries/AT32/drivers/src/at32f403a_407_tmr.c ****   switch(channel)
 1445              		.loc 1 840 0
 1446 0004 062B     		cmp	r3, #6
 1447 0006 23D8     		bhi	.L119
 1448 0008 DFE803F0 		tbb	[pc, r3]
 1449              	.L122:
 1450 000c 04       		.byte	(.L121-.L122)/2
 1451 000d 22       		.byte	(.L119-.L122)/2
 1452 000e 24       		.byte	(.L123-.L122)/2
 1453 000f 22       		.byte	(.L119-.L122)/2
 1454 0010 43       		.byte	(.L124-.L122)/2
 1455 0011 22       		.byte	(.L119-.L122)/2
 1456 0012 62       		.byte	(.L125-.L122)/2
ARM GAS  /tmp/ccPqktXd.s 			page 41


 1457 0013 00       		.p2align 1
 1458              	.L121:
 841:/home/y/github/EmbeddedSoftwareMCU/Libraries/AT32/drivers/src/at32f403a_407_tmr.c ****   {
 842:/home/y/github/EmbeddedSoftwareMCU/Libraries/AT32/drivers/src/at32f403a_407_tmr.c ****     case TMR_SELECT_CHANNEL_1:
 843:/home/y/github/EmbeddedSoftwareMCU/Libraries/AT32/drivers/src/at32f403a_407_tmr.c ****       tmr_x->cctrl_bit.c1p        = (uint32_t)input_struct->input_polarity_select;
 1459              		.loc 1 843 0
 1460 0014 4C78     		ldrb	r4, [r1, #1]	@ zero_extendqisi2
 1461 0016 036A     		ldr	r3, [r0, #32]
 1462              	.LVL126:
 1463 0018 64F34103 		bfi	r3, r4, #1, #1
 1464 001c 0362     		str	r3, [r0, #32]
 1465              	.LVL127:
 844:/home/y/github/EmbeddedSoftwareMCU/Libraries/AT32/drivers/src/at32f403a_407_tmr.c ****       tmr_x->cctrl_bit.c1cp       = (input_struct->input_polarity_select & 0x2) >> 1;
 1466              		.loc 1 844 0
 1467 001e 4B78     		ldrb	r3, [r1, #1]	@ zero_extendqisi2
 1468 0020 C3F34003 		ubfx	r3, r3, #1, #1
 1469 0024 046A     		ldr	r4, [r0, #32]
 1470 0026 63F3C304 		bfi	r4, r3, #3, #1
 1471 002a 0462     		str	r4, [r0, #32]
 845:/home/y/github/EmbeddedSoftwareMCU/Libraries/AT32/drivers/src/at32f403a_407_tmr.c ****       tmr_x->cm1_input_bit.c1c    = input_struct->input_mapped_select;
 1472              		.loc 1 845 0
 1473 002c 8C78     		ldrb	r4, [r1, #2]	@ zero_extendqisi2
 1474 002e 8369     		ldr	r3, [r0, #24]
 1475 0030 64F30103 		bfi	r3, r4, #0, #2
 1476 0034 8361     		str	r3, [r0, #24]
 846:/home/y/github/EmbeddedSoftwareMCU/Libraries/AT32/drivers/src/at32f403a_407_tmr.c ****       tmr_x->cm1_input_bit.c1df   = input_struct->input_filter_value;
 1477              		.loc 1 846 0
 1478 0036 C978     		ldrb	r1, [r1, #3]	@ zero_extendqisi2
 1479              	.LVL128:
 1480 0038 8369     		ldr	r3, [r0, #24]
 1481 003a 61F30713 		bfi	r3, r1, #4, #4
 1482 003e 8361     		str	r3, [r0, #24]
 847:/home/y/github/EmbeddedSoftwareMCU/Libraries/AT32/drivers/src/at32f403a_407_tmr.c ****       tmr_x->cm1_input_bit.c1idiv = divider_factor;
 1483              		.loc 1 847 0
 1484 0040 8369     		ldr	r3, [r0, #24]
 1485 0042 62F38303 		bfi	r3, r2, #2, #2
 1486 0046 8361     		str	r3, [r0, #24]
 848:/home/y/github/EmbeddedSoftwareMCU/Libraries/AT32/drivers/src/at32f403a_407_tmr.c ****       tmr_x->cctrl_bit.c1en       = TRUE;
 1487              		.loc 1 848 0
 1488 0048 036A     		ldr	r3, [r0, #32]
 1489 004a 43F00103 		orr	r3, r3, #1
 1490 004e 0362     		str	r3, [r0, #32]
 1491              	.L119:
 849:/home/y/github/EmbeddedSoftwareMCU/Libraries/AT32/drivers/src/at32f403a_407_tmr.c ****       break;
 850:/home/y/github/EmbeddedSoftwareMCU/Libraries/AT32/drivers/src/at32f403a_407_tmr.c **** 
 851:/home/y/github/EmbeddedSoftwareMCU/Libraries/AT32/drivers/src/at32f403a_407_tmr.c ****     case TMR_SELECT_CHANNEL_2:
 852:/home/y/github/EmbeddedSoftwareMCU/Libraries/AT32/drivers/src/at32f403a_407_tmr.c ****       tmr_x->cctrl_bit.c2p        = (uint32_t)input_struct->input_polarity_select;
 853:/home/y/github/EmbeddedSoftwareMCU/Libraries/AT32/drivers/src/at32f403a_407_tmr.c ****       tmr_x->cctrl_bit.c2cp       = (input_struct->input_polarity_select & 0x2) >> 1;
 854:/home/y/github/EmbeddedSoftwareMCU/Libraries/AT32/drivers/src/at32f403a_407_tmr.c ****       tmr_x->cm1_input_bit.c2c    = input_struct->input_mapped_select;
 855:/home/y/github/EmbeddedSoftwareMCU/Libraries/AT32/drivers/src/at32f403a_407_tmr.c ****       tmr_x->cm1_input_bit.c2df   = input_struct->input_filter_value;
 856:/home/y/github/EmbeddedSoftwareMCU/Libraries/AT32/drivers/src/at32f403a_407_tmr.c ****       tmr_x->cm1_input_bit.c2idiv = divider_factor;
 857:/home/y/github/EmbeddedSoftwareMCU/Libraries/AT32/drivers/src/at32f403a_407_tmr.c ****       tmr_x->cctrl_bit.c2en       = TRUE;
 858:/home/y/github/EmbeddedSoftwareMCU/Libraries/AT32/drivers/src/at32f403a_407_tmr.c ****       break;
 859:/home/y/github/EmbeddedSoftwareMCU/Libraries/AT32/drivers/src/at32f403a_407_tmr.c **** 
 860:/home/y/github/EmbeddedSoftwareMCU/Libraries/AT32/drivers/src/at32f403a_407_tmr.c ****     case TMR_SELECT_CHANNEL_3:
 861:/home/y/github/EmbeddedSoftwareMCU/Libraries/AT32/drivers/src/at32f403a_407_tmr.c ****       tmr_x->cctrl_bit.c3p        = (uint32_t)input_struct->input_polarity_select;
 862:/home/y/github/EmbeddedSoftwareMCU/Libraries/AT32/drivers/src/at32f403a_407_tmr.c ****       tmr_x->cctrl_bit.c3cp       = (input_struct->input_polarity_select & 0x2) >> 1;
ARM GAS  /tmp/ccPqktXd.s 			page 42


 863:/home/y/github/EmbeddedSoftwareMCU/Libraries/AT32/drivers/src/at32f403a_407_tmr.c ****       tmr_x->cm2_input_bit.c3c    = input_struct->input_mapped_select;
 864:/home/y/github/EmbeddedSoftwareMCU/Libraries/AT32/drivers/src/at32f403a_407_tmr.c ****       tmr_x->cm2_input_bit.c3df   = input_struct->input_filter_value;
 865:/home/y/github/EmbeddedSoftwareMCU/Libraries/AT32/drivers/src/at32f403a_407_tmr.c ****       tmr_x->cm2_input_bit.c3idiv = divider_factor;
 866:/home/y/github/EmbeddedSoftwareMCU/Libraries/AT32/drivers/src/at32f403a_407_tmr.c ****       tmr_x->cctrl_bit.c3en       = TRUE;
 867:/home/y/github/EmbeddedSoftwareMCU/Libraries/AT32/drivers/src/at32f403a_407_tmr.c ****       break;
 868:/home/y/github/EmbeddedSoftwareMCU/Libraries/AT32/drivers/src/at32f403a_407_tmr.c **** 
 869:/home/y/github/EmbeddedSoftwareMCU/Libraries/AT32/drivers/src/at32f403a_407_tmr.c ****     case TMR_SELECT_CHANNEL_4:
 870:/home/y/github/EmbeddedSoftwareMCU/Libraries/AT32/drivers/src/at32f403a_407_tmr.c ****       tmr_x->cctrl_bit.c4p        = (uint32_t)input_struct->input_polarity_select;
 871:/home/y/github/EmbeddedSoftwareMCU/Libraries/AT32/drivers/src/at32f403a_407_tmr.c ****       tmr_x->cm2_input_bit.c4c    = input_struct->input_mapped_select;
 872:/home/y/github/EmbeddedSoftwareMCU/Libraries/AT32/drivers/src/at32f403a_407_tmr.c ****       tmr_x->cm2_input_bit.c4df   = input_struct->input_filter_value;
 873:/home/y/github/EmbeddedSoftwareMCU/Libraries/AT32/drivers/src/at32f403a_407_tmr.c ****       tmr_x->cm2_input_bit.c4idiv = divider_factor;
 874:/home/y/github/EmbeddedSoftwareMCU/Libraries/AT32/drivers/src/at32f403a_407_tmr.c ****       tmr_x->cctrl_bit.c4en       = TRUE;
 875:/home/y/github/EmbeddedSoftwareMCU/Libraries/AT32/drivers/src/at32f403a_407_tmr.c ****       break;
 876:/home/y/github/EmbeddedSoftwareMCU/Libraries/AT32/drivers/src/at32f403a_407_tmr.c **** 
 877:/home/y/github/EmbeddedSoftwareMCU/Libraries/AT32/drivers/src/at32f403a_407_tmr.c ****     default:
 878:/home/y/github/EmbeddedSoftwareMCU/Libraries/AT32/drivers/src/at32f403a_407_tmr.c ****       break;
 879:/home/y/github/EmbeddedSoftwareMCU/Libraries/AT32/drivers/src/at32f403a_407_tmr.c ****   }
 880:/home/y/github/EmbeddedSoftwareMCU/Libraries/AT32/drivers/src/at32f403a_407_tmr.c **** }
 1492              		.loc 1 880 0
 1493 0050 10BC     		pop	{r4}
 1494              	.LCFI5:
 1495              		.cfi_remember_state
 1496              		.cfi_restore 4
 1497              		.cfi_def_cfa_offset 0
 1498 0052 7047     		bx	lr
 1499              	.LVL129:
 1500              	.L123:
 1501              	.LCFI6:
 1502              		.cfi_restore_state
 852:/home/y/github/EmbeddedSoftwareMCU/Libraries/AT32/drivers/src/at32f403a_407_tmr.c ****       tmr_x->cctrl_bit.c2cp       = (input_struct->input_polarity_select & 0x2) >> 1;
 1503              		.loc 1 852 0
 1504 0054 4C78     		ldrb	r4, [r1, #1]	@ zero_extendqisi2
 1505 0056 036A     		ldr	r3, [r0, #32]
 1506              	.LVL130:
 1507 0058 64F34513 		bfi	r3, r4, #5, #1
 1508 005c 0362     		str	r3, [r0, #32]
 1509              	.LVL131:
 853:/home/y/github/EmbeddedSoftwareMCU/Libraries/AT32/drivers/src/at32f403a_407_tmr.c ****       tmr_x->cm1_input_bit.c2c    = input_struct->input_mapped_select;
 1510              		.loc 1 853 0
 1511 005e 4B78     		ldrb	r3, [r1, #1]	@ zero_extendqisi2
 1512 0060 C3F34003 		ubfx	r3, r3, #1, #1
 1513 0064 046A     		ldr	r4, [r0, #32]
 1514 0066 63F3C714 		bfi	r4, r3, #7, #1
 1515 006a 0462     		str	r4, [r0, #32]
 854:/home/y/github/EmbeddedSoftwareMCU/Libraries/AT32/drivers/src/at32f403a_407_tmr.c ****       tmr_x->cm1_input_bit.c2df   = input_struct->input_filter_value;
 1516              		.loc 1 854 0
 1517 006c 8C78     		ldrb	r4, [r1, #2]	@ zero_extendqisi2
 1518 006e 8369     		ldr	r3, [r0, #24]
 1519 0070 64F30923 		bfi	r3, r4, #8, #2
 1520 0074 8361     		str	r3, [r0, #24]
 855:/home/y/github/EmbeddedSoftwareMCU/Libraries/AT32/drivers/src/at32f403a_407_tmr.c ****       tmr_x->cm1_input_bit.c2idiv = divider_factor;
 1521              		.loc 1 855 0
 1522 0076 C978     		ldrb	r1, [r1, #3]	@ zero_extendqisi2
 1523              	.LVL132:
 1524 0078 8369     		ldr	r3, [r0, #24]
 1525 007a 61F30F33 		bfi	r3, r1, #12, #4
 1526 007e 8361     		str	r3, [r0, #24]
ARM GAS  /tmp/ccPqktXd.s 			page 43


 856:/home/y/github/EmbeddedSoftwareMCU/Libraries/AT32/drivers/src/at32f403a_407_tmr.c ****       tmr_x->cctrl_bit.c2en       = TRUE;
 1527              		.loc 1 856 0
 1528 0080 8369     		ldr	r3, [r0, #24]
 1529 0082 62F38B23 		bfi	r3, r2, #10, #2
 1530 0086 8361     		str	r3, [r0, #24]
 857:/home/y/github/EmbeddedSoftwareMCU/Libraries/AT32/drivers/src/at32f403a_407_tmr.c ****       break;
 1531              		.loc 1 857 0
 1532 0088 036A     		ldr	r3, [r0, #32]
 1533 008a 43F01003 		orr	r3, r3, #16
 1534 008e 0362     		str	r3, [r0, #32]
 858:/home/y/github/EmbeddedSoftwareMCU/Libraries/AT32/drivers/src/at32f403a_407_tmr.c **** 
 1535              		.loc 1 858 0
 1536 0090 DEE7     		b	.L119
 1537              	.LVL133:
 1538              	.L124:
 861:/home/y/github/EmbeddedSoftwareMCU/Libraries/AT32/drivers/src/at32f403a_407_tmr.c ****       tmr_x->cctrl_bit.c3cp       = (input_struct->input_polarity_select & 0x2) >> 1;
 1539              		.loc 1 861 0
 1540 0092 4C78     		ldrb	r4, [r1, #1]	@ zero_extendqisi2
 1541 0094 036A     		ldr	r3, [r0, #32]
 1542              	.LVL134:
 1543 0096 64F34923 		bfi	r3, r4, #9, #1
 1544 009a 0362     		str	r3, [r0, #32]
 1545              	.LVL135:
 862:/home/y/github/EmbeddedSoftwareMCU/Libraries/AT32/drivers/src/at32f403a_407_tmr.c ****       tmr_x->cm2_input_bit.c3c    = input_struct->input_mapped_select;
 1546              		.loc 1 862 0
 1547 009c 4B78     		ldrb	r3, [r1, #1]	@ zero_extendqisi2
 1548 009e C3F34003 		ubfx	r3, r3, #1, #1
 1549 00a2 046A     		ldr	r4, [r0, #32]
 1550 00a4 63F3CB24 		bfi	r4, r3, #11, #1
 1551 00a8 0462     		str	r4, [r0, #32]
 863:/home/y/github/EmbeddedSoftwareMCU/Libraries/AT32/drivers/src/at32f403a_407_tmr.c ****       tmr_x->cm2_input_bit.c3df   = input_struct->input_filter_value;
 1552              		.loc 1 863 0
 1553 00aa 8C78     		ldrb	r4, [r1, #2]	@ zero_extendqisi2
 1554 00ac C369     		ldr	r3, [r0, #28]
 1555 00ae 64F30103 		bfi	r3, r4, #0, #2
 1556 00b2 C361     		str	r3, [r0, #28]
 864:/home/y/github/EmbeddedSoftwareMCU/Libraries/AT32/drivers/src/at32f403a_407_tmr.c ****       tmr_x->cm2_input_bit.c3idiv = divider_factor;
 1557              		.loc 1 864 0
 1558 00b4 C978     		ldrb	r1, [r1, #3]	@ zero_extendqisi2
 1559              	.LVL136:
 1560 00b6 C369     		ldr	r3, [r0, #28]
 1561 00b8 61F30713 		bfi	r3, r1, #4, #4
 1562 00bc C361     		str	r3, [r0, #28]
 865:/home/y/github/EmbeddedSoftwareMCU/Libraries/AT32/drivers/src/at32f403a_407_tmr.c ****       tmr_x->cctrl_bit.c3en       = TRUE;
 1563              		.loc 1 865 0
 1564 00be C369     		ldr	r3, [r0, #28]
 1565 00c0 62F38303 		bfi	r3, r2, #2, #2
 1566 00c4 C361     		str	r3, [r0, #28]
 866:/home/y/github/EmbeddedSoftwareMCU/Libraries/AT32/drivers/src/at32f403a_407_tmr.c ****       break;
 1567              		.loc 1 866 0
 1568 00c6 036A     		ldr	r3, [r0, #32]
 1569 00c8 43F48073 		orr	r3, r3, #256
 1570 00cc 0362     		str	r3, [r0, #32]
 867:/home/y/github/EmbeddedSoftwareMCU/Libraries/AT32/drivers/src/at32f403a_407_tmr.c **** 
 1571              		.loc 1 867 0
 1572 00ce BFE7     		b	.L119
 1573              	.LVL137:
ARM GAS  /tmp/ccPqktXd.s 			page 44


 1574              	.L125:
 870:/home/y/github/EmbeddedSoftwareMCU/Libraries/AT32/drivers/src/at32f403a_407_tmr.c ****       tmr_x->cm2_input_bit.c4c    = input_struct->input_mapped_select;
 1575              		.loc 1 870 0
 1576 00d0 4C78     		ldrb	r4, [r1, #1]	@ zero_extendqisi2
 1577 00d2 036A     		ldr	r3, [r0, #32]
 1578              	.LVL138:
 1579 00d4 64F34D33 		bfi	r3, r4, #13, #1
 1580 00d8 0362     		str	r3, [r0, #32]
 1581              	.LVL139:
 871:/home/y/github/EmbeddedSoftwareMCU/Libraries/AT32/drivers/src/at32f403a_407_tmr.c ****       tmr_x->cm2_input_bit.c4df   = input_struct->input_filter_value;
 1582              		.loc 1 871 0
 1583 00da 8C78     		ldrb	r4, [r1, #2]	@ zero_extendqisi2
 1584 00dc C369     		ldr	r3, [r0, #28]
 1585 00de 64F30923 		bfi	r3, r4, #8, #2
 1586 00e2 C361     		str	r3, [r0, #28]
 872:/home/y/github/EmbeddedSoftwareMCU/Libraries/AT32/drivers/src/at32f403a_407_tmr.c ****       tmr_x->cm2_input_bit.c4idiv = divider_factor;
 1587              		.loc 1 872 0
 1588 00e4 C978     		ldrb	r1, [r1, #3]	@ zero_extendqisi2
 1589              	.LVL140:
 1590 00e6 C369     		ldr	r3, [r0, #28]
 1591 00e8 61F30F33 		bfi	r3, r1, #12, #4
 1592 00ec C361     		str	r3, [r0, #28]
 873:/home/y/github/EmbeddedSoftwareMCU/Libraries/AT32/drivers/src/at32f403a_407_tmr.c ****       tmr_x->cctrl_bit.c4en       = TRUE;
 1593              		.loc 1 873 0
 1594 00ee C369     		ldr	r3, [r0, #28]
 1595 00f0 62F38B23 		bfi	r3, r2, #10, #2
 1596 00f4 C361     		str	r3, [r0, #28]
 874:/home/y/github/EmbeddedSoftwareMCU/Libraries/AT32/drivers/src/at32f403a_407_tmr.c ****       break;
 1597              		.loc 1 874 0
 1598 00f6 036A     		ldr	r3, [r0, #32]
 1599 00f8 43F48053 		orr	r3, r3, #4096
 1600 00fc 0362     		str	r3, [r0, #32]
 1601              		.loc 1 880 0
 1602 00fe A7E7     		b	.L119
 1603              		.cfi_endproc
 1604              	.LFE160:
 1606              		.section	.text.tmr_channel_enable,"ax",%progbits
 1607              		.align	1
 1608              		.global	tmr_channel_enable
 1609              		.syntax unified
 1610              		.thumb
 1611              		.thumb_func
 1612              		.fpu softvfp
 1614              	tmr_channel_enable:
 1615              	.LFB161:
 881:/home/y/github/EmbeddedSoftwareMCU/Libraries/AT32/drivers/src/at32f403a_407_tmr.c **** 
 882:/home/y/github/EmbeddedSoftwareMCU/Libraries/AT32/drivers/src/at32f403a_407_tmr.c **** /**
 883:/home/y/github/EmbeddedSoftwareMCU/Libraries/AT32/drivers/src/at32f403a_407_tmr.c ****   * @brief  tmr channel enable
 884:/home/y/github/EmbeddedSoftwareMCU/Libraries/AT32/drivers/src/at32f403a_407_tmr.c ****   * @param  tmr_x: select the tmr peripheral.
 885:/home/y/github/EmbeddedSoftwareMCU/Libraries/AT32/drivers/src/at32f403a_407_tmr.c ****   *         this parameter can be one of the following values:
 886:/home/y/github/EmbeddedSoftwareMCU/Libraries/AT32/drivers/src/at32f403a_407_tmr.c ****   *         TMR1, TMR2, TMR3, TMR4, TMR5, TMR8, TMR9, TMR10,
 887:/home/y/github/EmbeddedSoftwareMCU/Libraries/AT32/drivers/src/at32f403a_407_tmr.c ****   *         TMR11, TMR12, TMR13, TMR14
 888:/home/y/github/EmbeddedSoftwareMCU/Libraries/AT32/drivers/src/at32f403a_407_tmr.c ****   * @param  tmr_channel
 889:/home/y/github/EmbeddedSoftwareMCU/Libraries/AT32/drivers/src/at32f403a_407_tmr.c ****   *         this parameter can be one of the following values:
 890:/home/y/github/EmbeddedSoftwareMCU/Libraries/AT32/drivers/src/at32f403a_407_tmr.c ****   *         - TMR_SELECT_CHANNEL_1
 891:/home/y/github/EmbeddedSoftwareMCU/Libraries/AT32/drivers/src/at32f403a_407_tmr.c ****   *         - TMR_SELECT_CHANNEL_1C
 892:/home/y/github/EmbeddedSoftwareMCU/Libraries/AT32/drivers/src/at32f403a_407_tmr.c ****   *         - TMR_SELECT_CHANNEL_2
ARM GAS  /tmp/ccPqktXd.s 			page 45


 893:/home/y/github/EmbeddedSoftwareMCU/Libraries/AT32/drivers/src/at32f403a_407_tmr.c ****   *         - TMR_SELECT_CHANNEL_2C
 894:/home/y/github/EmbeddedSoftwareMCU/Libraries/AT32/drivers/src/at32f403a_407_tmr.c ****   *         - TMR_SELECT_CHANNEL_3
 895:/home/y/github/EmbeddedSoftwareMCU/Libraries/AT32/drivers/src/at32f403a_407_tmr.c ****   *         - TMR_SELECT_CHANNEL_3C
 896:/home/y/github/EmbeddedSoftwareMCU/Libraries/AT32/drivers/src/at32f403a_407_tmr.c ****   *         - TMR_SELECT_CHANNEL_4
 897:/home/y/github/EmbeddedSoftwareMCU/Libraries/AT32/drivers/src/at32f403a_407_tmr.c ****   * @param  new_state (TRUE or FALSE)
 898:/home/y/github/EmbeddedSoftwareMCU/Libraries/AT32/drivers/src/at32f403a_407_tmr.c ****   * @retval none
 899:/home/y/github/EmbeddedSoftwareMCU/Libraries/AT32/drivers/src/at32f403a_407_tmr.c ****   */
 900:/home/y/github/EmbeddedSoftwareMCU/Libraries/AT32/drivers/src/at32f403a_407_tmr.c **** void tmr_channel_enable(tmr_type *tmr_x, tmr_channel_select_type tmr_channel, confirm_state new_sta
 901:/home/y/github/EmbeddedSoftwareMCU/Libraries/AT32/drivers/src/at32f403a_407_tmr.c **** {
 1616              		.loc 1 901 0
 1617              		.cfi_startproc
 1618              		@ args = 0, pretend = 0, frame = 0
 1619              		@ frame_needed = 0, uses_anonymous_args = 0
 1620              		@ link register save eliminated.
 1621              	.LVL141:
 902:/home/y/github/EmbeddedSoftwareMCU/Libraries/AT32/drivers/src/at32f403a_407_tmr.c ****   uint16_t channel;
 903:/home/y/github/EmbeddedSoftwareMCU/Libraries/AT32/drivers/src/at32f403a_407_tmr.c **** 
 904:/home/y/github/EmbeddedSoftwareMCU/Libraries/AT32/drivers/src/at32f403a_407_tmr.c ****   channel = tmr_channel;
 905:/home/y/github/EmbeddedSoftwareMCU/Libraries/AT32/drivers/src/at32f403a_407_tmr.c **** 
 906:/home/y/github/EmbeddedSoftwareMCU/Libraries/AT32/drivers/src/at32f403a_407_tmr.c ****   switch(channel)
 1622              		.loc 1 906 0
 1623 0000 0629     		cmp	r1, #6
 1624 0002 27D8     		bhi	.L127
 1625 0004 DFE801F0 		tbb	[pc, r1]
 1626              	.L130:
 1627 0008 04       		.byte	(.L129-.L130)/2
 1628 0009 09       		.byte	(.L131-.L130)/2
 1629 000a 0E       		.byte	(.L132-.L130)/2
 1630 000b 13       		.byte	(.L133-.L130)/2
 1631 000c 18       		.byte	(.L134-.L130)/2
 1632 000d 1D       		.byte	(.L135-.L130)/2
 1633 000e 22       		.byte	(.L136-.L130)/2
 1634 000f 00       		.p2align 1
 1635              	.L129:
 907:/home/y/github/EmbeddedSoftwareMCU/Libraries/AT32/drivers/src/at32f403a_407_tmr.c ****   {
 908:/home/y/github/EmbeddedSoftwareMCU/Libraries/AT32/drivers/src/at32f403a_407_tmr.c ****     case TMR_SELECT_CHANNEL_1:
 909:/home/y/github/EmbeddedSoftwareMCU/Libraries/AT32/drivers/src/at32f403a_407_tmr.c ****       tmr_x->cctrl_bit.c1en         = new_state;
 1636              		.loc 1 909 0
 1637 0010 036A     		ldr	r3, [r0, #32]
 1638 0012 62F30003 		bfi	r3, r2, #0, #1
 1639 0016 0362     		str	r3, [r0, #32]
 910:/home/y/github/EmbeddedSoftwareMCU/Libraries/AT32/drivers/src/at32f403a_407_tmr.c ****       break;
 1640              		.loc 1 910 0
 1641 0018 7047     		bx	lr
 1642              	.L131:
 911:/home/y/github/EmbeddedSoftwareMCU/Libraries/AT32/drivers/src/at32f403a_407_tmr.c **** 
 912:/home/y/github/EmbeddedSoftwareMCU/Libraries/AT32/drivers/src/at32f403a_407_tmr.c ****     case TMR_SELECT_CHANNEL_1C:
 913:/home/y/github/EmbeddedSoftwareMCU/Libraries/AT32/drivers/src/at32f403a_407_tmr.c ****       tmr_x->cctrl_bit.c1cen        = new_state;
 1643              		.loc 1 913 0
 1644 001a 036A     		ldr	r3, [r0, #32]
 1645 001c 62F38203 		bfi	r3, r2, #2, #1
 1646 0020 0362     		str	r3, [r0, #32]
 914:/home/y/github/EmbeddedSoftwareMCU/Libraries/AT32/drivers/src/at32f403a_407_tmr.c ****       break;
 1647              		.loc 1 914 0
 1648 0022 7047     		bx	lr
 1649              	.L132:
 915:/home/y/github/EmbeddedSoftwareMCU/Libraries/AT32/drivers/src/at32f403a_407_tmr.c **** 
ARM GAS  /tmp/ccPqktXd.s 			page 46


 916:/home/y/github/EmbeddedSoftwareMCU/Libraries/AT32/drivers/src/at32f403a_407_tmr.c ****     case TMR_SELECT_CHANNEL_2:
 917:/home/y/github/EmbeddedSoftwareMCU/Libraries/AT32/drivers/src/at32f403a_407_tmr.c ****       tmr_x->cctrl_bit.c2en         = new_state;
 1650              		.loc 1 917 0
 1651 0024 036A     		ldr	r3, [r0, #32]
 1652 0026 62F30413 		bfi	r3, r2, #4, #1
 1653 002a 0362     		str	r3, [r0, #32]
 918:/home/y/github/EmbeddedSoftwareMCU/Libraries/AT32/drivers/src/at32f403a_407_tmr.c ****       break;
 1654              		.loc 1 918 0
 1655 002c 7047     		bx	lr
 1656              	.L133:
 919:/home/y/github/EmbeddedSoftwareMCU/Libraries/AT32/drivers/src/at32f403a_407_tmr.c **** 
 920:/home/y/github/EmbeddedSoftwareMCU/Libraries/AT32/drivers/src/at32f403a_407_tmr.c ****     case TMR_SELECT_CHANNEL_2C:
 921:/home/y/github/EmbeddedSoftwareMCU/Libraries/AT32/drivers/src/at32f403a_407_tmr.c ****       tmr_x->cctrl_bit.c2cen        = new_state;
 1657              		.loc 1 921 0
 1658 002e 036A     		ldr	r3, [r0, #32]
 1659 0030 62F38613 		bfi	r3, r2, #6, #1
 1660 0034 0362     		str	r3, [r0, #32]
 922:/home/y/github/EmbeddedSoftwareMCU/Libraries/AT32/drivers/src/at32f403a_407_tmr.c ****       break;
 1661              		.loc 1 922 0
 1662 0036 7047     		bx	lr
 1663              	.L134:
 923:/home/y/github/EmbeddedSoftwareMCU/Libraries/AT32/drivers/src/at32f403a_407_tmr.c **** 
 924:/home/y/github/EmbeddedSoftwareMCU/Libraries/AT32/drivers/src/at32f403a_407_tmr.c ****     case TMR_SELECT_CHANNEL_3:
 925:/home/y/github/EmbeddedSoftwareMCU/Libraries/AT32/drivers/src/at32f403a_407_tmr.c ****       tmr_x->cctrl_bit.c3en         = new_state;
 1664              		.loc 1 925 0
 1665 0038 036A     		ldr	r3, [r0, #32]
 1666 003a 62F30823 		bfi	r3, r2, #8, #1
 1667 003e 0362     		str	r3, [r0, #32]
 926:/home/y/github/EmbeddedSoftwareMCU/Libraries/AT32/drivers/src/at32f403a_407_tmr.c ****       break;
 1668              		.loc 1 926 0
 1669 0040 7047     		bx	lr
 1670              	.L135:
 927:/home/y/github/EmbeddedSoftwareMCU/Libraries/AT32/drivers/src/at32f403a_407_tmr.c **** 
 928:/home/y/github/EmbeddedSoftwareMCU/Libraries/AT32/drivers/src/at32f403a_407_tmr.c ****     case TMR_SELECT_CHANNEL_3C:
 929:/home/y/github/EmbeddedSoftwareMCU/Libraries/AT32/drivers/src/at32f403a_407_tmr.c ****       tmr_x->cctrl_bit.c3cen        = new_state;
 1671              		.loc 1 929 0
 1672 0042 036A     		ldr	r3, [r0, #32]
 1673 0044 62F38A23 		bfi	r3, r2, #10, #1
 1674 0048 0362     		str	r3, [r0, #32]
 930:/home/y/github/EmbeddedSoftwareMCU/Libraries/AT32/drivers/src/at32f403a_407_tmr.c ****       break;
 1675              		.loc 1 930 0
 1676 004a 7047     		bx	lr
 1677              	.L136:
 931:/home/y/github/EmbeddedSoftwareMCU/Libraries/AT32/drivers/src/at32f403a_407_tmr.c **** 
 932:/home/y/github/EmbeddedSoftwareMCU/Libraries/AT32/drivers/src/at32f403a_407_tmr.c ****     case TMR_SELECT_CHANNEL_4:
 933:/home/y/github/EmbeddedSoftwareMCU/Libraries/AT32/drivers/src/at32f403a_407_tmr.c ****       tmr_x->cctrl_bit.c4en         = new_state;
 1678              		.loc 1 933 0
 1679 004c 036A     		ldr	r3, [r0, #32]
 1680 004e 62F30C33 		bfi	r3, r2, #12, #1
 1681 0052 0362     		str	r3, [r0, #32]
 1682              	.L127:
 1683 0054 7047     		bx	lr
 1684              		.cfi_endproc
 1685              	.LFE161:
 1687              		.section	.text.tmr_input_channel_filter_set,"ax",%progbits
 1688              		.align	1
 1689              		.global	tmr_input_channel_filter_set
ARM GAS  /tmp/ccPqktXd.s 			page 47


 1690              		.syntax unified
 1691              		.thumb
 1692              		.thumb_func
 1693              		.fpu softvfp
 1695              	tmr_input_channel_filter_set:
 1696              	.LFB162:
 934:/home/y/github/EmbeddedSoftwareMCU/Libraries/AT32/drivers/src/at32f403a_407_tmr.c ****       break;
 935:/home/y/github/EmbeddedSoftwareMCU/Libraries/AT32/drivers/src/at32f403a_407_tmr.c **** 
 936:/home/y/github/EmbeddedSoftwareMCU/Libraries/AT32/drivers/src/at32f403a_407_tmr.c ****     default:
 937:/home/y/github/EmbeddedSoftwareMCU/Libraries/AT32/drivers/src/at32f403a_407_tmr.c ****       break;
 938:/home/y/github/EmbeddedSoftwareMCU/Libraries/AT32/drivers/src/at32f403a_407_tmr.c ****   }
 939:/home/y/github/EmbeddedSoftwareMCU/Libraries/AT32/drivers/src/at32f403a_407_tmr.c **** }
 940:/home/y/github/EmbeddedSoftwareMCU/Libraries/AT32/drivers/src/at32f403a_407_tmr.c **** 
 941:/home/y/github/EmbeddedSoftwareMCU/Libraries/AT32/drivers/src/at32f403a_407_tmr.c **** /**
 942:/home/y/github/EmbeddedSoftwareMCU/Libraries/AT32/drivers/src/at32f403a_407_tmr.c ****   * @brief  set tmr input channel filter
 943:/home/y/github/EmbeddedSoftwareMCU/Libraries/AT32/drivers/src/at32f403a_407_tmr.c ****   * @param  tmr_x: select the tmr peripheral.
 944:/home/y/github/EmbeddedSoftwareMCU/Libraries/AT32/drivers/src/at32f403a_407_tmr.c ****   *         this parameter can be one of the following values:
 945:/home/y/github/EmbeddedSoftwareMCU/Libraries/AT32/drivers/src/at32f403a_407_tmr.c ****   *         TMR1, TMR2, TMR3, TMR4, TMR5, TMR8, TMR9, TMR10,
 946:/home/y/github/EmbeddedSoftwareMCU/Libraries/AT32/drivers/src/at32f403a_407_tmr.c ****   *         TMR11, TMR12, TMR13, TMR14
 947:/home/y/github/EmbeddedSoftwareMCU/Libraries/AT32/drivers/src/at32f403a_407_tmr.c ****   * @param  tmr_channel
 948:/home/y/github/EmbeddedSoftwareMCU/Libraries/AT32/drivers/src/at32f403a_407_tmr.c ****   *         this parameter can be one of the following values:
 949:/home/y/github/EmbeddedSoftwareMCU/Libraries/AT32/drivers/src/at32f403a_407_tmr.c ****   *         - TMR_SELECT_CHANNEL_1
 950:/home/y/github/EmbeddedSoftwareMCU/Libraries/AT32/drivers/src/at32f403a_407_tmr.c ****   *         - TMR_SELECT_CHANNEL_2
 951:/home/y/github/EmbeddedSoftwareMCU/Libraries/AT32/drivers/src/at32f403a_407_tmr.c ****   *         - TMR_SELECT_CHANNEL_3
 952:/home/y/github/EmbeddedSoftwareMCU/Libraries/AT32/drivers/src/at32f403a_407_tmr.c ****   *         - TMR_SELECT_CHANNEL_4
 953:/home/y/github/EmbeddedSoftwareMCU/Libraries/AT32/drivers/src/at32f403a_407_tmr.c ****   * @param  filter_value (0x0~0xf)
 954:/home/y/github/EmbeddedSoftwareMCU/Libraries/AT32/drivers/src/at32f403a_407_tmr.c ****   * @retval none
 955:/home/y/github/EmbeddedSoftwareMCU/Libraries/AT32/drivers/src/at32f403a_407_tmr.c ****   */
 956:/home/y/github/EmbeddedSoftwareMCU/Libraries/AT32/drivers/src/at32f403a_407_tmr.c **** void tmr_input_channel_filter_set(tmr_type *tmr_x, tmr_channel_select_type tmr_channel,
 957:/home/y/github/EmbeddedSoftwareMCU/Libraries/AT32/drivers/src/at32f403a_407_tmr.c ****                                   uint16_t filter_value)
 958:/home/y/github/EmbeddedSoftwareMCU/Libraries/AT32/drivers/src/at32f403a_407_tmr.c **** {
 1697              		.loc 1 958 0
 1698              		.cfi_startproc
 1699              		@ args = 0, pretend = 0, frame = 0
 1700              		@ frame_needed = 0, uses_anonymous_args = 0
 1701              		@ link register save eliminated.
 1702              	.LVL142:
 959:/home/y/github/EmbeddedSoftwareMCU/Libraries/AT32/drivers/src/at32f403a_407_tmr.c ****   uint16_t channel;
 960:/home/y/github/EmbeddedSoftwareMCU/Libraries/AT32/drivers/src/at32f403a_407_tmr.c **** 
 961:/home/y/github/EmbeddedSoftwareMCU/Libraries/AT32/drivers/src/at32f403a_407_tmr.c ****   channel = tmr_channel;
 962:/home/y/github/EmbeddedSoftwareMCU/Libraries/AT32/drivers/src/at32f403a_407_tmr.c **** 
 963:/home/y/github/EmbeddedSoftwareMCU/Libraries/AT32/drivers/src/at32f403a_407_tmr.c ****   switch(channel)
 1703              		.loc 1 963 0
 1704 0000 0629     		cmp	r1, #6
 1705 0002 18D8     		bhi	.L137
 1706 0004 DFE801F0 		tbb	[pc, r1]
 1707              	.L140:
 1708 0008 04       		.byte	(.L139-.L140)/2
 1709 0009 17       		.byte	(.L137-.L140)/2
 1710 000a 09       		.byte	(.L141-.L140)/2
 1711 000b 17       		.byte	(.L137-.L140)/2
 1712 000c 0E       		.byte	(.L142-.L140)/2
 1713 000d 17       		.byte	(.L137-.L140)/2
 1714 000e 13       		.byte	(.L143-.L140)/2
 1715 000f 00       		.p2align 1
 1716              	.L139:
 964:/home/y/github/EmbeddedSoftwareMCU/Libraries/AT32/drivers/src/at32f403a_407_tmr.c ****   {
ARM GAS  /tmp/ccPqktXd.s 			page 48


 965:/home/y/github/EmbeddedSoftwareMCU/Libraries/AT32/drivers/src/at32f403a_407_tmr.c ****     case TMR_SELECT_CHANNEL_1:
 966:/home/y/github/EmbeddedSoftwareMCU/Libraries/AT32/drivers/src/at32f403a_407_tmr.c ****       tmr_x->cm1_input_bit.c1df = filter_value;
 1717              		.loc 1 966 0
 1718 0010 8369     		ldr	r3, [r0, #24]
 1719 0012 62F30713 		bfi	r3, r2, #4, #4
 1720 0016 8361     		str	r3, [r0, #24]
 967:/home/y/github/EmbeddedSoftwareMCU/Libraries/AT32/drivers/src/at32f403a_407_tmr.c ****       break;
 1721              		.loc 1 967 0
 1722 0018 7047     		bx	lr
 1723              	.L141:
 968:/home/y/github/EmbeddedSoftwareMCU/Libraries/AT32/drivers/src/at32f403a_407_tmr.c **** 
 969:/home/y/github/EmbeddedSoftwareMCU/Libraries/AT32/drivers/src/at32f403a_407_tmr.c ****     case TMR_SELECT_CHANNEL_2:
 970:/home/y/github/EmbeddedSoftwareMCU/Libraries/AT32/drivers/src/at32f403a_407_tmr.c ****       tmr_x->cm1_input_bit.c2df = filter_value;
 1724              		.loc 1 970 0
 1725 001a 8369     		ldr	r3, [r0, #24]
 1726 001c 62F30F33 		bfi	r3, r2, #12, #4
 1727 0020 8361     		str	r3, [r0, #24]
 971:/home/y/github/EmbeddedSoftwareMCU/Libraries/AT32/drivers/src/at32f403a_407_tmr.c ****       break;
 1728              		.loc 1 971 0
 1729 0022 7047     		bx	lr
 1730              	.L142:
 972:/home/y/github/EmbeddedSoftwareMCU/Libraries/AT32/drivers/src/at32f403a_407_tmr.c **** 
 973:/home/y/github/EmbeddedSoftwareMCU/Libraries/AT32/drivers/src/at32f403a_407_tmr.c ****     case TMR_SELECT_CHANNEL_3:
 974:/home/y/github/EmbeddedSoftwareMCU/Libraries/AT32/drivers/src/at32f403a_407_tmr.c ****       tmr_x->cm2_input_bit.c3df = filter_value;
 1731              		.loc 1 974 0
 1732 0024 C369     		ldr	r3, [r0, #28]
 1733 0026 62F30713 		bfi	r3, r2, #4, #4
 1734 002a C361     		str	r3, [r0, #28]
 975:/home/y/github/EmbeddedSoftwareMCU/Libraries/AT32/drivers/src/at32f403a_407_tmr.c ****       break;
 1735              		.loc 1 975 0
 1736 002c 7047     		bx	lr
 1737              	.L143:
 976:/home/y/github/EmbeddedSoftwareMCU/Libraries/AT32/drivers/src/at32f403a_407_tmr.c **** 
 977:/home/y/github/EmbeddedSoftwareMCU/Libraries/AT32/drivers/src/at32f403a_407_tmr.c ****     case TMR_SELECT_CHANNEL_4:
 978:/home/y/github/EmbeddedSoftwareMCU/Libraries/AT32/drivers/src/at32f403a_407_tmr.c ****       tmr_x->cm2_input_bit.c4df = filter_value;
 1738              		.loc 1 978 0
 1739 002e C369     		ldr	r3, [r0, #28]
 1740 0030 62F30F33 		bfi	r3, r2, #12, #4
 1741 0034 C361     		str	r3, [r0, #28]
 1742              	.L137:
 1743 0036 7047     		bx	lr
 1744              		.cfi_endproc
 1745              	.LFE162:
 1747              		.section	.text.tmr_pwm_input_config,"ax",%progbits
 1748              		.align	1
 1749              		.global	tmr_pwm_input_config
 1750              		.syntax unified
 1751              		.thumb
 1752              		.thumb_func
 1753              		.fpu softvfp
 1755              	tmr_pwm_input_config:
 1756              	.LFB163:
 979:/home/y/github/EmbeddedSoftwareMCU/Libraries/AT32/drivers/src/at32f403a_407_tmr.c ****       break;
 980:/home/y/github/EmbeddedSoftwareMCU/Libraries/AT32/drivers/src/at32f403a_407_tmr.c **** 
 981:/home/y/github/EmbeddedSoftwareMCU/Libraries/AT32/drivers/src/at32f403a_407_tmr.c ****     default:
 982:/home/y/github/EmbeddedSoftwareMCU/Libraries/AT32/drivers/src/at32f403a_407_tmr.c ****       break;
 983:/home/y/github/EmbeddedSoftwareMCU/Libraries/AT32/drivers/src/at32f403a_407_tmr.c ****   }
ARM GAS  /tmp/ccPqktXd.s 			page 49


 984:/home/y/github/EmbeddedSoftwareMCU/Libraries/AT32/drivers/src/at32f403a_407_tmr.c **** }
 985:/home/y/github/EmbeddedSoftwareMCU/Libraries/AT32/drivers/src/at32f403a_407_tmr.c **** 
 986:/home/y/github/EmbeddedSoftwareMCU/Libraries/AT32/drivers/src/at32f403a_407_tmr.c **** /**
 987:/home/y/github/EmbeddedSoftwareMCU/Libraries/AT32/drivers/src/at32f403a_407_tmr.c ****   * @brief  config tmr pwm input
 988:/home/y/github/EmbeddedSoftwareMCU/Libraries/AT32/drivers/src/at32f403a_407_tmr.c ****   * @param  tmr_x: select the tmr peripheral.
 989:/home/y/github/EmbeddedSoftwareMCU/Libraries/AT32/drivers/src/at32f403a_407_tmr.c ****   *         this parameter can be one of the following values:
 990:/home/y/github/EmbeddedSoftwareMCU/Libraries/AT32/drivers/src/at32f403a_407_tmr.c ****   *         TMR1, TMR2, TMR3, TMR4, TMR5, TMR8, TMR9, TMR10,
 991:/home/y/github/EmbeddedSoftwareMCU/Libraries/AT32/drivers/src/at32f403a_407_tmr.c ****   *         TMR11, TMR12, TMR13, TMR14
 992:/home/y/github/EmbeddedSoftwareMCU/Libraries/AT32/drivers/src/at32f403a_407_tmr.c ****   * @param  input_struct
 993:/home/y/github/EmbeddedSoftwareMCU/Libraries/AT32/drivers/src/at32f403a_407_tmr.c ****   *         - to the structure of tmr_input_config_type
 994:/home/y/github/EmbeddedSoftwareMCU/Libraries/AT32/drivers/src/at32f403a_407_tmr.c ****   * @param  divider_factor
 995:/home/y/github/EmbeddedSoftwareMCU/Libraries/AT32/drivers/src/at32f403a_407_tmr.c ****   *         this parameter can be one of the following values:
 996:/home/y/github/EmbeddedSoftwareMCU/Libraries/AT32/drivers/src/at32f403a_407_tmr.c ****   *         - TMR_CHANNEL_INPUT_DIV_1
 997:/home/y/github/EmbeddedSoftwareMCU/Libraries/AT32/drivers/src/at32f403a_407_tmr.c ****   *         - TMR_CHANNEL_INPUT_DIV_2
 998:/home/y/github/EmbeddedSoftwareMCU/Libraries/AT32/drivers/src/at32f403a_407_tmr.c ****   *         - TMR_CHANNEL_INPUT_DIV_4
 999:/home/y/github/EmbeddedSoftwareMCU/Libraries/AT32/drivers/src/at32f403a_407_tmr.c ****   *         - TMR_CHANNEL_INPUT_DIV_8
1000:/home/y/github/EmbeddedSoftwareMCU/Libraries/AT32/drivers/src/at32f403a_407_tmr.c ****   * @retval none
1001:/home/y/github/EmbeddedSoftwareMCU/Libraries/AT32/drivers/src/at32f403a_407_tmr.c ****   */
1002:/home/y/github/EmbeddedSoftwareMCU/Libraries/AT32/drivers/src/at32f403a_407_tmr.c **** void tmr_pwm_input_config(tmr_type *tmr_x, tmr_input_config_type *input_struct,
1003:/home/y/github/EmbeddedSoftwareMCU/Libraries/AT32/drivers/src/at32f403a_407_tmr.c ****                           tmr_channel_input_divider_type divider_factor)
1004:/home/y/github/EmbeddedSoftwareMCU/Libraries/AT32/drivers/src/at32f403a_407_tmr.c **** {
 1757              		.loc 1 1004 0
 1758              		.cfi_startproc
 1759              		@ args = 0, pretend = 0, frame = 0
 1760              		@ frame_needed = 0, uses_anonymous_args = 0
 1761              		@ link register save eliminated.
 1762              	.LVL143:
 1763 0000 10B4     		push	{r4}
 1764              	.LCFI7:
 1765              		.cfi_def_cfa_offset 4
 1766              		.cfi_offset 4, -4
 1767              	.LVL144:
1005:/home/y/github/EmbeddedSoftwareMCU/Libraries/AT32/drivers/src/at32f403a_407_tmr.c ****   uint16_t channel = 0;
1006:/home/y/github/EmbeddedSoftwareMCU/Libraries/AT32/drivers/src/at32f403a_407_tmr.c **** 
1007:/home/y/github/EmbeddedSoftwareMCU/Libraries/AT32/drivers/src/at32f403a_407_tmr.c ****   /* get channel selected */
1008:/home/y/github/EmbeddedSoftwareMCU/Libraries/AT32/drivers/src/at32f403a_407_tmr.c ****   channel = input_struct->input_channel_select;
 1768              		.loc 1 1008 0
 1769 0002 0B78     		ldrb	r3, [r1]	@ zero_extendqisi2
 1770              	.LVL145:
1009:/home/y/github/EmbeddedSoftwareMCU/Libraries/AT32/drivers/src/at32f403a_407_tmr.c **** 
1010:/home/y/github/EmbeddedSoftwareMCU/Libraries/AT32/drivers/src/at32f403a_407_tmr.c ****   switch(channel)
 1771              		.loc 1 1010 0
 1772 0004 1BB1     		cbz	r3, .L146
 1773 0006 022B     		cmp	r3, #2
 1774 0008 4ED0     		beq	.L147
 1775              	.LVL146:
 1776              	.L144:
1011:/home/y/github/EmbeddedSoftwareMCU/Libraries/AT32/drivers/src/at32f403a_407_tmr.c ****   {
1012:/home/y/github/EmbeddedSoftwareMCU/Libraries/AT32/drivers/src/at32f403a_407_tmr.c ****     case TMR_SELECT_CHANNEL_1:
1013:/home/y/github/EmbeddedSoftwareMCU/Libraries/AT32/drivers/src/at32f403a_407_tmr.c ****       if(input_struct->input_polarity_select == TMR_INPUT_RISING_EDGE)
1014:/home/y/github/EmbeddedSoftwareMCU/Libraries/AT32/drivers/src/at32f403a_407_tmr.c ****       {
1015:/home/y/github/EmbeddedSoftwareMCU/Libraries/AT32/drivers/src/at32f403a_407_tmr.c ****         /* set channel polarity */
1016:/home/y/github/EmbeddedSoftwareMCU/Libraries/AT32/drivers/src/at32f403a_407_tmr.c ****         tmr_x->cctrl_bit.c1p          = TMR_INPUT_RISING_EDGE;
1017:/home/y/github/EmbeddedSoftwareMCU/Libraries/AT32/drivers/src/at32f403a_407_tmr.c ****         tmr_x->cctrl_bit.c2p          = TMR_INPUT_FALLING_EDGE;
1018:/home/y/github/EmbeddedSoftwareMCU/Libraries/AT32/drivers/src/at32f403a_407_tmr.c ****       }
1019:/home/y/github/EmbeddedSoftwareMCU/Libraries/AT32/drivers/src/at32f403a_407_tmr.c ****       else if(input_struct->input_polarity_select == TMR_INPUT_FALLING_EDGE)
1020:/home/y/github/EmbeddedSoftwareMCU/Libraries/AT32/drivers/src/at32f403a_407_tmr.c ****       {
ARM GAS  /tmp/ccPqktXd.s 			page 50


1021:/home/y/github/EmbeddedSoftwareMCU/Libraries/AT32/drivers/src/at32f403a_407_tmr.c ****         /* set channel polarity */
1022:/home/y/github/EmbeddedSoftwareMCU/Libraries/AT32/drivers/src/at32f403a_407_tmr.c ****         tmr_x->cctrl_bit.c1p          = TMR_INPUT_FALLING_EDGE;
1023:/home/y/github/EmbeddedSoftwareMCU/Libraries/AT32/drivers/src/at32f403a_407_tmr.c ****         tmr_x->cctrl_bit.c2p          = TMR_INPUT_RISING_EDGE;
1024:/home/y/github/EmbeddedSoftwareMCU/Libraries/AT32/drivers/src/at32f403a_407_tmr.c ****       }
1025:/home/y/github/EmbeddedSoftwareMCU/Libraries/AT32/drivers/src/at32f403a_407_tmr.c **** 
1026:/home/y/github/EmbeddedSoftwareMCU/Libraries/AT32/drivers/src/at32f403a_407_tmr.c ****       if(input_struct->input_mapped_select == TMR_CC_CHANNEL_MAPPED_DIRECT)
1027:/home/y/github/EmbeddedSoftwareMCU/Libraries/AT32/drivers/src/at32f403a_407_tmr.c ****       {
1028:/home/y/github/EmbeddedSoftwareMCU/Libraries/AT32/drivers/src/at32f403a_407_tmr.c ****         /* ic1 is mapped on ti1 */
1029:/home/y/github/EmbeddedSoftwareMCU/Libraries/AT32/drivers/src/at32f403a_407_tmr.c ****         tmr_x->cm1_input_bit.c1c = TMR_CC_CHANNEL_MAPPED_DIRECT;
1030:/home/y/github/EmbeddedSoftwareMCU/Libraries/AT32/drivers/src/at32f403a_407_tmr.c **** 
1031:/home/y/github/EmbeddedSoftwareMCU/Libraries/AT32/drivers/src/at32f403a_407_tmr.c ****         /* ic1 is mapped on ti2 */
1032:/home/y/github/EmbeddedSoftwareMCU/Libraries/AT32/drivers/src/at32f403a_407_tmr.c ****         tmr_x->cm1_input_bit.c2c = TMR_CC_CHANNEL_MAPPED_INDIRECT;
1033:/home/y/github/EmbeddedSoftwareMCU/Libraries/AT32/drivers/src/at32f403a_407_tmr.c ****       }
1034:/home/y/github/EmbeddedSoftwareMCU/Libraries/AT32/drivers/src/at32f403a_407_tmr.c ****       else if(input_struct->input_mapped_select == TMR_CC_CHANNEL_MAPPED_INDIRECT)
1035:/home/y/github/EmbeddedSoftwareMCU/Libraries/AT32/drivers/src/at32f403a_407_tmr.c ****       {
1036:/home/y/github/EmbeddedSoftwareMCU/Libraries/AT32/drivers/src/at32f403a_407_tmr.c ****         /* ic1 is mapped on ti1 */
1037:/home/y/github/EmbeddedSoftwareMCU/Libraries/AT32/drivers/src/at32f403a_407_tmr.c ****         tmr_x->cm1_input_bit.c1c = TMR_CC_CHANNEL_MAPPED_INDIRECT;
1038:/home/y/github/EmbeddedSoftwareMCU/Libraries/AT32/drivers/src/at32f403a_407_tmr.c **** 
1039:/home/y/github/EmbeddedSoftwareMCU/Libraries/AT32/drivers/src/at32f403a_407_tmr.c ****         /* ic1 is mapped on ti2 */
1040:/home/y/github/EmbeddedSoftwareMCU/Libraries/AT32/drivers/src/at32f403a_407_tmr.c ****         tmr_x->cm1_input_bit.c2c = TMR_CC_CHANNEL_MAPPED_DIRECT;
1041:/home/y/github/EmbeddedSoftwareMCU/Libraries/AT32/drivers/src/at32f403a_407_tmr.c ****       }
1042:/home/y/github/EmbeddedSoftwareMCU/Libraries/AT32/drivers/src/at32f403a_407_tmr.c **** 
1043:/home/y/github/EmbeddedSoftwareMCU/Libraries/AT32/drivers/src/at32f403a_407_tmr.c ****       /* set input ch1 and ch2 filter value*/
1044:/home/y/github/EmbeddedSoftwareMCU/Libraries/AT32/drivers/src/at32f403a_407_tmr.c ****       tmr_x->cm1_input_bit.c1df = input_struct->input_filter_value;
1045:/home/y/github/EmbeddedSoftwareMCU/Libraries/AT32/drivers/src/at32f403a_407_tmr.c ****       tmr_x->cm1_input_bit.c2df = input_struct->input_filter_value;
1046:/home/y/github/EmbeddedSoftwareMCU/Libraries/AT32/drivers/src/at32f403a_407_tmr.c **** 
1047:/home/y/github/EmbeddedSoftwareMCU/Libraries/AT32/drivers/src/at32f403a_407_tmr.c ****       /*set input ch1 and ch2 divider value*/
1048:/home/y/github/EmbeddedSoftwareMCU/Libraries/AT32/drivers/src/at32f403a_407_tmr.c ****       tmr_x->cm1_input_bit.c1idiv = divider_factor;
1049:/home/y/github/EmbeddedSoftwareMCU/Libraries/AT32/drivers/src/at32f403a_407_tmr.c ****       tmr_x->cm1_input_bit.c2idiv = divider_factor;
1050:/home/y/github/EmbeddedSoftwareMCU/Libraries/AT32/drivers/src/at32f403a_407_tmr.c **** 
1051:/home/y/github/EmbeddedSoftwareMCU/Libraries/AT32/drivers/src/at32f403a_407_tmr.c ****       tmr_x->cctrl_bit.c1en = TRUE;
1052:/home/y/github/EmbeddedSoftwareMCU/Libraries/AT32/drivers/src/at32f403a_407_tmr.c ****       tmr_x->cctrl_bit.c2en = TRUE;
1053:/home/y/github/EmbeddedSoftwareMCU/Libraries/AT32/drivers/src/at32f403a_407_tmr.c ****       break;
1054:/home/y/github/EmbeddedSoftwareMCU/Libraries/AT32/drivers/src/at32f403a_407_tmr.c **** 
1055:/home/y/github/EmbeddedSoftwareMCU/Libraries/AT32/drivers/src/at32f403a_407_tmr.c ****     case TMR_SELECT_CHANNEL_2:
1056:/home/y/github/EmbeddedSoftwareMCU/Libraries/AT32/drivers/src/at32f403a_407_tmr.c ****       if(input_struct->input_polarity_select == TMR_INPUT_RISING_EDGE)
1057:/home/y/github/EmbeddedSoftwareMCU/Libraries/AT32/drivers/src/at32f403a_407_tmr.c ****       {
1058:/home/y/github/EmbeddedSoftwareMCU/Libraries/AT32/drivers/src/at32f403a_407_tmr.c ****         /* set channel polarity */
1059:/home/y/github/EmbeddedSoftwareMCU/Libraries/AT32/drivers/src/at32f403a_407_tmr.c ****         tmr_x->cctrl_bit.c2p          = TMR_INPUT_RISING_EDGE;
1060:/home/y/github/EmbeddedSoftwareMCU/Libraries/AT32/drivers/src/at32f403a_407_tmr.c ****         tmr_x->cctrl_bit.c1p          = TMR_INPUT_FALLING_EDGE;
1061:/home/y/github/EmbeddedSoftwareMCU/Libraries/AT32/drivers/src/at32f403a_407_tmr.c ****       }
1062:/home/y/github/EmbeddedSoftwareMCU/Libraries/AT32/drivers/src/at32f403a_407_tmr.c ****       else if(input_struct->input_polarity_select == TMR_INPUT_FALLING_EDGE)
1063:/home/y/github/EmbeddedSoftwareMCU/Libraries/AT32/drivers/src/at32f403a_407_tmr.c ****       {
1064:/home/y/github/EmbeddedSoftwareMCU/Libraries/AT32/drivers/src/at32f403a_407_tmr.c ****         /* set channel polarity */
1065:/home/y/github/EmbeddedSoftwareMCU/Libraries/AT32/drivers/src/at32f403a_407_tmr.c ****         tmr_x->cctrl_bit.c2p          = TMR_INPUT_FALLING_EDGE;
1066:/home/y/github/EmbeddedSoftwareMCU/Libraries/AT32/drivers/src/at32f403a_407_tmr.c ****         tmr_x->cctrl_bit.c1p          = TMR_INPUT_RISING_EDGE;
1067:/home/y/github/EmbeddedSoftwareMCU/Libraries/AT32/drivers/src/at32f403a_407_tmr.c ****       }
1068:/home/y/github/EmbeddedSoftwareMCU/Libraries/AT32/drivers/src/at32f403a_407_tmr.c **** 
1069:/home/y/github/EmbeddedSoftwareMCU/Libraries/AT32/drivers/src/at32f403a_407_tmr.c ****       if(input_struct->input_mapped_select == TMR_CC_CHANNEL_MAPPED_DIRECT)
1070:/home/y/github/EmbeddedSoftwareMCU/Libraries/AT32/drivers/src/at32f403a_407_tmr.c ****       {
1071:/home/y/github/EmbeddedSoftwareMCU/Libraries/AT32/drivers/src/at32f403a_407_tmr.c ****         /* set mapped direct */
1072:/home/y/github/EmbeddedSoftwareMCU/Libraries/AT32/drivers/src/at32f403a_407_tmr.c ****         tmr_x->cm1_input_bit.c2c = TMR_CC_CHANNEL_MAPPED_DIRECT;
1073:/home/y/github/EmbeddedSoftwareMCU/Libraries/AT32/drivers/src/at32f403a_407_tmr.c ****         tmr_x->cm1_input_bit.c1c = TMR_CC_CHANNEL_MAPPED_INDIRECT;
1074:/home/y/github/EmbeddedSoftwareMCU/Libraries/AT32/drivers/src/at32f403a_407_tmr.c ****       }
1075:/home/y/github/EmbeddedSoftwareMCU/Libraries/AT32/drivers/src/at32f403a_407_tmr.c ****       else if(input_struct->input_mapped_select == TMR_CC_CHANNEL_MAPPED_INDIRECT)
1076:/home/y/github/EmbeddedSoftwareMCU/Libraries/AT32/drivers/src/at32f403a_407_tmr.c ****       {
1077:/home/y/github/EmbeddedSoftwareMCU/Libraries/AT32/drivers/src/at32f403a_407_tmr.c ****         /* set mapped direct */
ARM GAS  /tmp/ccPqktXd.s 			page 51


1078:/home/y/github/EmbeddedSoftwareMCU/Libraries/AT32/drivers/src/at32f403a_407_tmr.c ****         tmr_x->cm1_input_bit.c2c = TMR_CC_CHANNEL_MAPPED_INDIRECT;
1079:/home/y/github/EmbeddedSoftwareMCU/Libraries/AT32/drivers/src/at32f403a_407_tmr.c ****         tmr_x->cm1_input_bit.c1c = TMR_CC_CHANNEL_MAPPED_DIRECT;
1080:/home/y/github/EmbeddedSoftwareMCU/Libraries/AT32/drivers/src/at32f403a_407_tmr.c ****       }
1081:/home/y/github/EmbeddedSoftwareMCU/Libraries/AT32/drivers/src/at32f403a_407_tmr.c **** 
1082:/home/y/github/EmbeddedSoftwareMCU/Libraries/AT32/drivers/src/at32f403a_407_tmr.c ****       /* set input ch1 and ch2 filter value*/
1083:/home/y/github/EmbeddedSoftwareMCU/Libraries/AT32/drivers/src/at32f403a_407_tmr.c ****       tmr_x->cm1_input_bit.c1df = input_struct->input_filter_value;
1084:/home/y/github/EmbeddedSoftwareMCU/Libraries/AT32/drivers/src/at32f403a_407_tmr.c ****       tmr_x->cm1_input_bit.c2df = input_struct->input_filter_value;
1085:/home/y/github/EmbeddedSoftwareMCU/Libraries/AT32/drivers/src/at32f403a_407_tmr.c **** 
1086:/home/y/github/EmbeddedSoftwareMCU/Libraries/AT32/drivers/src/at32f403a_407_tmr.c ****       /*set input ch1 and ch2 divider value*/
1087:/home/y/github/EmbeddedSoftwareMCU/Libraries/AT32/drivers/src/at32f403a_407_tmr.c ****       tmr_x->cm1_input_bit.c1idiv = divider_factor;
1088:/home/y/github/EmbeddedSoftwareMCU/Libraries/AT32/drivers/src/at32f403a_407_tmr.c ****       tmr_x->cm1_input_bit.c2idiv = divider_factor;
1089:/home/y/github/EmbeddedSoftwareMCU/Libraries/AT32/drivers/src/at32f403a_407_tmr.c **** 
1090:/home/y/github/EmbeddedSoftwareMCU/Libraries/AT32/drivers/src/at32f403a_407_tmr.c ****       tmr_x->cctrl_bit.c1en = TRUE;
1091:/home/y/github/EmbeddedSoftwareMCU/Libraries/AT32/drivers/src/at32f403a_407_tmr.c ****       tmr_x->cctrl_bit.c2en = TRUE;
1092:/home/y/github/EmbeddedSoftwareMCU/Libraries/AT32/drivers/src/at32f403a_407_tmr.c ****       break;
1093:/home/y/github/EmbeddedSoftwareMCU/Libraries/AT32/drivers/src/at32f403a_407_tmr.c **** 
1094:/home/y/github/EmbeddedSoftwareMCU/Libraries/AT32/drivers/src/at32f403a_407_tmr.c ****     default:
1095:/home/y/github/EmbeddedSoftwareMCU/Libraries/AT32/drivers/src/at32f403a_407_tmr.c ****       break;
1096:/home/y/github/EmbeddedSoftwareMCU/Libraries/AT32/drivers/src/at32f403a_407_tmr.c ****   }
1097:/home/y/github/EmbeddedSoftwareMCU/Libraries/AT32/drivers/src/at32f403a_407_tmr.c **** }
 1777              		.loc 1 1097 0
 1778 000a 10BC     		pop	{r4}
 1779              	.LCFI8:
 1780              		.cfi_remember_state
 1781              		.cfi_restore 4
 1782              		.cfi_def_cfa_offset 0
 1783 000c 7047     		bx	lr
 1784              	.LVL147:
 1785              	.L146:
 1786              	.LCFI9:
 1787              		.cfi_restore_state
1013:/home/y/github/EmbeddedSoftwareMCU/Libraries/AT32/drivers/src/at32f403a_407_tmr.c ****       {
 1788              		.loc 1 1013 0
 1789 000e 4B78     		ldrb	r3, [r1, #1]	@ zero_extendqisi2
 1790              	.LVL148:
 1791 0010 4BBB     		cbnz	r3, .L148
1016:/home/y/github/EmbeddedSoftwareMCU/Libraries/AT32/drivers/src/at32f403a_407_tmr.c ****         tmr_x->cctrl_bit.c2p          = TMR_INPUT_FALLING_EDGE;
 1792              		.loc 1 1016 0
 1793 0012 036A     		ldr	r3, [r0, #32]
 1794 0014 6FF34103 		bfc	r3, #1, #1
 1795 0018 0362     		str	r3, [r0, #32]
 1796              	.LVL149:
1017:/home/y/github/EmbeddedSoftwareMCU/Libraries/AT32/drivers/src/at32f403a_407_tmr.c ****       }
 1797              		.loc 1 1017 0
 1798 001a 036A     		ldr	r3, [r0, #32]
 1799 001c 43F02003 		orr	r3, r3, #32
 1800 0020 0362     		str	r3, [r0, #32]
 1801              	.L149:
1026:/home/y/github/EmbeddedSoftwareMCU/Libraries/AT32/drivers/src/at32f403a_407_tmr.c ****       {
 1802              		.loc 1 1026 0
 1803 0022 8B78     		ldrb	r3, [r1, #2]	@ zero_extendqisi2
 1804 0024 012B     		cmp	r3, #1
 1805 0026 29D0     		beq	.L157
1034:/home/y/github/EmbeddedSoftwareMCU/Libraries/AT32/drivers/src/at32f403a_407_tmr.c ****       {
 1806              		.loc 1 1034 0
 1807 0028 022B     		cmp	r3, #2
 1808 002a 32D0     		beq	.L158
ARM GAS  /tmp/ccPqktXd.s 			page 52


 1809              	.L151:
1044:/home/y/github/EmbeddedSoftwareMCU/Libraries/AT32/drivers/src/at32f403a_407_tmr.c ****       tmr_x->cm1_input_bit.c2df = input_struct->input_filter_value;
 1810              		.loc 1 1044 0
 1811 002c CC78     		ldrb	r4, [r1, #3]	@ zero_extendqisi2
 1812 002e 8369     		ldr	r3, [r0, #24]
 1813 0030 64F30713 		bfi	r3, r4, #4, #4
 1814 0034 8361     		str	r3, [r0, #24]
1045:/home/y/github/EmbeddedSoftwareMCU/Libraries/AT32/drivers/src/at32f403a_407_tmr.c **** 
 1815              		.loc 1 1045 0
 1816 0036 C978     		ldrb	r1, [r1, #3]	@ zero_extendqisi2
 1817              	.LVL150:
 1818 0038 8369     		ldr	r3, [r0, #24]
 1819 003a 61F30F33 		bfi	r3, r1, #12, #4
 1820 003e 8361     		str	r3, [r0, #24]
1048:/home/y/github/EmbeddedSoftwareMCU/Libraries/AT32/drivers/src/at32f403a_407_tmr.c ****       tmr_x->cm1_input_bit.c2idiv = divider_factor;
 1821              		.loc 1 1048 0
 1822 0040 02F00302 		and	r2, r2, #3
 1823              	.LVL151:
 1824 0044 8369     		ldr	r3, [r0, #24]
 1825 0046 62F38303 		bfi	r3, r2, #2, #2
 1826 004a 8361     		str	r3, [r0, #24]
1049:/home/y/github/EmbeddedSoftwareMCU/Libraries/AT32/drivers/src/at32f403a_407_tmr.c **** 
 1827              		.loc 1 1049 0
 1828 004c 8369     		ldr	r3, [r0, #24]
 1829 004e 62F38B23 		bfi	r3, r2, #10, #2
 1830 0052 8361     		str	r3, [r0, #24]
1051:/home/y/github/EmbeddedSoftwareMCU/Libraries/AT32/drivers/src/at32f403a_407_tmr.c ****       tmr_x->cctrl_bit.c2en = TRUE;
 1831              		.loc 1 1051 0
 1832 0054 036A     		ldr	r3, [r0, #32]
 1833 0056 43F00103 		orr	r3, r3, #1
 1834 005a 0362     		str	r3, [r0, #32]
1052:/home/y/github/EmbeddedSoftwareMCU/Libraries/AT32/drivers/src/at32f403a_407_tmr.c ****       break;
 1835              		.loc 1 1052 0
 1836 005c 036A     		ldr	r3, [r0, #32]
 1837 005e 43F01003 		orr	r3, r3, #16
 1838 0062 0362     		str	r3, [r0, #32]
1053:/home/y/github/EmbeddedSoftwareMCU/Libraries/AT32/drivers/src/at32f403a_407_tmr.c **** 
 1839              		.loc 1 1053 0
 1840 0064 D1E7     		b	.L144
 1841              	.LVL152:
 1842              	.L148:
1019:/home/y/github/EmbeddedSoftwareMCU/Libraries/AT32/drivers/src/at32f403a_407_tmr.c ****       {
 1843              		.loc 1 1019 0
 1844 0066 012B     		cmp	r3, #1
 1845 0068 DBD1     		bne	.L149
1022:/home/y/github/EmbeddedSoftwareMCU/Libraries/AT32/drivers/src/at32f403a_407_tmr.c ****         tmr_x->cctrl_bit.c2p          = TMR_INPUT_RISING_EDGE;
 1846              		.loc 1 1022 0
 1847 006a 036A     		ldr	r3, [r0, #32]
 1848 006c 43F00203 		orr	r3, r3, #2
 1849 0070 0362     		str	r3, [r0, #32]
 1850              	.LVL153:
1023:/home/y/github/EmbeddedSoftwareMCU/Libraries/AT32/drivers/src/at32f403a_407_tmr.c ****       }
 1851              		.loc 1 1023 0
 1852 0072 036A     		ldr	r3, [r0, #32]
 1853 0074 6FF34513 		bfc	r3, #5, #1
 1854 0078 0362     		str	r3, [r0, #32]
 1855 007a D2E7     		b	.L149
ARM GAS  /tmp/ccPqktXd.s 			page 53


 1856              	.L157:
1029:/home/y/github/EmbeddedSoftwareMCU/Libraries/AT32/drivers/src/at32f403a_407_tmr.c **** 
 1857              		.loc 1 1029 0
 1858 007c 8369     		ldr	r3, [r0, #24]
 1859 007e 0124     		movs	r4, #1
 1860 0080 64F30103 		bfi	r3, r4, #0, #2
 1861 0084 8361     		str	r3, [r0, #24]
1032:/home/y/github/EmbeddedSoftwareMCU/Libraries/AT32/drivers/src/at32f403a_407_tmr.c ****       }
 1862              		.loc 1 1032 0
 1863 0086 8369     		ldr	r3, [r0, #24]
 1864 0088 0224     		movs	r4, #2
 1865 008a 64F30923 		bfi	r3, r4, #8, #2
 1866 008e 8361     		str	r3, [r0, #24]
 1867 0090 CCE7     		b	.L151
 1868              	.L158:
1037:/home/y/github/EmbeddedSoftwareMCU/Libraries/AT32/drivers/src/at32f403a_407_tmr.c **** 
 1869              		.loc 1 1037 0
 1870 0092 8369     		ldr	r3, [r0, #24]
 1871 0094 0224     		movs	r4, #2
 1872 0096 64F30103 		bfi	r3, r4, #0, #2
 1873 009a 8361     		str	r3, [r0, #24]
1040:/home/y/github/EmbeddedSoftwareMCU/Libraries/AT32/drivers/src/at32f403a_407_tmr.c ****       }
 1874              		.loc 1 1040 0
 1875 009c 8369     		ldr	r3, [r0, #24]
 1876 009e 0124     		movs	r4, #1
 1877 00a0 64F30923 		bfi	r3, r4, #8, #2
 1878 00a4 8361     		str	r3, [r0, #24]
 1879 00a6 C1E7     		b	.L151
 1880              	.LVL154:
 1881              	.L147:
1056:/home/y/github/EmbeddedSoftwareMCU/Libraries/AT32/drivers/src/at32f403a_407_tmr.c ****       {
 1882              		.loc 1 1056 0
 1883 00a8 4B78     		ldrb	r3, [r1, #1]	@ zero_extendqisi2
 1884              	.LVL155:
 1885 00aa 4BBB     		cbnz	r3, .L152
1059:/home/y/github/EmbeddedSoftwareMCU/Libraries/AT32/drivers/src/at32f403a_407_tmr.c ****         tmr_x->cctrl_bit.c1p          = TMR_INPUT_FALLING_EDGE;
 1886              		.loc 1 1059 0
 1887 00ac 036A     		ldr	r3, [r0, #32]
 1888 00ae 6FF34513 		bfc	r3, #5, #1
 1889 00b2 0362     		str	r3, [r0, #32]
 1890              	.LVL156:
1060:/home/y/github/EmbeddedSoftwareMCU/Libraries/AT32/drivers/src/at32f403a_407_tmr.c ****       }
 1891              		.loc 1 1060 0
 1892 00b4 036A     		ldr	r3, [r0, #32]
 1893 00b6 43F00203 		orr	r3, r3, #2
 1894 00ba 0362     		str	r3, [r0, #32]
 1895              	.L153:
1069:/home/y/github/EmbeddedSoftwareMCU/Libraries/AT32/drivers/src/at32f403a_407_tmr.c ****       {
 1896              		.loc 1 1069 0
 1897 00bc 8B78     		ldrb	r3, [r1, #2]	@ zero_extendqisi2
 1898 00be 012B     		cmp	r3, #1
 1899 00c0 29D0     		beq	.L159
1075:/home/y/github/EmbeddedSoftwareMCU/Libraries/AT32/drivers/src/at32f403a_407_tmr.c ****       {
 1900              		.loc 1 1075 0
 1901 00c2 022B     		cmp	r3, #2
 1902 00c4 32D0     		beq	.L160
 1903              	.L155:
ARM GAS  /tmp/ccPqktXd.s 			page 54


1083:/home/y/github/EmbeddedSoftwareMCU/Libraries/AT32/drivers/src/at32f403a_407_tmr.c ****       tmr_x->cm1_input_bit.c2df = input_struct->input_filter_value;
 1904              		.loc 1 1083 0
 1905 00c6 CC78     		ldrb	r4, [r1, #3]	@ zero_extendqisi2
 1906 00c8 8369     		ldr	r3, [r0, #24]
 1907 00ca 64F30713 		bfi	r3, r4, #4, #4
 1908 00ce 8361     		str	r3, [r0, #24]
1084:/home/y/github/EmbeddedSoftwareMCU/Libraries/AT32/drivers/src/at32f403a_407_tmr.c **** 
 1909              		.loc 1 1084 0
 1910 00d0 C978     		ldrb	r1, [r1, #3]	@ zero_extendqisi2
 1911              	.LVL157:
 1912 00d2 8369     		ldr	r3, [r0, #24]
 1913 00d4 61F30F33 		bfi	r3, r1, #12, #4
 1914 00d8 8361     		str	r3, [r0, #24]
1087:/home/y/github/EmbeddedSoftwareMCU/Libraries/AT32/drivers/src/at32f403a_407_tmr.c ****       tmr_x->cm1_input_bit.c2idiv = divider_factor;
 1915              		.loc 1 1087 0
 1916 00da 02F00302 		and	r2, r2, #3
 1917              	.LVL158:
 1918 00de 8369     		ldr	r3, [r0, #24]
 1919 00e0 62F38303 		bfi	r3, r2, #2, #2
 1920 00e4 8361     		str	r3, [r0, #24]
1088:/home/y/github/EmbeddedSoftwareMCU/Libraries/AT32/drivers/src/at32f403a_407_tmr.c **** 
 1921              		.loc 1 1088 0
 1922 00e6 8369     		ldr	r3, [r0, #24]
 1923 00e8 62F38B23 		bfi	r3, r2, #10, #2
 1924 00ec 8361     		str	r3, [r0, #24]
1090:/home/y/github/EmbeddedSoftwareMCU/Libraries/AT32/drivers/src/at32f403a_407_tmr.c ****       tmr_x->cctrl_bit.c2en = TRUE;
 1925              		.loc 1 1090 0
 1926 00ee 036A     		ldr	r3, [r0, #32]
 1927 00f0 43F00103 		orr	r3, r3, #1
 1928 00f4 0362     		str	r3, [r0, #32]
1091:/home/y/github/EmbeddedSoftwareMCU/Libraries/AT32/drivers/src/at32f403a_407_tmr.c ****       break;
 1929              		.loc 1 1091 0
 1930 00f6 036A     		ldr	r3, [r0, #32]
 1931 00f8 43F01003 		orr	r3, r3, #16
 1932 00fc 0362     		str	r3, [r0, #32]
 1933              		.loc 1 1097 0
 1934 00fe 84E7     		b	.L144
 1935              	.LVL159:
 1936              	.L152:
1062:/home/y/github/EmbeddedSoftwareMCU/Libraries/AT32/drivers/src/at32f403a_407_tmr.c ****       {
 1937              		.loc 1 1062 0
 1938 0100 012B     		cmp	r3, #1
 1939 0102 DBD1     		bne	.L153
1065:/home/y/github/EmbeddedSoftwareMCU/Libraries/AT32/drivers/src/at32f403a_407_tmr.c ****         tmr_x->cctrl_bit.c1p          = TMR_INPUT_RISING_EDGE;
 1940              		.loc 1 1065 0
 1941 0104 036A     		ldr	r3, [r0, #32]
 1942 0106 43F02003 		orr	r3, r3, #32
 1943 010a 0362     		str	r3, [r0, #32]
 1944              	.LVL160:
1066:/home/y/github/EmbeddedSoftwareMCU/Libraries/AT32/drivers/src/at32f403a_407_tmr.c ****       }
 1945              		.loc 1 1066 0
 1946 010c 036A     		ldr	r3, [r0, #32]
 1947 010e 6FF34103 		bfc	r3, #1, #1
 1948 0112 0362     		str	r3, [r0, #32]
 1949 0114 D2E7     		b	.L153
 1950              	.L159:
1072:/home/y/github/EmbeddedSoftwareMCU/Libraries/AT32/drivers/src/at32f403a_407_tmr.c ****         tmr_x->cm1_input_bit.c1c = TMR_CC_CHANNEL_MAPPED_INDIRECT;
ARM GAS  /tmp/ccPqktXd.s 			page 55


 1951              		.loc 1 1072 0
 1952 0116 8369     		ldr	r3, [r0, #24]
 1953 0118 0124     		movs	r4, #1
 1954 011a 64F30923 		bfi	r3, r4, #8, #2
 1955 011e 8361     		str	r3, [r0, #24]
1073:/home/y/github/EmbeddedSoftwareMCU/Libraries/AT32/drivers/src/at32f403a_407_tmr.c ****       }
 1956              		.loc 1 1073 0
 1957 0120 8369     		ldr	r3, [r0, #24]
 1958 0122 0224     		movs	r4, #2
 1959 0124 64F30103 		bfi	r3, r4, #0, #2
 1960 0128 8361     		str	r3, [r0, #24]
 1961 012a CCE7     		b	.L155
 1962              	.L160:
1078:/home/y/github/EmbeddedSoftwareMCU/Libraries/AT32/drivers/src/at32f403a_407_tmr.c ****         tmr_x->cm1_input_bit.c1c = TMR_CC_CHANNEL_MAPPED_DIRECT;
 1963              		.loc 1 1078 0
 1964 012c 8369     		ldr	r3, [r0, #24]
 1965 012e 0224     		movs	r4, #2
 1966 0130 64F30923 		bfi	r3, r4, #8, #2
 1967 0134 8361     		str	r3, [r0, #24]
1079:/home/y/github/EmbeddedSoftwareMCU/Libraries/AT32/drivers/src/at32f403a_407_tmr.c ****       }
 1968              		.loc 1 1079 0
 1969 0136 8369     		ldr	r3, [r0, #24]
 1970 0138 0124     		movs	r4, #1
 1971 013a 64F30103 		bfi	r3, r4, #0, #2
 1972 013e 8361     		str	r3, [r0, #24]
 1973 0140 C1E7     		b	.L155
 1974              		.cfi_endproc
 1975              	.LFE163:
 1977              		.section	.text.tmr_channel1_input_select,"ax",%progbits
 1978              		.align	1
 1979              		.global	tmr_channel1_input_select
 1980              		.syntax unified
 1981              		.thumb
 1982              		.thumb_func
 1983              		.fpu softvfp
 1985              	tmr_channel1_input_select:
 1986              	.LFB164:
1098:/home/y/github/EmbeddedSoftwareMCU/Libraries/AT32/drivers/src/at32f403a_407_tmr.c **** 
1099:/home/y/github/EmbeddedSoftwareMCU/Libraries/AT32/drivers/src/at32f403a_407_tmr.c **** /**
1100:/home/y/github/EmbeddedSoftwareMCU/Libraries/AT32/drivers/src/at32f403a_407_tmr.c ****   * @brief  select tmr channel1 input
1101:/home/y/github/EmbeddedSoftwareMCU/Libraries/AT32/drivers/src/at32f403a_407_tmr.c ****   * @param  tmr_x: select the tmr peripheral.
1102:/home/y/github/EmbeddedSoftwareMCU/Libraries/AT32/drivers/src/at32f403a_407_tmr.c ****   *         this parameter can be one of the following values:
1103:/home/y/github/EmbeddedSoftwareMCU/Libraries/AT32/drivers/src/at32f403a_407_tmr.c ****   *         TMR1, TMR2, TMR3, TMR4, TMR5, TMR8
1104:/home/y/github/EmbeddedSoftwareMCU/Libraries/AT32/drivers/src/at32f403a_407_tmr.c ****   * @param  ti1_connect
1105:/home/y/github/EmbeddedSoftwareMCU/Libraries/AT32/drivers/src/at32f403a_407_tmr.c ****   *         this parameter can be one of the following values:
1106:/home/y/github/EmbeddedSoftwareMCU/Libraries/AT32/drivers/src/at32f403a_407_tmr.c ****   *         - TMR_CHANEL1_CONNECTED_C1IRAW
1107:/home/y/github/EmbeddedSoftwareMCU/Libraries/AT32/drivers/src/at32f403a_407_tmr.c ****   *         - TMR_CHANEL1_2_3_CONNECTED_C1IRAW_XOR
1108:/home/y/github/EmbeddedSoftwareMCU/Libraries/AT32/drivers/src/at32f403a_407_tmr.c ****   * @retval none
1109:/home/y/github/EmbeddedSoftwareMCU/Libraries/AT32/drivers/src/at32f403a_407_tmr.c ****   */
1110:/home/y/github/EmbeddedSoftwareMCU/Libraries/AT32/drivers/src/at32f403a_407_tmr.c **** void tmr_channel1_input_select(tmr_type *tmr_x, tmr_channel1_input_connected_type ti1_connect)
1111:/home/y/github/EmbeddedSoftwareMCU/Libraries/AT32/drivers/src/at32f403a_407_tmr.c **** {
 1987              		.loc 1 1111 0
 1988              		.cfi_startproc
 1989              		@ args = 0, pretend = 0, frame = 0
 1990              		@ frame_needed = 0, uses_anonymous_args = 0
 1991              		@ link register save eliminated.
 1992              	.LVL161:
ARM GAS  /tmp/ccPqktXd.s 			page 56


1112:/home/y/github/EmbeddedSoftwareMCU/Libraries/AT32/drivers/src/at32f403a_407_tmr.c ****   tmr_x->ctrl2_bit.c1insel = ti1_connect;
 1993              		.loc 1 1112 0
 1994 0000 4368     		ldr	r3, [r0, #4]
 1995 0002 61F3C713 		bfi	r3, r1, #7, #1
 1996 0006 4360     		str	r3, [r0, #4]
 1997 0008 7047     		bx	lr
 1998              		.cfi_endproc
 1999              	.LFE164:
 2001              		.section	.text.tmr_input_channel_divider_set,"ax",%progbits
 2002              		.align	1
 2003              		.global	tmr_input_channel_divider_set
 2004              		.syntax unified
 2005              		.thumb
 2006              		.thumb_func
 2007              		.fpu softvfp
 2009              	tmr_input_channel_divider_set:
 2010              	.LFB165:
1113:/home/y/github/EmbeddedSoftwareMCU/Libraries/AT32/drivers/src/at32f403a_407_tmr.c **** }
1114:/home/y/github/EmbeddedSoftwareMCU/Libraries/AT32/drivers/src/at32f403a_407_tmr.c **** 
1115:/home/y/github/EmbeddedSoftwareMCU/Libraries/AT32/drivers/src/at32f403a_407_tmr.c **** /**
1116:/home/y/github/EmbeddedSoftwareMCU/Libraries/AT32/drivers/src/at32f403a_407_tmr.c ****   * @brief  set tmr input channel divider
1117:/home/y/github/EmbeddedSoftwareMCU/Libraries/AT32/drivers/src/at32f403a_407_tmr.c ****   * @param  tmr_x: select the tmr peripheral.
1118:/home/y/github/EmbeddedSoftwareMCU/Libraries/AT32/drivers/src/at32f403a_407_tmr.c ****   *         this parameter can be one of the following values:
1119:/home/y/github/EmbeddedSoftwareMCU/Libraries/AT32/drivers/src/at32f403a_407_tmr.c ****   *         TMR1, TMR2, TMR3, TMR4, TMR5, TMR8, TMR9, TMR10,
1120:/home/y/github/EmbeddedSoftwareMCU/Libraries/AT32/drivers/src/at32f403a_407_tmr.c ****   *         TMR11, TMR12, TMR13, TMR14
1121:/home/y/github/EmbeddedSoftwareMCU/Libraries/AT32/drivers/src/at32f403a_407_tmr.c ****   * @param  tmr_channel
1122:/home/y/github/EmbeddedSoftwareMCU/Libraries/AT32/drivers/src/at32f403a_407_tmr.c ****   *         this parameter can be one of the following values:
1123:/home/y/github/EmbeddedSoftwareMCU/Libraries/AT32/drivers/src/at32f403a_407_tmr.c ****   *         - TMR_SELECT_CHANNEL_1
1124:/home/y/github/EmbeddedSoftwareMCU/Libraries/AT32/drivers/src/at32f403a_407_tmr.c ****   *         - TMR_SELECT_CHANNEL_2
1125:/home/y/github/EmbeddedSoftwareMCU/Libraries/AT32/drivers/src/at32f403a_407_tmr.c ****   *         - TMR_SELECT_CHANNEL_3
1126:/home/y/github/EmbeddedSoftwareMCU/Libraries/AT32/drivers/src/at32f403a_407_tmr.c ****   *         - TMR_SELECT_CHANNEL_4
1127:/home/y/github/EmbeddedSoftwareMCU/Libraries/AT32/drivers/src/at32f403a_407_tmr.c ****   * @param  divider_factor
1128:/home/y/github/EmbeddedSoftwareMCU/Libraries/AT32/drivers/src/at32f403a_407_tmr.c ****   *         this parameter can be one of the following values:
1129:/home/y/github/EmbeddedSoftwareMCU/Libraries/AT32/drivers/src/at32f403a_407_tmr.c ****   *         - TMR_CHANNEL_INPUT_DIV_1
1130:/home/y/github/EmbeddedSoftwareMCU/Libraries/AT32/drivers/src/at32f403a_407_tmr.c ****   *         - TMR_CHANNEL_INPUT_DIV_2
1131:/home/y/github/EmbeddedSoftwareMCU/Libraries/AT32/drivers/src/at32f403a_407_tmr.c ****   *         - TMR_CHANNEL_INPUT_DIV_4
1132:/home/y/github/EmbeddedSoftwareMCU/Libraries/AT32/drivers/src/at32f403a_407_tmr.c ****   *         - TMR_CHANNEL_INPUT_DIV_8
1133:/home/y/github/EmbeddedSoftwareMCU/Libraries/AT32/drivers/src/at32f403a_407_tmr.c ****   * @retval none
1134:/home/y/github/EmbeddedSoftwareMCU/Libraries/AT32/drivers/src/at32f403a_407_tmr.c ****   */
1135:/home/y/github/EmbeddedSoftwareMCU/Libraries/AT32/drivers/src/at32f403a_407_tmr.c **** void tmr_input_channel_divider_set(tmr_type *tmr_x, tmr_channel_select_type tmr_channel,
1136:/home/y/github/EmbeddedSoftwareMCU/Libraries/AT32/drivers/src/at32f403a_407_tmr.c ****                                    tmr_channel_input_divider_type divider_factor)
1137:/home/y/github/EmbeddedSoftwareMCU/Libraries/AT32/drivers/src/at32f403a_407_tmr.c **** {
 2011              		.loc 1 1137 0
 2012              		.cfi_startproc
 2013              		@ args = 0, pretend = 0, frame = 0
 2014              		@ frame_needed = 0, uses_anonymous_args = 0
 2015              		@ link register save eliminated.
 2016              	.LVL162:
1138:/home/y/github/EmbeddedSoftwareMCU/Libraries/AT32/drivers/src/at32f403a_407_tmr.c ****   uint16_t channel;
1139:/home/y/github/EmbeddedSoftwareMCU/Libraries/AT32/drivers/src/at32f403a_407_tmr.c **** 
1140:/home/y/github/EmbeddedSoftwareMCU/Libraries/AT32/drivers/src/at32f403a_407_tmr.c ****   channel = tmr_channel;
1141:/home/y/github/EmbeddedSoftwareMCU/Libraries/AT32/drivers/src/at32f403a_407_tmr.c **** 
1142:/home/y/github/EmbeddedSoftwareMCU/Libraries/AT32/drivers/src/at32f403a_407_tmr.c ****   switch(channel)
 2017              		.loc 1 1142 0
 2018 0000 0629     		cmp	r1, #6
 2019 0002 18D8     		bhi	.L162
 2020 0004 DFE801F0 		tbb	[pc, r1]
ARM GAS  /tmp/ccPqktXd.s 			page 57


 2021              	.L165:
 2022 0008 04       		.byte	(.L164-.L165)/2
 2023 0009 17       		.byte	(.L162-.L165)/2
 2024 000a 09       		.byte	(.L166-.L165)/2
 2025 000b 17       		.byte	(.L162-.L165)/2
 2026 000c 0E       		.byte	(.L167-.L165)/2
 2027 000d 17       		.byte	(.L162-.L165)/2
 2028 000e 13       		.byte	(.L168-.L165)/2
 2029 000f 00       		.p2align 1
 2030              	.L164:
1143:/home/y/github/EmbeddedSoftwareMCU/Libraries/AT32/drivers/src/at32f403a_407_tmr.c ****   {
1144:/home/y/github/EmbeddedSoftwareMCU/Libraries/AT32/drivers/src/at32f403a_407_tmr.c ****     case TMR_SELECT_CHANNEL_1:
1145:/home/y/github/EmbeddedSoftwareMCU/Libraries/AT32/drivers/src/at32f403a_407_tmr.c ****       tmr_x->cm1_input_bit.c1idiv = divider_factor;
 2031              		.loc 1 1145 0
 2032 0010 8369     		ldr	r3, [r0, #24]
 2033 0012 62F38303 		bfi	r3, r2, #2, #2
 2034 0016 8361     		str	r3, [r0, #24]
1146:/home/y/github/EmbeddedSoftwareMCU/Libraries/AT32/drivers/src/at32f403a_407_tmr.c ****       break;
 2035              		.loc 1 1146 0
 2036 0018 7047     		bx	lr
 2037              	.L166:
1147:/home/y/github/EmbeddedSoftwareMCU/Libraries/AT32/drivers/src/at32f403a_407_tmr.c **** 
1148:/home/y/github/EmbeddedSoftwareMCU/Libraries/AT32/drivers/src/at32f403a_407_tmr.c ****     case TMR_SELECT_CHANNEL_2:
1149:/home/y/github/EmbeddedSoftwareMCU/Libraries/AT32/drivers/src/at32f403a_407_tmr.c ****       tmr_x->cm1_input_bit.c2idiv = divider_factor;
 2038              		.loc 1 1149 0
 2039 001a 8369     		ldr	r3, [r0, #24]
 2040 001c 62F38B23 		bfi	r3, r2, #10, #2
 2041 0020 8361     		str	r3, [r0, #24]
1150:/home/y/github/EmbeddedSoftwareMCU/Libraries/AT32/drivers/src/at32f403a_407_tmr.c ****       break;
 2042              		.loc 1 1150 0
 2043 0022 7047     		bx	lr
 2044              	.L167:
1151:/home/y/github/EmbeddedSoftwareMCU/Libraries/AT32/drivers/src/at32f403a_407_tmr.c **** 
1152:/home/y/github/EmbeddedSoftwareMCU/Libraries/AT32/drivers/src/at32f403a_407_tmr.c ****     case TMR_SELECT_CHANNEL_3:
1153:/home/y/github/EmbeddedSoftwareMCU/Libraries/AT32/drivers/src/at32f403a_407_tmr.c ****       tmr_x->cm2_input_bit.c3idiv = divider_factor;
 2045              		.loc 1 1153 0
 2046 0024 C369     		ldr	r3, [r0, #28]
 2047 0026 62F38303 		bfi	r3, r2, #2, #2
 2048 002a C361     		str	r3, [r0, #28]
1154:/home/y/github/EmbeddedSoftwareMCU/Libraries/AT32/drivers/src/at32f403a_407_tmr.c ****       break;
 2049              		.loc 1 1154 0
 2050 002c 7047     		bx	lr
 2051              	.L168:
1155:/home/y/github/EmbeddedSoftwareMCU/Libraries/AT32/drivers/src/at32f403a_407_tmr.c **** 
1156:/home/y/github/EmbeddedSoftwareMCU/Libraries/AT32/drivers/src/at32f403a_407_tmr.c ****     case TMR_SELECT_CHANNEL_4:
1157:/home/y/github/EmbeddedSoftwareMCU/Libraries/AT32/drivers/src/at32f403a_407_tmr.c ****       tmr_x->cm2_input_bit.c4idiv = divider_factor;
 2052              		.loc 1 1157 0
 2053 002e C369     		ldr	r3, [r0, #28]
 2054 0030 62F38B23 		bfi	r3, r2, #10, #2
 2055 0034 C361     		str	r3, [r0, #28]
 2056              	.L162:
 2057 0036 7047     		bx	lr
 2058              		.cfi_endproc
 2059              	.LFE165:
 2061              		.section	.text.tmr_primary_mode_select,"ax",%progbits
 2062              		.align	1
 2063              		.global	tmr_primary_mode_select
ARM GAS  /tmp/ccPqktXd.s 			page 58


 2064              		.syntax unified
 2065              		.thumb
 2066              		.thumb_func
 2067              		.fpu softvfp
 2069              	tmr_primary_mode_select:
 2070              	.LFB166:
1158:/home/y/github/EmbeddedSoftwareMCU/Libraries/AT32/drivers/src/at32f403a_407_tmr.c ****       break;
1159:/home/y/github/EmbeddedSoftwareMCU/Libraries/AT32/drivers/src/at32f403a_407_tmr.c **** 
1160:/home/y/github/EmbeddedSoftwareMCU/Libraries/AT32/drivers/src/at32f403a_407_tmr.c ****     default:
1161:/home/y/github/EmbeddedSoftwareMCU/Libraries/AT32/drivers/src/at32f403a_407_tmr.c ****       break;
1162:/home/y/github/EmbeddedSoftwareMCU/Libraries/AT32/drivers/src/at32f403a_407_tmr.c ****   }
1163:/home/y/github/EmbeddedSoftwareMCU/Libraries/AT32/drivers/src/at32f403a_407_tmr.c **** }
1164:/home/y/github/EmbeddedSoftwareMCU/Libraries/AT32/drivers/src/at32f403a_407_tmr.c **** 
1165:/home/y/github/EmbeddedSoftwareMCU/Libraries/AT32/drivers/src/at32f403a_407_tmr.c **** /**
1166:/home/y/github/EmbeddedSoftwareMCU/Libraries/AT32/drivers/src/at32f403a_407_tmr.c ****   * @brief  select tmr primary mode
1167:/home/y/github/EmbeddedSoftwareMCU/Libraries/AT32/drivers/src/at32f403a_407_tmr.c ****   * @param  tmr_x: select the tmr peripheral.
1168:/home/y/github/EmbeddedSoftwareMCU/Libraries/AT32/drivers/src/at32f403a_407_tmr.c ****   *         this parameter can be one of the following values:
1169:/home/y/github/EmbeddedSoftwareMCU/Libraries/AT32/drivers/src/at32f403a_407_tmr.c ****   *         TMR1, TMR2, TMR3, TMR4, TMR5, TMR6, TMR7, TMR8
1170:/home/y/github/EmbeddedSoftwareMCU/Libraries/AT32/drivers/src/at32f403a_407_tmr.c ****   * @param  primary_mode
1171:/home/y/github/EmbeddedSoftwareMCU/Libraries/AT32/drivers/src/at32f403a_407_tmr.c ****   *         this parameter can be one of the following values:
1172:/home/y/github/EmbeddedSoftwareMCU/Libraries/AT32/drivers/src/at32f403a_407_tmr.c ****   *         - TMR_PRIMARY_SEL_RESET
1173:/home/y/github/EmbeddedSoftwareMCU/Libraries/AT32/drivers/src/at32f403a_407_tmr.c ****   *         - TMR_PRIMARY_SEL_ENABLE
1174:/home/y/github/EmbeddedSoftwareMCU/Libraries/AT32/drivers/src/at32f403a_407_tmr.c ****   *         - TMR_PRIMARY_SEL_OVERFLOW
1175:/home/y/github/EmbeddedSoftwareMCU/Libraries/AT32/drivers/src/at32f403a_407_tmr.c ****   *         - TMR_PRIMARY_SEL_COMPARE
1176:/home/y/github/EmbeddedSoftwareMCU/Libraries/AT32/drivers/src/at32f403a_407_tmr.c ****   *         - TMR_PRIMARY_SEL_C1ORAW
1177:/home/y/github/EmbeddedSoftwareMCU/Libraries/AT32/drivers/src/at32f403a_407_tmr.c ****   *         - TMR_PRIMARY_SEL_C2ORAW
1178:/home/y/github/EmbeddedSoftwareMCU/Libraries/AT32/drivers/src/at32f403a_407_tmr.c ****   *         - TMR_PRIMARY_SEL_C3ORAW
1179:/home/y/github/EmbeddedSoftwareMCU/Libraries/AT32/drivers/src/at32f403a_407_tmr.c ****   *         - TMR_PRIMARY_SEL_C4ORAW
1180:/home/y/github/EmbeddedSoftwareMCU/Libraries/AT32/drivers/src/at32f403a_407_tmr.c ****   * @retval none
1181:/home/y/github/EmbeddedSoftwareMCU/Libraries/AT32/drivers/src/at32f403a_407_tmr.c ****   */
1182:/home/y/github/EmbeddedSoftwareMCU/Libraries/AT32/drivers/src/at32f403a_407_tmr.c **** void tmr_primary_mode_select(tmr_type *tmr_x, tmr_primary_select_type primary_mode)
1183:/home/y/github/EmbeddedSoftwareMCU/Libraries/AT32/drivers/src/at32f403a_407_tmr.c **** {
 2071              		.loc 1 1183 0
 2072              		.cfi_startproc
 2073              		@ args = 0, pretend = 0, frame = 0
 2074              		@ frame_needed = 0, uses_anonymous_args = 0
 2075              		@ link register save eliminated.
 2076              	.LVL163:
1184:/home/y/github/EmbeddedSoftwareMCU/Libraries/AT32/drivers/src/at32f403a_407_tmr.c ****   tmr_x->ctrl2_bit.ptos = primary_mode;
 2077              		.loc 1 1184 0
 2078 0000 4368     		ldr	r3, [r0, #4]
 2079 0002 61F30613 		bfi	r3, r1, #4, #3
 2080 0006 4360     		str	r3, [r0, #4]
 2081 0008 7047     		bx	lr
 2082              		.cfi_endproc
 2083              	.LFE166:
 2085              		.section	.text.tmr_sub_mode_select,"ax",%progbits
 2086              		.align	1
 2087              		.global	tmr_sub_mode_select
 2088              		.syntax unified
 2089              		.thumb
 2090              		.thumb_func
 2091              		.fpu softvfp
 2093              	tmr_sub_mode_select:
 2094              	.LFB167:
1185:/home/y/github/EmbeddedSoftwareMCU/Libraries/AT32/drivers/src/at32f403a_407_tmr.c **** }
1186:/home/y/github/EmbeddedSoftwareMCU/Libraries/AT32/drivers/src/at32f403a_407_tmr.c **** 
ARM GAS  /tmp/ccPqktXd.s 			page 59


1187:/home/y/github/EmbeddedSoftwareMCU/Libraries/AT32/drivers/src/at32f403a_407_tmr.c **** /**
1188:/home/y/github/EmbeddedSoftwareMCU/Libraries/AT32/drivers/src/at32f403a_407_tmr.c ****   * @brief  select tmr subordinate mode
1189:/home/y/github/EmbeddedSoftwareMCU/Libraries/AT32/drivers/src/at32f403a_407_tmr.c ****   * @param  tmr_x: select the tmr peripheral.
1190:/home/y/github/EmbeddedSoftwareMCU/Libraries/AT32/drivers/src/at32f403a_407_tmr.c ****   *         this parameter can be one of the following values:
1191:/home/y/github/EmbeddedSoftwareMCU/Libraries/AT32/drivers/src/at32f403a_407_tmr.c ****   *         TMR1, TMR2, TMR3, TMR4, TMR5, TMR8, TMR9, TMR12
1192:/home/y/github/EmbeddedSoftwareMCU/Libraries/AT32/drivers/src/at32f403a_407_tmr.c ****   * @param  sub_mode
1193:/home/y/github/EmbeddedSoftwareMCU/Libraries/AT32/drivers/src/at32f403a_407_tmr.c ****   *         this parameter can be one of the following values:
1194:/home/y/github/EmbeddedSoftwareMCU/Libraries/AT32/drivers/src/at32f403a_407_tmr.c ****   *         - TMR_SUB_MODE_DIABLE
1195:/home/y/github/EmbeddedSoftwareMCU/Libraries/AT32/drivers/src/at32f403a_407_tmr.c ****   *         - TMR_SUB_ENCODER_MODE_A
1196:/home/y/github/EmbeddedSoftwareMCU/Libraries/AT32/drivers/src/at32f403a_407_tmr.c ****   *         - TMR_SUB_ENCODER_MODE_B
1197:/home/y/github/EmbeddedSoftwareMCU/Libraries/AT32/drivers/src/at32f403a_407_tmr.c ****   *         - TMR_SUB_ENCODER_MODE_C
1198:/home/y/github/EmbeddedSoftwareMCU/Libraries/AT32/drivers/src/at32f403a_407_tmr.c ****   *         - TMR_SUB_RESET_MODE
1199:/home/y/github/EmbeddedSoftwareMCU/Libraries/AT32/drivers/src/at32f403a_407_tmr.c ****   *         - TMR_SUB_HANG_MODE
1200:/home/y/github/EmbeddedSoftwareMCU/Libraries/AT32/drivers/src/at32f403a_407_tmr.c ****   *         - TMR_SUB_TRIGGER_MODE
1201:/home/y/github/EmbeddedSoftwareMCU/Libraries/AT32/drivers/src/at32f403a_407_tmr.c ****   *         - TMR_SUB_EXTERNAL_CLOCK_MODE_A
1202:/home/y/github/EmbeddedSoftwareMCU/Libraries/AT32/drivers/src/at32f403a_407_tmr.c ****   * @retval none
1203:/home/y/github/EmbeddedSoftwareMCU/Libraries/AT32/drivers/src/at32f403a_407_tmr.c ****   */
1204:/home/y/github/EmbeddedSoftwareMCU/Libraries/AT32/drivers/src/at32f403a_407_tmr.c **** void tmr_sub_mode_select(tmr_type *tmr_x, tmr_sub_mode_select_type sub_mode)
1205:/home/y/github/EmbeddedSoftwareMCU/Libraries/AT32/drivers/src/at32f403a_407_tmr.c **** {
 2095              		.loc 1 1205 0
 2096              		.cfi_startproc
 2097              		@ args = 0, pretend = 0, frame = 0
 2098              		@ frame_needed = 0, uses_anonymous_args = 0
 2099              		@ link register save eliminated.
 2100              	.LVL164:
1206:/home/y/github/EmbeddedSoftwareMCU/Libraries/AT32/drivers/src/at32f403a_407_tmr.c ****   tmr_x->stctrl_bit.smsel = sub_mode;
 2101              		.loc 1 1206 0
 2102 0000 8368     		ldr	r3, [r0, #8]
 2103 0002 61F30203 		bfi	r3, r1, #0, #3
 2104 0006 8360     		str	r3, [r0, #8]
 2105 0008 7047     		bx	lr
 2106              		.cfi_endproc
 2107              	.LFE167:
 2109              		.section	.text.tmr_channel_dma_select,"ax",%progbits
 2110              		.align	1
 2111              		.global	tmr_channel_dma_select
 2112              		.syntax unified
 2113              		.thumb
 2114              		.thumb_func
 2115              		.fpu softvfp
 2117              	tmr_channel_dma_select:
 2118              	.LFB168:
1207:/home/y/github/EmbeddedSoftwareMCU/Libraries/AT32/drivers/src/at32f403a_407_tmr.c **** }
1208:/home/y/github/EmbeddedSoftwareMCU/Libraries/AT32/drivers/src/at32f403a_407_tmr.c **** 
1209:/home/y/github/EmbeddedSoftwareMCU/Libraries/AT32/drivers/src/at32f403a_407_tmr.c **** /**
1210:/home/y/github/EmbeddedSoftwareMCU/Libraries/AT32/drivers/src/at32f403a_407_tmr.c ****   * @brief  select tmr channel dma
1211:/home/y/github/EmbeddedSoftwareMCU/Libraries/AT32/drivers/src/at32f403a_407_tmr.c ****   * @param  tmr_x: select the tmr peripheral.
1212:/home/y/github/EmbeddedSoftwareMCU/Libraries/AT32/drivers/src/at32f403a_407_tmr.c ****   *         this parameter can be one of the following values:
1213:/home/y/github/EmbeddedSoftwareMCU/Libraries/AT32/drivers/src/at32f403a_407_tmr.c ****   *         TMR1, TMR2, TMR3, TMR4, TMR5, TMR8, TMR9, TMR12
1214:/home/y/github/EmbeddedSoftwareMCU/Libraries/AT32/drivers/src/at32f403a_407_tmr.c ****   * @param  cc_dma_select
1215:/home/y/github/EmbeddedSoftwareMCU/Libraries/AT32/drivers/src/at32f403a_407_tmr.c ****   *         this parameter can be one of the following values:
1216:/home/y/github/EmbeddedSoftwareMCU/Libraries/AT32/drivers/src/at32f403a_407_tmr.c ****   *         - TMR_DMA_REQUEST_BY_CHANNEL
1217:/home/y/github/EmbeddedSoftwareMCU/Libraries/AT32/drivers/src/at32f403a_407_tmr.c ****   *         - TMR_DMA_REQUEST_BY_OVERFLOW
1218:/home/y/github/EmbeddedSoftwareMCU/Libraries/AT32/drivers/src/at32f403a_407_tmr.c ****   * @retval none
1219:/home/y/github/EmbeddedSoftwareMCU/Libraries/AT32/drivers/src/at32f403a_407_tmr.c ****   */
1220:/home/y/github/EmbeddedSoftwareMCU/Libraries/AT32/drivers/src/at32f403a_407_tmr.c **** void tmr_channel_dma_select(tmr_type *tmr_x, tmr_dma_request_source_type cc_dma_select)
1221:/home/y/github/EmbeddedSoftwareMCU/Libraries/AT32/drivers/src/at32f403a_407_tmr.c **** {
ARM GAS  /tmp/ccPqktXd.s 			page 60


 2119              		.loc 1 1221 0
 2120              		.cfi_startproc
 2121              		@ args = 0, pretend = 0, frame = 0
 2122              		@ frame_needed = 0, uses_anonymous_args = 0
 2123              		@ link register save eliminated.
 2124              	.LVL165:
1222:/home/y/github/EmbeddedSoftwareMCU/Libraries/AT32/drivers/src/at32f403a_407_tmr.c ****   tmr_x->ctrl2_bit.drs = cc_dma_select;
 2125              		.loc 1 1222 0
 2126 0000 4368     		ldr	r3, [r0, #4]
 2127 0002 61F3C303 		bfi	r3, r1, #3, #1
 2128 0006 4360     		str	r3, [r0, #4]
 2129 0008 7047     		bx	lr
 2130              		.cfi_endproc
 2131              	.LFE168:
 2133              		.section	.text.tmr_hall_select,"ax",%progbits
 2134              		.align	1
 2135              		.global	tmr_hall_select
 2136              		.syntax unified
 2137              		.thumb
 2138              		.thumb_func
 2139              		.fpu softvfp
 2141              	tmr_hall_select:
 2142              	.LFB169:
1223:/home/y/github/EmbeddedSoftwareMCU/Libraries/AT32/drivers/src/at32f403a_407_tmr.c **** }
1224:/home/y/github/EmbeddedSoftwareMCU/Libraries/AT32/drivers/src/at32f403a_407_tmr.c **** 
1225:/home/y/github/EmbeddedSoftwareMCU/Libraries/AT32/drivers/src/at32f403a_407_tmr.c **** /**
1226:/home/y/github/EmbeddedSoftwareMCU/Libraries/AT32/drivers/src/at32f403a_407_tmr.c ****   * @brief  select tmr hall
1227:/home/y/github/EmbeddedSoftwareMCU/Libraries/AT32/drivers/src/at32f403a_407_tmr.c ****   * @param  tmr_x: select the tmr peripheral.
1228:/home/y/github/EmbeddedSoftwareMCU/Libraries/AT32/drivers/src/at32f403a_407_tmr.c ****   *         this parameter can be one of the following values:
1229:/home/y/github/EmbeddedSoftwareMCU/Libraries/AT32/drivers/src/at32f403a_407_tmr.c ****   *         TMR1, TMR8
1230:/home/y/github/EmbeddedSoftwareMCU/Libraries/AT32/drivers/src/at32f403a_407_tmr.c ****   * @param  new_state (TRUE or FALSE)
1231:/home/y/github/EmbeddedSoftwareMCU/Libraries/AT32/drivers/src/at32f403a_407_tmr.c ****   * @retval none
1232:/home/y/github/EmbeddedSoftwareMCU/Libraries/AT32/drivers/src/at32f403a_407_tmr.c ****   */
1233:/home/y/github/EmbeddedSoftwareMCU/Libraries/AT32/drivers/src/at32f403a_407_tmr.c **** void tmr_hall_select(tmr_type *tmr_x,  confirm_state new_state)
1234:/home/y/github/EmbeddedSoftwareMCU/Libraries/AT32/drivers/src/at32f403a_407_tmr.c **** {
 2143              		.loc 1 1234 0
 2144              		.cfi_startproc
 2145              		@ args = 0, pretend = 0, frame = 0
 2146              		@ frame_needed = 0, uses_anonymous_args = 0
 2147              		@ link register save eliminated.
 2148              	.LVL166:
1235:/home/y/github/EmbeddedSoftwareMCU/Libraries/AT32/drivers/src/at32f403a_407_tmr.c ****   tmr_x->ctrl2_bit.ccfs = new_state;
 2149              		.loc 1 1235 0
 2150 0000 4368     		ldr	r3, [r0, #4]
 2151 0002 61F38203 		bfi	r3, r1, #2, #1
 2152 0006 4360     		str	r3, [r0, #4]
 2153 0008 7047     		bx	lr
 2154              		.cfi_endproc
 2155              	.LFE169:
 2157              		.section	.text.tmr_channel_buffer_enable,"ax",%progbits
 2158              		.align	1
 2159              		.global	tmr_channel_buffer_enable
 2160              		.syntax unified
 2161              		.thumb
 2162              		.thumb_func
 2163              		.fpu softvfp
 2165              	tmr_channel_buffer_enable:
ARM GAS  /tmp/ccPqktXd.s 			page 61


 2166              	.LFB170:
1236:/home/y/github/EmbeddedSoftwareMCU/Libraries/AT32/drivers/src/at32f403a_407_tmr.c **** }
1237:/home/y/github/EmbeddedSoftwareMCU/Libraries/AT32/drivers/src/at32f403a_407_tmr.c **** 
1238:/home/y/github/EmbeddedSoftwareMCU/Libraries/AT32/drivers/src/at32f403a_407_tmr.c **** /**
1239:/home/y/github/EmbeddedSoftwareMCU/Libraries/AT32/drivers/src/at32f403a_407_tmr.c ****   * @brief  enable tmr channel buffer
1240:/home/y/github/EmbeddedSoftwareMCU/Libraries/AT32/drivers/src/at32f403a_407_tmr.c ****   * @param  tmr_x: select the tmr peripheral.
1241:/home/y/github/EmbeddedSoftwareMCU/Libraries/AT32/drivers/src/at32f403a_407_tmr.c ****   *         this parameter can be one of the following values:
1242:/home/y/github/EmbeddedSoftwareMCU/Libraries/AT32/drivers/src/at32f403a_407_tmr.c ****   *         TMR1, TMR8
1243:/home/y/github/EmbeddedSoftwareMCU/Libraries/AT32/drivers/src/at32f403a_407_tmr.c ****   * @param  new_state (TRUE or FALSE)
1244:/home/y/github/EmbeddedSoftwareMCU/Libraries/AT32/drivers/src/at32f403a_407_tmr.c ****   * @retval none
1245:/home/y/github/EmbeddedSoftwareMCU/Libraries/AT32/drivers/src/at32f403a_407_tmr.c ****   */
1246:/home/y/github/EmbeddedSoftwareMCU/Libraries/AT32/drivers/src/at32f403a_407_tmr.c **** void tmr_channel_buffer_enable(tmr_type *tmr_x, confirm_state new_state)
1247:/home/y/github/EmbeddedSoftwareMCU/Libraries/AT32/drivers/src/at32f403a_407_tmr.c **** {
 2167              		.loc 1 1247 0
 2168              		.cfi_startproc
 2169              		@ args = 0, pretend = 0, frame = 0
 2170              		@ frame_needed = 0, uses_anonymous_args = 0
 2171              		@ link register save eliminated.
 2172              	.LVL167:
1248:/home/y/github/EmbeddedSoftwareMCU/Libraries/AT32/drivers/src/at32f403a_407_tmr.c ****   tmr_x->ctrl2_bit.cbctrl = new_state;
 2173              		.loc 1 1248 0
 2174 0000 4368     		ldr	r3, [r0, #4]
 2175 0002 61F30003 		bfi	r3, r1, #0, #1
 2176 0006 4360     		str	r3, [r0, #4]
 2177 0008 7047     		bx	lr
 2178              		.cfi_endproc
 2179              	.LFE170:
 2181              		.section	.text.tmr_trigger_input_select,"ax",%progbits
 2182              		.align	1
 2183              		.global	tmr_trigger_input_select
 2184              		.syntax unified
 2185              		.thumb
 2186              		.thumb_func
 2187              		.fpu softvfp
 2189              	tmr_trigger_input_select:
 2190              	.LFB171:
1249:/home/y/github/EmbeddedSoftwareMCU/Libraries/AT32/drivers/src/at32f403a_407_tmr.c **** }
1250:/home/y/github/EmbeddedSoftwareMCU/Libraries/AT32/drivers/src/at32f403a_407_tmr.c **** 
1251:/home/y/github/EmbeddedSoftwareMCU/Libraries/AT32/drivers/src/at32f403a_407_tmr.c **** /**
1252:/home/y/github/EmbeddedSoftwareMCU/Libraries/AT32/drivers/src/at32f403a_407_tmr.c ****   * @brief  select tmr sub-trigger
1253:/home/y/github/EmbeddedSoftwareMCU/Libraries/AT32/drivers/src/at32f403a_407_tmr.c ****   * @param  tmr_x: select the tmr peripheral.
1254:/home/y/github/EmbeddedSoftwareMCU/Libraries/AT32/drivers/src/at32f403a_407_tmr.c ****   *         this parameter can be one of the following values:
1255:/home/y/github/EmbeddedSoftwareMCU/Libraries/AT32/drivers/src/at32f403a_407_tmr.c ****   *         TMR1, TMR2, TMR3, TMR4, TMR5, TMR8, TMR9, TMR12
1256:/home/y/github/EmbeddedSoftwareMCU/Libraries/AT32/drivers/src/at32f403a_407_tmr.c ****   * @param  trigger_select
1257:/home/y/github/EmbeddedSoftwareMCU/Libraries/AT32/drivers/src/at32f403a_407_tmr.c ****   *         this parameter can be one of the following values:
1258:/home/y/github/EmbeddedSoftwareMCU/Libraries/AT32/drivers/src/at32f403a_407_tmr.c ****   *         - TMR_SUB_INPUT_SEL_IS0
1259:/home/y/github/EmbeddedSoftwareMCU/Libraries/AT32/drivers/src/at32f403a_407_tmr.c ****   *         - TMR_SUB_INPUT_SEL_IS1
1260:/home/y/github/EmbeddedSoftwareMCU/Libraries/AT32/drivers/src/at32f403a_407_tmr.c ****   *         - TMR_SUB_INPUT_SEL_IS2
1261:/home/y/github/EmbeddedSoftwareMCU/Libraries/AT32/drivers/src/at32f403a_407_tmr.c ****   *         - TMR_SUB_INPUT_SEL_IS3
1262:/home/y/github/EmbeddedSoftwareMCU/Libraries/AT32/drivers/src/at32f403a_407_tmr.c ****   *         - TMR_SUB_INPUT_SEL_C1INC
1263:/home/y/github/EmbeddedSoftwareMCU/Libraries/AT32/drivers/src/at32f403a_407_tmr.c ****   *         - TMR_SUB_INPUT_SEL_C1DF1
1264:/home/y/github/EmbeddedSoftwareMCU/Libraries/AT32/drivers/src/at32f403a_407_tmr.c ****   *         - TMR_SUB_INPUT_SEL_C2DF2
1265:/home/y/github/EmbeddedSoftwareMCU/Libraries/AT32/drivers/src/at32f403a_407_tmr.c ****   *         - TMR_SUB_INPUT_SEL_EXTIN
1266:/home/y/github/EmbeddedSoftwareMCU/Libraries/AT32/drivers/src/at32f403a_407_tmr.c ****   * @retval none
1267:/home/y/github/EmbeddedSoftwareMCU/Libraries/AT32/drivers/src/at32f403a_407_tmr.c ****   */
1268:/home/y/github/EmbeddedSoftwareMCU/Libraries/AT32/drivers/src/at32f403a_407_tmr.c **** void tmr_trigger_input_select(tmr_type *tmr_x, sub_tmr_input_sel_type trigger_select)
1269:/home/y/github/EmbeddedSoftwareMCU/Libraries/AT32/drivers/src/at32f403a_407_tmr.c **** {
ARM GAS  /tmp/ccPqktXd.s 			page 62


 2191              		.loc 1 1269 0
 2192              		.cfi_startproc
 2193              		@ args = 0, pretend = 0, frame = 0
 2194              		@ frame_needed = 0, uses_anonymous_args = 0
 2195              		@ link register save eliminated.
 2196              	.LVL168:
1270:/home/y/github/EmbeddedSoftwareMCU/Libraries/AT32/drivers/src/at32f403a_407_tmr.c ****   tmr_x->stctrl_bit.stis = trigger_select;
 2197              		.loc 1 1270 0
 2198 0000 8368     		ldr	r3, [r0, #8]
 2199 0002 61F30613 		bfi	r3, r1, #4, #3
 2200 0006 8360     		str	r3, [r0, #8]
 2201 0008 7047     		bx	lr
 2202              		.cfi_endproc
 2203              	.LFE171:
 2205              		.section	.text.tmr_sub_sync_mode_set,"ax",%progbits
 2206              		.align	1
 2207              		.global	tmr_sub_sync_mode_set
 2208              		.syntax unified
 2209              		.thumb
 2210              		.thumb_func
 2211              		.fpu softvfp
 2213              	tmr_sub_sync_mode_set:
 2214              	.LFB172:
1271:/home/y/github/EmbeddedSoftwareMCU/Libraries/AT32/drivers/src/at32f403a_407_tmr.c **** }
1272:/home/y/github/EmbeddedSoftwareMCU/Libraries/AT32/drivers/src/at32f403a_407_tmr.c **** 
1273:/home/y/github/EmbeddedSoftwareMCU/Libraries/AT32/drivers/src/at32f403a_407_tmr.c **** /**
1274:/home/y/github/EmbeddedSoftwareMCU/Libraries/AT32/drivers/src/at32f403a_407_tmr.c ****   * @brief  set tmr subordinate synchronization mode
1275:/home/y/github/EmbeddedSoftwareMCU/Libraries/AT32/drivers/src/at32f403a_407_tmr.c ****   * @param  tmr_x: select the tmr peripheral.
1276:/home/y/github/EmbeddedSoftwareMCU/Libraries/AT32/drivers/src/at32f403a_407_tmr.c ****   *         this parameter can be one of the following values:
1277:/home/y/github/EmbeddedSoftwareMCU/Libraries/AT32/drivers/src/at32f403a_407_tmr.c ****   *         TMR1, TMR2, TMR3, TMR4, TMR5, TMR8, TMR9, TMR12
1278:/home/y/github/EmbeddedSoftwareMCU/Libraries/AT32/drivers/src/at32f403a_407_tmr.c ****   * @param  new_state (TRUE or FALSE)
1279:/home/y/github/EmbeddedSoftwareMCU/Libraries/AT32/drivers/src/at32f403a_407_tmr.c ****   * @retval none
1280:/home/y/github/EmbeddedSoftwareMCU/Libraries/AT32/drivers/src/at32f403a_407_tmr.c ****   */
1281:/home/y/github/EmbeddedSoftwareMCU/Libraries/AT32/drivers/src/at32f403a_407_tmr.c **** void tmr_sub_sync_mode_set(tmr_type *tmr_x, confirm_state new_state)
1282:/home/y/github/EmbeddedSoftwareMCU/Libraries/AT32/drivers/src/at32f403a_407_tmr.c **** {
 2215              		.loc 1 1282 0
 2216              		.cfi_startproc
 2217              		@ args = 0, pretend = 0, frame = 0
