ARM GAS  /tmp/ccS1PgZW.s 			page 1


   1              		.cpu cortex-m4
   2              		.eabi_attribute 20, 1
   3              		.eabi_attribute 21, 1
   4              		.eabi_attribute 23, 3
   5              		.eabi_attribute 24, 1
   6              		.eabi_attribute 25, 1
   7              		.eabi_attribute 26, 1
   8              		.eabi_attribute 30, 1
   9              		.eabi_attribute 34, 1
  10              		.eabi_attribute 18, 4
  11              		.file	"at32f403a_407_int.c"
  12              		.text
  13              	.Ltext0:
  14              		.cfi_sections	.debug_frame
  15              		.section	.text.NMI_Handler,"ax",%progbits
  16              		.align	1
  17              		.global	NMI_Handler
  18              		.syntax unified
  19              		.thumb
  20              		.thumb_func
  21              		.fpu softvfp
  23              	NMI_Handler:
  24              	.LFB133:
  25              		.file 1 "Core/Src/at32f403a_407_int.c"
   1:Core/Src/at32f403a_407_int.c **** /**
   2:Core/Src/at32f403a_407_int.c ****   **************************************************************************
   3:Core/Src/at32f403a_407_int.c ****   * @file     at32f403a_407_int.c
   4:Core/Src/at32f403a_407_int.c ****   * @version  v2.0.8
   5:Core/Src/at32f403a_407_int.c ****   * @date     2022-04-02
   6:Core/Src/at32f403a_407_int.c ****   * @brief    main interrupt service routines.
   7:Core/Src/at32f403a_407_int.c ****   **************************************************************************
   8:Core/Src/at32f403a_407_int.c ****   *                       Copyright notice & Disclaimer
   9:Core/Src/at32f403a_407_int.c ****   *
  10:Core/Src/at32f403a_407_int.c ****   * The software Board Support Package (BSP) that is made available to
  11:Core/Src/at32f403a_407_int.c ****   * download from Artery official website is the copyrighted work of Artery.
  12:Core/Src/at32f403a_407_int.c ****   * Artery authorizes customers to use, copy, and distribute the BSP
  13:Core/Src/at32f403a_407_int.c ****   * software and its related documentation for the purpose of design and
  14:Core/Src/at32f403a_407_int.c ****   * development in conjunction with Artery microcontrollers. Use of the
  15:Core/Src/at32f403a_407_int.c ****   * software is governed by this copyright notice and the following disclaimer.
  16:Core/Src/at32f403a_407_int.c ****   *
  17:Core/Src/at32f403a_407_int.c ****   * THIS SOFTWARE IS PROVIDED ON "AS IS" BASIS WITHOUT WARRANTIES,
  18:Core/Src/at32f403a_407_int.c ****   * GUARANTEES OR REPRESENTATIONS OF ANY KIND. ARTERY EXPRESSLY DISCLAIMS,
  19:Core/Src/at32f403a_407_int.c ****   * TO THE FULLEST EXTENT PERMITTED BY LAW, ALL EXPRESS, IMPLIED OR
  20:Core/Src/at32f403a_407_int.c ****   * STATUTORY OR OTHER WARRANTIES, GUARANTEES OR REPRESENTATIONS,
  21:Core/Src/at32f403a_407_int.c ****   * INCLUDING BUT NOT LIMITED TO, THE IMPLIED WARRANTIES OF MERCHANTABILITY,
  22:Core/Src/at32f403a_407_int.c ****   * FITNESS FOR A PARTICULAR PURPOSE, OR NON-INFRINGEMENT.
  23:Core/Src/at32f403a_407_int.c ****   *
  24:Core/Src/at32f403a_407_int.c ****   **************************************************************************
  25:Core/Src/at32f403a_407_int.c ****   */
  26:Core/Src/at32f403a_407_int.c **** 
  27:Core/Src/at32f403a_407_int.c **** /* includes ------------------------------------------------------------------*/
  28:Core/Src/at32f403a_407_int.c **** #include "at32f403a_407_int.h"
  29:Core/Src/at32f403a_407_int.c **** 
  30:Core/Src/at32f403a_407_int.c **** /** @addtogroup AT32F403A_periph_examples
  31:Core/Src/at32f403a_407_int.c ****   * @{
  32:Core/Src/at32f403a_407_int.c ****   */
  33:Core/Src/at32f403a_407_int.c **** 
ARM GAS  /tmp/ccS1PgZW.s 			page 2


  34:Core/Src/at32f403a_407_int.c **** /** @addtogroup 403A_GPIO_led_toggle
  35:Core/Src/at32f403a_407_int.c ****   * @{
  36:Core/Src/at32f403a_407_int.c ****   */
  37:Core/Src/at32f403a_407_int.c **** 
  38:Core/Src/at32f403a_407_int.c **** extern __IO uint16_t dma_trans_complete_flag;
  39:Core/Src/at32f403a_407_int.c **** 
  40:Core/Src/at32f403a_407_int.c **** /**
  41:Core/Src/at32f403a_407_int.c ****   * @brief  this function handles nmi exception.
  42:Core/Src/at32f403a_407_int.c ****   * @param  none
  43:Core/Src/at32f403a_407_int.c ****   * @retval none
  44:Core/Src/at32f403a_407_int.c ****   */
  45:Core/Src/at32f403a_407_int.c **** void NMI_Handler(void)
  46:Core/Src/at32f403a_407_int.c **** {
  26              		.loc 1 46 0
  27              		.cfi_startproc
  28              		@ args = 0, pretend = 0, frame = 0
  29              		@ frame_needed = 0, uses_anonymous_args = 0
  30              		@ link register save eliminated.
  31 0000 7047     		bx	lr
  32              		.cfi_endproc
  33              	.LFE133:
  35              		.section	.text.HardFault_Handler,"ax",%progbits
  36              		.align	1
  37              		.global	HardFault_Handler
  38              		.syntax unified
  39              		.thumb
  40              		.thumb_func
  41              		.fpu softvfp
  43              	HardFault_Handler:
  44              	.LFB134:
  47:Core/Src/at32f403a_407_int.c **** }
  48:Core/Src/at32f403a_407_int.c **** 
  49:Core/Src/at32f403a_407_int.c **** /**
  50:Core/Src/at32f403a_407_int.c ****   * @brief  this function handles hard fault exception.
  51:Core/Src/at32f403a_407_int.c ****   * @param  none
  52:Core/Src/at32f403a_407_int.c ****   * @retval none
  53:Core/Src/at32f403a_407_int.c ****   */
  54:Core/Src/at32f403a_407_int.c **** void HardFault_Handler(void)
  55:Core/Src/at32f403a_407_int.c **** {
  45              		.loc 1 55 0
  46              		.cfi_startproc
  47              		@ Volatile: function does not return.
  48              		@ args = 0, pretend = 0, frame = 0
  49              		@ frame_needed = 0, uses_anonymous_args = 0
  50              		@ link register save eliminated.
  51              	.L3:
  52 0000 FEE7     		b	.L3
  53              		.cfi_endproc
  54              	.LFE134:
  56              		.section	.text.MemManage_Handler,"ax",%progbits
  57              		.align	1
  58              		.global	MemManage_Handler
  59              		.syntax unified
  60              		.thumb
  61              		.thumb_func
  62              		.fpu softvfp
  64              	MemManage_Handler:
ARM GAS  /tmp/ccS1PgZW.s 			page 3


  65              	.LFB135:
  56:Core/Src/at32f403a_407_int.c ****   /* go to infinite loop when hard fault exception occurs */
  57:Core/Src/at32f403a_407_int.c ****   while(1)
  58:Core/Src/at32f403a_407_int.c ****   {
  59:Core/Src/at32f403a_407_int.c ****   }
  60:Core/Src/at32f403a_407_int.c **** }
  61:Core/Src/at32f403a_407_int.c **** 
  62:Core/Src/at32f403a_407_int.c **** /**
  63:Core/Src/at32f403a_407_int.c ****   * @brief  this function handles memory manage exception.
  64:Core/Src/at32f403a_407_int.c ****   * @param  none
  65:Core/Src/at32f403a_407_int.c ****   * @retval none
  66:Core/Src/at32f403a_407_int.c ****   */
  67:Core/Src/at32f403a_407_int.c **** void MemManage_Handler(void)
  68:Core/Src/at32f403a_407_int.c **** {
  66              		.loc 1 68 0
  67              		.cfi_startproc
  68              		@ Volatile: function does not return.
  69              		@ args = 0, pretend = 0, frame = 0
  70              		@ frame_needed = 0, uses_anonymous_args = 0
  71              		@ link register save eliminated.
  72              	.L5:
  73 0000 FEE7     		b	.L5
  74              		.cfi_endproc
  75              	.LFE135:
  77              		.section	.text.BusFault_Handler,"ax",%progbits
  78              		.align	1
  79              		.global	BusFault_Handler
  80              		.syntax unified
  81              		.thumb
  82              		.thumb_func
  83              		.fpu softvfp
  85              	BusFault_Handler:
  86              	.LFB136:
  69:Core/Src/at32f403a_407_int.c ****   /* go to infinite loop when memory manage exception occurs */
  70:Core/Src/at32f403a_407_int.c ****   while(1)
  71:Core/Src/at32f403a_407_int.c ****   {
  72:Core/Src/at32f403a_407_int.c ****   }
  73:Core/Src/at32f403a_407_int.c **** }
  74:Core/Src/at32f403a_407_int.c **** 
  75:Core/Src/at32f403a_407_int.c **** /**
  76:Core/Src/at32f403a_407_int.c ****   * @brief  this function handles bus fault exception.
  77:Core/Src/at32f403a_407_int.c ****   * @param  none
  78:Core/Src/at32f403a_407_int.c ****   * @retval none
  79:Core/Src/at32f403a_407_int.c ****   */
  80:Core/Src/at32f403a_407_int.c **** void BusFault_Handler(void)
  81:Core/Src/at32f403a_407_int.c **** {
  87              		.loc 1 81 0
  88              		.cfi_startproc
  89              		@ Volatile: function does not return.
  90              		@ args = 0, pretend = 0, frame = 0
  91              		@ frame_needed = 0, uses_anonymous_args = 0
  92              		@ link register save eliminated.
  93              	.L7:
  94 0000 FEE7     		b	.L7
  95              		.cfi_endproc
  96              	.LFE136:
  98              		.section	.text.UsageFault_Handler,"ax",%progbits
ARM GAS  /tmp/ccS1PgZW.s 			page 4


  99              		.align	1
 100              		.global	UsageFault_Handler
 101              		.syntax unified
 102              		.thumb
 103              		.thumb_func
 104              		.fpu softvfp
 106              	UsageFault_Handler:
 107              	.LFB137:
  82:Core/Src/at32f403a_407_int.c ****   /* go to infinite loop when bus fault exception occurs */
  83:Core/Src/at32f403a_407_int.c ****   while(1)
  84:Core/Src/at32f403a_407_int.c ****   {
  85:Core/Src/at32f403a_407_int.c ****   }
  86:Core/Src/at32f403a_407_int.c **** }
  87:Core/Src/at32f403a_407_int.c **** 
  88:Core/Src/at32f403a_407_int.c **** /**
  89:Core/Src/at32f403a_407_int.c ****   * @brief  this function handles usage fault exception.
  90:Core/Src/at32f403a_407_int.c ****   * @param  none
  91:Core/Src/at32f403a_407_int.c ****   * @retval none
  92:Core/Src/at32f403a_407_int.c ****   */
  93:Core/Src/at32f403a_407_int.c **** void UsageFault_Handler(void)
  94:Core/Src/at32f403a_407_int.c **** {
 108              		.loc 1 94 0
 109              		.cfi_startproc
 110              		@ Volatile: function does not return.
 111              		@ args = 0, pretend = 0, frame = 0
 112              		@ frame_needed = 0, uses_anonymous_args = 0
 113              		@ link register save eliminated.
 114              	.L9:
 115 0000 FEE7     		b	.L9
 116              		.cfi_endproc
 117              	.LFE137:
 119              		.section	.text.SVC_Handler,"ax",%progbits
 120              		.align	1
 121              		.global	SVC_Handler
 122              		.syntax unified
 123              		.thumb
 124              		.thumb_func
 125              		.fpu softvfp
 127              	SVC_Handler:
 128              	.LFB138:
  95:Core/Src/at32f403a_407_int.c ****   /* go to infinite loop when usage fault exception occurs */
  96:Core/Src/at32f403a_407_int.c ****   while(1)
  97:Core/Src/at32f403a_407_int.c ****   {
  98:Core/Src/at32f403a_407_int.c ****   }
  99:Core/Src/at32f403a_407_int.c **** }
 100:Core/Src/at32f403a_407_int.c **** 
 101:Core/Src/at32f403a_407_int.c **** /**
 102:Core/Src/at32f403a_407_int.c ****   * @brief  this function handles svcall exception.
 103:Core/Src/at32f403a_407_int.c ****   * @param  none
 104:Core/Src/at32f403a_407_int.c ****   * @retval none
 105:Core/Src/at32f403a_407_int.c ****   */
 106:Core/Src/at32f403a_407_int.c **** void SVC_Handler(void)
 107:Core/Src/at32f403a_407_int.c **** {
 129              		.loc 1 107 0
 130              		.cfi_startproc
 131              		@ args = 0, pretend = 0, frame = 0
 132              		@ frame_needed = 0, uses_anonymous_args = 0
ARM GAS  /tmp/ccS1PgZW.s 			page 5


 133              		@ link register save eliminated.
 134 0000 7047     		bx	lr
 135              		.cfi_endproc
 136              	.LFE138:
 138              		.section	.text.DebugMon_Handler,"ax",%progbits
 139              		.align	1
 140              		.global	DebugMon_Handler
 141              		.syntax unified
 142              		.thumb
 143              		.thumb_func
 144              		.fpu softvfp
 146              	DebugMon_Handler:
 147              	.LFB139:
 108:Core/Src/at32f403a_407_int.c **** }
 109:Core/Src/at32f403a_407_int.c **** 
 110:Core/Src/at32f403a_407_int.c **** /**
 111:Core/Src/at32f403a_407_int.c ****   * @brief  this function handles debug monitor exception.
 112:Core/Src/at32f403a_407_int.c ****   * @param  none
 113:Core/Src/at32f403a_407_int.c ****   * @retval none
 114:Core/Src/at32f403a_407_int.c ****   */
 115:Core/Src/at32f403a_407_int.c **** void DebugMon_Handler(void)
 116:Core/Src/at32f403a_407_int.c **** {
 148              		.loc 1 116 0
 149              		.cfi_startproc
 150              		@ args = 0, pretend = 0, frame = 0
 151              		@ frame_needed = 0, uses_anonymous_args = 0
 152              		@ link register save eliminated.
 153 0000 7047     		bx	lr
 154              		.cfi_endproc
 155              	.LFE139:
 157              		.section	.text.PendSV_Handler,"ax",%progbits
 158              		.align	1
 159              		.global	PendSV_Handler
 160              		.syntax unified
 161              		.thumb
 162              		.thumb_func
 163              		.fpu softvfp
 165              	PendSV_Handler:
 166              	.LFB140:
 117:Core/Src/at32f403a_407_int.c **** }
 118:Core/Src/at32f403a_407_int.c **** 
 119:Core/Src/at32f403a_407_int.c **** /**
 120:Core/Src/at32f403a_407_int.c ****   * @brief  this function handles pendsv_handler exception.
 121:Core/Src/at32f403a_407_int.c ****   * @param  none
 122:Core/Src/at32f403a_407_int.c ****   * @retval none
 123:Core/Src/at32f403a_407_int.c ****   */
 124:Core/Src/at32f403a_407_int.c **** void PendSV_Handler(void)
 125:Core/Src/at32f403a_407_int.c **** {
 167              		.loc 1 125 0
 168              		.cfi_startproc
 169              		@ args = 0, pretend = 0, frame = 0
 170              		@ frame_needed = 0, uses_anonymous_args = 0
 171              		@ link register save eliminated.
 172 0000 7047     		bx	lr
 173              		.cfi_endproc
 174              	.LFE140:
 176              		.section	.text.SysTick_Handler,"ax",%progbits
ARM GAS  /tmp/ccS1PgZW.s 			page 6


 177              		.align	1
 178              		.global	SysTick_Handler
 179              		.syntax unified
 180              		.thumb
 181              		.thumb_func
 182              		.fpu softvfp
 184              	SysTick_Handler:
 185              	.LFB141:
 126:Core/Src/at32f403a_407_int.c **** }
 127:Core/Src/at32f403a_407_int.c **** 
 128:Core/Src/at32f403a_407_int.c **** /**
 129:Core/Src/at32f403a_407_int.c ****   * @brief  this function handles systick handler.
 130:Core/Src/at32f403a_407_int.c ****   * @param  none
 131:Core/Src/at32f403a_407_int.c ****   * @retval none
 132:Core/Src/at32f403a_407_int.c ****   */
 133:Core/Src/at32f403a_407_int.c **** void SysTick_Handler(void)
 134:Core/Src/at32f403a_407_int.c **** {
 186              		.loc 1 134 0
 187              		.cfi_startproc
 188              		@ args = 0, pretend = 0, frame = 0
 189              		@ frame_needed = 0, uses_anonymous_args = 0
 190              		@ link register save eliminated.
 191 0000 7047     		bx	lr
 192              		.cfi_endproc
 193              	.LFE141:
 195              		.section	.text.DMA1_Channel1_IRQHandler,"ax",%progbits
 196              		.align	1
 197              		.global	DMA1_Channel1_IRQHandler
 198              		.syntax unified
 199              		.thumb
 200              		.thumb_func
 201              		.fpu softvfp
 203              	DMA1_Channel1_IRQHandler:
 204              	.LFB142:
 135:Core/Src/at32f403a_407_int.c **** }
 136:Core/Src/at32f403a_407_int.c **** 
 137:Core/Src/at32f403a_407_int.c **** void DMA1_Channel1_IRQHandler(void)
 138:Core/Src/at32f403a_407_int.c **** {
 205              		.loc 1 138 0
 206              		.cfi_startproc
 207              		@ args = 0, pretend = 0, frame = 0
 208              		@ frame_needed = 0, uses_anonymous_args = 0
 209              		.loc 1 138 0
 210 0000 08B5     		push	{r3, lr}
 211              	.LCFI0:
 212              		.cfi_def_cfa_offset 8
 213              		.cfi_offset 3, -8
 214              		.cfi_offset 14, -4
 139:Core/Src/at32f403a_407_int.c ****   if(dma_flag_get(DMA1_FDT1_FLAG) != RESET)
 215              		.loc 1 139 0
 216 0002 0220     		movs	r0, #2
 217 0004 FFF7FEFF 		bl	dma_flag_get
 218              	.LVL0:
 219 0008 00B9     		cbnz	r0, .L17
 220              	.L14:
 221 000a 08BD     		pop	{r3, pc}
 222              	.L17:
ARM GAS  /tmp/ccS1PgZW.s 			page 7


 140:Core/Src/at32f403a_407_int.c ****   {
 141:Core/Src/at32f403a_407_int.c ****     dma_flag_clear(DMA1_FDT1_FLAG);
 223              		.loc 1 141 0
 224 000c 0220     		movs	r0, #2
 225 000e FFF7FEFF 		bl	dma_flag_clear
 226              	.LVL1:
 142:Core/Src/at32f403a_407_int.c ****     dma_trans_complete_flag = 1;
 227              		.loc 1 142 0
 228 0012 0122     		movs	r2, #1
 229 0014 014B     		ldr	r3, .L18
 230 0016 1A80     		strh	r2, [r3]	@ movhi
 143:Core/Src/at32f403a_407_int.c ****   }
 144:Core/Src/at32f403a_407_int.c **** }
 231              		.loc 1 144 0
 232 0018 F7E7     		b	.L14
 233              	.L19:
 234 001a 00BF     		.align	2
 235              	.L18:
 236 001c 00000000 		.word	dma_trans_complete_flag
 237              		.cfi_endproc
 238              	.LFE142:
 240              		.text
 241              	.Letext0:
 242              		.file 2 "/home/y/github/EmbeddedSoftwareMCU/Tools/gcc-arm-none-eabi-unix/arm-none-eabi/include/mac
 243              		.file 3 "/home/y/github/EmbeddedSoftwareMCU/Tools/gcc-arm-none-eabi-unix/arm-none-eabi/include/sys
 244              		.file 4 "/home/y/github/EmbeddedSoftwareMCU/Libraries/AT32/cmsis/cm4/core_support/core_cm4.h"
 245              		.file 5 "/home/y/github/EmbeddedSoftwareMCU/Libraries/AT32/cmsis/cm4/device_support/system_at32f40
 246              		.file 6 "/home/y/github/EmbeddedSoftwareMCU/Libraries/AT32/drivers/inc/at32f403a_407_usb.h"
 247              		.file 7 "/home/y/github/EmbeddedSoftwareMCU/Libraries/AT32/drivers/inc/at32f403a_407_dma.h"
 248              		.file 8 "/home/y/github/EmbeddedSoftwareMCU/Libraries/AT32/cmsis/cm4/device_support/at32f403a_407.
ARM GAS  /tmp/ccS1PgZW.s 			page 8

