ARM GAS  /tmp/ccn3b2SJ.s 			page 1


   1              		.cpu cortex-m4
   2              		.eabi_attribute 20, 1
   3              		.eabi_attribute 21, 1
   4              		.eabi_attribute 23, 3
   5              		.eabi_attribute 24, 1
   6              		.eabi_attribute 25, 1
   7              		.eabi_attribute 26, 1
   8              		.eabi_attribute 30, 1
   9              		.eabi_attribute 34, 1
  10              		.eabi_attribute 18, 4
  11              		.file	"at32f403a_407_crm.c"
  12              		.text
  13              	.Ltext0:
  14              		.cfi_sections	.debug_frame
  15              		.section	.text.crm_reset,"ax",%progbits
  16              		.align	1
  17              		.global	crm_reset
  18              		.syntax unified
  19              		.thumb
  20              		.thumb_func
  21              		.fpu softvfp
  23              	crm_reset:
  24              	.LFB133:
  25              		.file 1 "/home/y/github/EmbeddedSoftwareMCU/Libraries/AT32/drivers/src/at32f403a_407_crm.c"
   1:/home/y/github/EmbeddedSoftwareMCU/Libraries/AT32/drivers/src/at32f403a_407_crm.c **** /**
   2:/home/y/github/EmbeddedSoftwareMCU/Libraries/AT32/drivers/src/at32f403a_407_crm.c ****   **************************************************************************
   3:/home/y/github/EmbeddedSoftwareMCU/Libraries/AT32/drivers/src/at32f403a_407_crm.c ****   * @file     at32f403a_407_crm.c
   4:/home/y/github/EmbeddedSoftwareMCU/Libraries/AT32/drivers/src/at32f403a_407_crm.c ****   * @version  v2.0.8
   5:/home/y/github/EmbeddedSoftwareMCU/Libraries/AT32/drivers/src/at32f403a_407_crm.c ****   * @date     2022-04-02
   6:/home/y/github/EmbeddedSoftwareMCU/Libraries/AT32/drivers/src/at32f403a_407_crm.c ****   * @brief    contains all the functions for the crm firmware library
   7:/home/y/github/EmbeddedSoftwareMCU/Libraries/AT32/drivers/src/at32f403a_407_crm.c ****   **************************************************************************
   8:/home/y/github/EmbeddedSoftwareMCU/Libraries/AT32/drivers/src/at32f403a_407_crm.c ****   *                       Copyright notice & Disclaimer
   9:/home/y/github/EmbeddedSoftwareMCU/Libraries/AT32/drivers/src/at32f403a_407_crm.c ****   *
  10:/home/y/github/EmbeddedSoftwareMCU/Libraries/AT32/drivers/src/at32f403a_407_crm.c ****   * The software Board Support Package (BSP) that is made available to
  11:/home/y/github/EmbeddedSoftwareMCU/Libraries/AT32/drivers/src/at32f403a_407_crm.c ****   * download from Artery official website is the copyrighted work of Artery.
  12:/home/y/github/EmbeddedSoftwareMCU/Libraries/AT32/drivers/src/at32f403a_407_crm.c ****   * Artery authorizes customers to use, copy, and distribute the BSP
  13:/home/y/github/EmbeddedSoftwareMCU/Libraries/AT32/drivers/src/at32f403a_407_crm.c ****   * software and its related documentation for the purpose of design and
  14:/home/y/github/EmbeddedSoftwareMCU/Libraries/AT32/drivers/src/at32f403a_407_crm.c ****   * development in conjunction with Artery microcontrollers. Use of the
  15:/home/y/github/EmbeddedSoftwareMCU/Libraries/AT32/drivers/src/at32f403a_407_crm.c ****   * software is governed by this copyright notice and the following disclaimer.
  16:/home/y/github/EmbeddedSoftwareMCU/Libraries/AT32/drivers/src/at32f403a_407_crm.c ****   *
  17:/home/y/github/EmbeddedSoftwareMCU/Libraries/AT32/drivers/src/at32f403a_407_crm.c ****   * THIS SOFTWARE IS PROVIDED ON "AS IS" BASIS WITHOUT WARRANTIES,
  18:/home/y/github/EmbeddedSoftwareMCU/Libraries/AT32/drivers/src/at32f403a_407_crm.c ****   * GUARANTEES OR REPRESENTATIONS OF ANY KIND. ARTERY EXPRESSLY DISCLAIMS,
  19:/home/y/github/EmbeddedSoftwareMCU/Libraries/AT32/drivers/src/at32f403a_407_crm.c ****   * TO THE FULLEST EXTENT PERMITTED BY LAW, ALL EXPRESS, IMPLIED OR
  20:/home/y/github/EmbeddedSoftwareMCU/Libraries/AT32/drivers/src/at32f403a_407_crm.c ****   * STATUTORY OR OTHER WARRANTIES, GUARANTEES OR REPRESENTATIONS,
  21:/home/y/github/EmbeddedSoftwareMCU/Libraries/AT32/drivers/src/at32f403a_407_crm.c ****   * INCLUDING BUT NOT LIMITED TO, THE IMPLIED WARRANTIES OF MERCHANTABILITY,
  22:/home/y/github/EmbeddedSoftwareMCU/Libraries/AT32/drivers/src/at32f403a_407_crm.c ****   * FITNESS FOR A PARTICULAR PURPOSE, OR NON-INFRINGEMENT.
  23:/home/y/github/EmbeddedSoftwareMCU/Libraries/AT32/drivers/src/at32f403a_407_crm.c ****   *
  24:/home/y/github/EmbeddedSoftwareMCU/Libraries/AT32/drivers/src/at32f403a_407_crm.c ****   **************************************************************************
  25:/home/y/github/EmbeddedSoftwareMCU/Libraries/AT32/drivers/src/at32f403a_407_crm.c ****   */
  26:/home/y/github/EmbeddedSoftwareMCU/Libraries/AT32/drivers/src/at32f403a_407_crm.c **** 
  27:/home/y/github/EmbeddedSoftwareMCU/Libraries/AT32/drivers/src/at32f403a_407_crm.c **** #include "at32f403a_407_conf.h"
  28:/home/y/github/EmbeddedSoftwareMCU/Libraries/AT32/drivers/src/at32f403a_407_crm.c **** 
  29:/home/y/github/EmbeddedSoftwareMCU/Libraries/AT32/drivers/src/at32f403a_407_crm.c **** /** @addtogroup AT32F403A_407_periph_driver
  30:/home/y/github/EmbeddedSoftwareMCU/Libraries/AT32/drivers/src/at32f403a_407_crm.c ****   * @{
  31:/home/y/github/EmbeddedSoftwareMCU/Libraries/AT32/drivers/src/at32f403a_407_crm.c ****   */
  32:/home/y/github/EmbeddedSoftwareMCU/Libraries/AT32/drivers/src/at32f403a_407_crm.c **** 
  33:/home/y/github/EmbeddedSoftwareMCU/Libraries/AT32/drivers/src/at32f403a_407_crm.c **** /** @defgroup CRM
ARM GAS  /tmp/ccn3b2SJ.s 			page 2


  34:/home/y/github/EmbeddedSoftwareMCU/Libraries/AT32/drivers/src/at32f403a_407_crm.c ****   * @brief CRM driver modules
  35:/home/y/github/EmbeddedSoftwareMCU/Libraries/AT32/drivers/src/at32f403a_407_crm.c ****   * @{
  36:/home/y/github/EmbeddedSoftwareMCU/Libraries/AT32/drivers/src/at32f403a_407_crm.c ****   */
  37:/home/y/github/EmbeddedSoftwareMCU/Libraries/AT32/drivers/src/at32f403a_407_crm.c **** 
  38:/home/y/github/EmbeddedSoftwareMCU/Libraries/AT32/drivers/src/at32f403a_407_crm.c **** #ifdef CRM_MODULE_ENABLED
  39:/home/y/github/EmbeddedSoftwareMCU/Libraries/AT32/drivers/src/at32f403a_407_crm.c **** 
  40:/home/y/github/EmbeddedSoftwareMCU/Libraries/AT32/drivers/src/at32f403a_407_crm.c **** /** @defgroup CRM_private_functions
  41:/home/y/github/EmbeddedSoftwareMCU/Libraries/AT32/drivers/src/at32f403a_407_crm.c ****   * @{
  42:/home/y/github/EmbeddedSoftwareMCU/Libraries/AT32/drivers/src/at32f403a_407_crm.c ****   */
  43:/home/y/github/EmbeddedSoftwareMCU/Libraries/AT32/drivers/src/at32f403a_407_crm.c **** 
  44:/home/y/github/EmbeddedSoftwareMCU/Libraries/AT32/drivers/src/at32f403a_407_crm.c **** /**
  45:/home/y/github/EmbeddedSoftwareMCU/Libraries/AT32/drivers/src/at32f403a_407_crm.c ****   * @brief  reset the crm register
  46:/home/y/github/EmbeddedSoftwareMCU/Libraries/AT32/drivers/src/at32f403a_407_crm.c ****   * @param  none
  47:/home/y/github/EmbeddedSoftwareMCU/Libraries/AT32/drivers/src/at32f403a_407_crm.c ****   * @retval none
  48:/home/y/github/EmbeddedSoftwareMCU/Libraries/AT32/drivers/src/at32f403a_407_crm.c ****   */
  49:/home/y/github/EmbeddedSoftwareMCU/Libraries/AT32/drivers/src/at32f403a_407_crm.c **** void crm_reset(void)
  50:/home/y/github/EmbeddedSoftwareMCU/Libraries/AT32/drivers/src/at32f403a_407_crm.c **** {
  26              		.loc 1 50 0
  27              		.cfi_startproc
  28              		@ args = 0, pretend = 0, frame = 0
  29              		@ frame_needed = 0, uses_anonymous_args = 0
  30              		@ link register save eliminated.
  51:/home/y/github/EmbeddedSoftwareMCU/Libraries/AT32/drivers/src/at32f403a_407_crm.c ****   /* reset the crm clock configuration to the default reset state(for debug purpose) */
  52:/home/y/github/EmbeddedSoftwareMCU/Libraries/AT32/drivers/src/at32f403a_407_crm.c ****   /* set hicken bit */
  53:/home/y/github/EmbeddedSoftwareMCU/Libraries/AT32/drivers/src/at32f403a_407_crm.c ****   CRM->ctrl_bit.hicken = TRUE;
  31              		.loc 1 53 0
  32 0000 104A     		ldr	r2, .L4
  33 0002 1368     		ldr	r3, [r2]
  34 0004 43F00103 		orr	r3, r3, #1
  35 0008 1360     		str	r3, [r2]
  36              	.L2:
  54:/home/y/github/EmbeddedSoftwareMCU/Libraries/AT32/drivers/src/at32f403a_407_crm.c **** 
  55:/home/y/github/EmbeddedSoftwareMCU/Libraries/AT32/drivers/src/at32f403a_407_crm.c ****   /* wait hick stable */
  56:/home/y/github/EmbeddedSoftwareMCU/Libraries/AT32/drivers/src/at32f403a_407_crm.c ****   while(CRM->ctrl_bit.hickstbl != SET);
  37              		.loc 1 56 0 discriminator 1
  38 000a 0E4B     		ldr	r3, .L4
  39 000c 1B68     		ldr	r3, [r3]
  40 000e 13F0020F 		tst	r3, #2
  41 0012 FAD0     		beq	.L2
  57:/home/y/github/EmbeddedSoftwareMCU/Libraries/AT32/drivers/src/at32f403a_407_crm.c **** 
  58:/home/y/github/EmbeddedSoftwareMCU/Libraries/AT32/drivers/src/at32f403a_407_crm.c ****   /* hick used as system clock */
  59:/home/y/github/EmbeddedSoftwareMCU/Libraries/AT32/drivers/src/at32f403a_407_crm.c ****   CRM->cfg_bit.sclksel = CRM_SCLK_HICK;
  42              		.loc 1 59 0
  43 0014 0B4B     		ldr	r3, .L4
  44 0016 5A68     		ldr	r2, [r3, #4]
  45 0018 6FF30102 		bfc	r2, #0, #2
  46 001c 5A60     		str	r2, [r3, #4]
  47              	.L3:
  60:/home/y/github/EmbeddedSoftwareMCU/Libraries/AT32/drivers/src/at32f403a_407_crm.c **** 
  61:/home/y/github/EmbeddedSoftwareMCU/Libraries/AT32/drivers/src/at32f403a_407_crm.c ****   /* wait sclk switch status */
  62:/home/y/github/EmbeddedSoftwareMCU/Libraries/AT32/drivers/src/at32f403a_407_crm.c ****   while(CRM->cfg_bit.sclksts != CRM_SCLK_HICK);
  48              		.loc 1 62 0 discriminator 1
  49 001e 094B     		ldr	r3, .L4
  50 0020 5B68     		ldr	r3, [r3, #4]
  51 0022 13F00C0F 		tst	r3, #12
  52 0026 FAD1     		bne	.L3
  63:/home/y/github/EmbeddedSoftwareMCU/Libraries/AT32/drivers/src/at32f403a_407_crm.c **** 
ARM GAS  /tmp/ccn3b2SJ.s 			page 3


  64:/home/y/github/EmbeddedSoftwareMCU/Libraries/AT32/drivers/src/at32f403a_407_crm.c ****   /* reset cfg register, include sclk switch, ahbdiv, apb1div, apb2div, adcdiv,
  65:/home/y/github/EmbeddedSoftwareMCU/Libraries/AT32/drivers/src/at32f403a_407_crm.c ****      clkout pllrcs, pllhextdiv, pllmult, usbdiv and pllrange bits */
  66:/home/y/github/EmbeddedSoftwareMCU/Libraries/AT32/drivers/src/at32f403a_407_crm.c ****   CRM->cfg = 0;
  53              		.loc 1 66 0
  54 0028 064B     		ldr	r3, .L4
  55 002a 0021     		movs	r1, #0
  56 002c 5960     		str	r1, [r3, #4]
  67:/home/y/github/EmbeddedSoftwareMCU/Libraries/AT32/drivers/src/at32f403a_407_crm.c **** 
  68:/home/y/github/EmbeddedSoftwareMCU/Libraries/AT32/drivers/src/at32f403a_407_crm.c ****   /* reset hexten, hextbyps, cfden and pllen bits */
  69:/home/y/github/EmbeddedSoftwareMCU/Libraries/AT32/drivers/src/at32f403a_407_crm.c ****   CRM->ctrl &= ~(0x010D0000U);
  57              		.loc 1 69 0
  58 002e 1A68     		ldr	r2, [r3]
  59 0030 22F08672 		bic	r2, r2, #17563648
  60 0034 22F48032 		bic	r2, r2, #65536
  61 0038 1A60     		str	r2, [r3]
  70:/home/y/github/EmbeddedSoftwareMCU/Libraries/AT32/drivers/src/at32f403a_407_crm.c **** 
  71:/home/y/github/EmbeddedSoftwareMCU/Libraries/AT32/drivers/src/at32f403a_407_crm.c ****   /* reset clkout[3], usbbufs, hickdiv, clkoutdiv */
  72:/home/y/github/EmbeddedSoftwareMCU/Libraries/AT32/drivers/src/at32f403a_407_crm.c ****   CRM->misc1 = 0;
  62              		.loc 1 72 0
  63 003a 1963     		str	r1, [r3, #48]
  73:/home/y/github/EmbeddedSoftwareMCU/Libraries/AT32/drivers/src/at32f403a_407_crm.c **** 
  74:/home/y/github/EmbeddedSoftwareMCU/Libraries/AT32/drivers/src/at32f403a_407_crm.c ****   /* disable all interrupts enable and clear pending bits  */
  75:/home/y/github/EmbeddedSoftwareMCU/Libraries/AT32/drivers/src/at32f403a_407_crm.c ****   CRM->clkint = 0x009F0000;
  64              		.loc 1 75 0
  65 003c 4FF41F02 		mov	r2, #10420224
  66 0040 9A60     		str	r2, [r3, #8]
  67 0042 7047     		bx	lr
  68              	.L5:
  69              		.align	2
  70              	.L4:
  71 0044 00100240 		.word	1073876992
  72              		.cfi_endproc
  73              	.LFE133:
  75              		.section	.text.crm_lext_bypass,"ax",%progbits
  76              		.align	1
  77              		.global	crm_lext_bypass
  78              		.syntax unified
  79              		.thumb
  80              		.thumb_func
  81              		.fpu softvfp
  83              	crm_lext_bypass:
  84              	.LFB134:
  76:/home/y/github/EmbeddedSoftwareMCU/Libraries/AT32/drivers/src/at32f403a_407_crm.c **** }
  77:/home/y/github/EmbeddedSoftwareMCU/Libraries/AT32/drivers/src/at32f403a_407_crm.c **** 
  78:/home/y/github/EmbeddedSoftwareMCU/Libraries/AT32/drivers/src/at32f403a_407_crm.c **** /**
  79:/home/y/github/EmbeddedSoftwareMCU/Libraries/AT32/drivers/src/at32f403a_407_crm.c ****   * @brief  enable or disable crm low speed external crystal bypass
  80:/home/y/github/EmbeddedSoftwareMCU/Libraries/AT32/drivers/src/at32f403a_407_crm.c ****   * @param  new_state (TRUE or FALSE)
  81:/home/y/github/EmbeddedSoftwareMCU/Libraries/AT32/drivers/src/at32f403a_407_crm.c ****   * @retval none
  82:/home/y/github/EmbeddedSoftwareMCU/Libraries/AT32/drivers/src/at32f403a_407_crm.c ****   */
  83:/home/y/github/EmbeddedSoftwareMCU/Libraries/AT32/drivers/src/at32f403a_407_crm.c **** void crm_lext_bypass(confirm_state new_state)
  84:/home/y/github/EmbeddedSoftwareMCU/Libraries/AT32/drivers/src/at32f403a_407_crm.c **** {
  85              		.loc 1 84 0
  86              		.cfi_startproc
  87              		@ args = 0, pretend = 0, frame = 0
  88              		@ frame_needed = 0, uses_anonymous_args = 0
  89              		@ link register save eliminated.
  90              	.LVL0:
ARM GAS  /tmp/ccn3b2SJ.s 			page 4


  85:/home/y/github/EmbeddedSoftwareMCU/Libraries/AT32/drivers/src/at32f403a_407_crm.c ****   CRM->bpdc_bit.lextbyps = new_state;
  91              		.loc 1 85 0
  92 0000 024B     		ldr	r3, .L7
  93 0002 1A6A     		ldr	r2, [r3, #32]
  94 0004 60F38202 		bfi	r2, r0, #2, #1
  95 0008 1A62     		str	r2, [r3, #32]
  96 000a 7047     		bx	lr
  97              	.L8:
  98              		.align	2
  99              	.L7:
 100 000c 00100240 		.word	1073876992
 101              		.cfi_endproc
 102              	.LFE134:
 104              		.section	.text.crm_hext_bypass,"ax",%progbits
 105              		.align	1
 106              		.global	crm_hext_bypass
 107              		.syntax unified
 108              		.thumb
 109              		.thumb_func
 110              		.fpu softvfp
 112              	crm_hext_bypass:
 113              	.LFB135:
  86:/home/y/github/EmbeddedSoftwareMCU/Libraries/AT32/drivers/src/at32f403a_407_crm.c **** }
  87:/home/y/github/EmbeddedSoftwareMCU/Libraries/AT32/drivers/src/at32f403a_407_crm.c **** 
  88:/home/y/github/EmbeddedSoftwareMCU/Libraries/AT32/drivers/src/at32f403a_407_crm.c **** /**
  89:/home/y/github/EmbeddedSoftwareMCU/Libraries/AT32/drivers/src/at32f403a_407_crm.c ****   * @brief  enable or disable crm high speed external crystal bypass
  90:/home/y/github/EmbeddedSoftwareMCU/Libraries/AT32/drivers/src/at32f403a_407_crm.c ****   * @param  new_state (TRUE or FALSE)
  91:/home/y/github/EmbeddedSoftwareMCU/Libraries/AT32/drivers/src/at32f403a_407_crm.c ****   * @retval none
  92:/home/y/github/EmbeddedSoftwareMCU/Libraries/AT32/drivers/src/at32f403a_407_crm.c ****   */
  93:/home/y/github/EmbeddedSoftwareMCU/Libraries/AT32/drivers/src/at32f403a_407_crm.c **** void crm_hext_bypass(confirm_state new_state)
  94:/home/y/github/EmbeddedSoftwareMCU/Libraries/AT32/drivers/src/at32f403a_407_crm.c **** {
 114              		.loc 1 94 0
 115              		.cfi_startproc
 116              		@ args = 0, pretend = 0, frame = 0
 117              		@ frame_needed = 0, uses_anonymous_args = 0
 118              		@ link register save eliminated.
 119              	.LVL1:
  95:/home/y/github/EmbeddedSoftwareMCU/Libraries/AT32/drivers/src/at32f403a_407_crm.c ****   CRM->ctrl_bit.hextbyps = new_state;
 120              		.loc 1 95 0
 121 0000 024B     		ldr	r3, .L10
 122 0002 1A68     		ldr	r2, [r3]
 123 0004 60F39242 		bfi	r2, r0, #18, #1
 124 0008 1A60     		str	r2, [r3]
 125 000a 7047     		bx	lr
 126              	.L11:
 127              		.align	2
 128              	.L10:
 129 000c 00100240 		.word	1073876992
 130              		.cfi_endproc
 131              	.LFE135:
 133              		.section	.text.crm_flag_get,"ax",%progbits
 134              		.align	1
 135              		.global	crm_flag_get
 136              		.syntax unified
 137              		.thumb
 138              		.thumb_func
 139              		.fpu softvfp
ARM GAS  /tmp/ccn3b2SJ.s 			page 5


 141              	crm_flag_get:
 142              	.LFB136:
  96:/home/y/github/EmbeddedSoftwareMCU/Libraries/AT32/drivers/src/at32f403a_407_crm.c **** }
  97:/home/y/github/EmbeddedSoftwareMCU/Libraries/AT32/drivers/src/at32f403a_407_crm.c **** 
  98:/home/y/github/EmbeddedSoftwareMCU/Libraries/AT32/drivers/src/at32f403a_407_crm.c **** /**
  99:/home/y/github/EmbeddedSoftwareMCU/Libraries/AT32/drivers/src/at32f403a_407_crm.c ****   * @brief  get crm flag status
 100:/home/y/github/EmbeddedSoftwareMCU/Libraries/AT32/drivers/src/at32f403a_407_crm.c ****   * @param  flag
 101:/home/y/github/EmbeddedSoftwareMCU/Libraries/AT32/drivers/src/at32f403a_407_crm.c ****   *         this parameter can be one of the following values:
 102:/home/y/github/EmbeddedSoftwareMCU/Libraries/AT32/drivers/src/at32f403a_407_crm.c ****   *         - CRM_HICK_STABLE_FLAG
 103:/home/y/github/EmbeddedSoftwareMCU/Libraries/AT32/drivers/src/at32f403a_407_crm.c ****   *         - CRM_HEXT_STABLE_FLAG
 104:/home/y/github/EmbeddedSoftwareMCU/Libraries/AT32/drivers/src/at32f403a_407_crm.c ****   *         - CRM_PLL_STABLE_FLAG
 105:/home/y/github/EmbeddedSoftwareMCU/Libraries/AT32/drivers/src/at32f403a_407_crm.c ****   *         - CRM_LEXT_STABLE_FLAG
 106:/home/y/github/EmbeddedSoftwareMCU/Libraries/AT32/drivers/src/at32f403a_407_crm.c ****   *         - CRM_LICK_STABLE_FLAG
 107:/home/y/github/EmbeddedSoftwareMCU/Libraries/AT32/drivers/src/at32f403a_407_crm.c ****   *         - CRM_NRST_RESET_FLAG
 108:/home/y/github/EmbeddedSoftwareMCU/Libraries/AT32/drivers/src/at32f403a_407_crm.c ****   *         - CRM_POR_RESET_FLAG
 109:/home/y/github/EmbeddedSoftwareMCU/Libraries/AT32/drivers/src/at32f403a_407_crm.c ****   *         - CRM_SW_RESET_FLAG
 110:/home/y/github/EmbeddedSoftwareMCU/Libraries/AT32/drivers/src/at32f403a_407_crm.c ****   *         - CRM_WDT_RESET_FLAG
 111:/home/y/github/EmbeddedSoftwareMCU/Libraries/AT32/drivers/src/at32f403a_407_crm.c ****   *         - CRM_WWDT_RESET_FLAG
 112:/home/y/github/EmbeddedSoftwareMCU/Libraries/AT32/drivers/src/at32f403a_407_crm.c ****   *         - CRM_LOWPOWER_RESET_FLAG
 113:/home/y/github/EmbeddedSoftwareMCU/Libraries/AT32/drivers/src/at32f403a_407_crm.c ****   *         interrupt flag:
 114:/home/y/github/EmbeddedSoftwareMCU/Libraries/AT32/drivers/src/at32f403a_407_crm.c ****   *         - CRM_LICK_READY_INT_FLAG
 115:/home/y/github/EmbeddedSoftwareMCU/Libraries/AT32/drivers/src/at32f403a_407_crm.c ****   *         - CRM_LEXT_READY_INT_FLAG
 116:/home/y/github/EmbeddedSoftwareMCU/Libraries/AT32/drivers/src/at32f403a_407_crm.c ****   *         - CRM_HICK_READY_INT_FLAG
 117:/home/y/github/EmbeddedSoftwareMCU/Libraries/AT32/drivers/src/at32f403a_407_crm.c ****   *         - CRM_HEXT_READY_INT_FLAG
 118:/home/y/github/EmbeddedSoftwareMCU/Libraries/AT32/drivers/src/at32f403a_407_crm.c ****   *         - CRM_PLL_READY_INT_FLAG
 119:/home/y/github/EmbeddedSoftwareMCU/Libraries/AT32/drivers/src/at32f403a_407_crm.c ****   *         - CRM_CLOCK_FAILURE_INT_FLAG
 120:/home/y/github/EmbeddedSoftwareMCU/Libraries/AT32/drivers/src/at32f403a_407_crm.c ****   * @retval flag_status (SET or RESET)
 121:/home/y/github/EmbeddedSoftwareMCU/Libraries/AT32/drivers/src/at32f403a_407_crm.c ****   */
 122:/home/y/github/EmbeddedSoftwareMCU/Libraries/AT32/drivers/src/at32f403a_407_crm.c **** flag_status crm_flag_get(uint32_t flag)
 123:/home/y/github/EmbeddedSoftwareMCU/Libraries/AT32/drivers/src/at32f403a_407_crm.c **** {
 143              		.loc 1 123 0
 144              		.cfi_startproc
 145              		@ args = 0, pretend = 0, frame = 0
 146              		@ frame_needed = 0, uses_anonymous_args = 0
 147              		@ link register save eliminated.
 148              	.LVL2:
 124:/home/y/github/EmbeddedSoftwareMCU/Libraries/AT32/drivers/src/at32f403a_407_crm.c ****   flag_status status = RESET;
 125:/home/y/github/EmbeddedSoftwareMCU/Libraries/AT32/drivers/src/at32f403a_407_crm.c ****   if((CRM_REG(flag) & CRM_REG_BIT(flag)) != CRM_REG_BIT(flag))
 149              		.loc 1 125 0
 150 0000 030C     		lsrs	r3, r0, #16
 151 0002 03F18043 		add	r3, r3, #1073741824
 152 0006 03F50433 		add	r3, r3, #135168
 153 000a 1A68     		ldr	r2, [r3]
 154 000c 00F01F00 		and	r0, r0, #31
 155              	.LVL3:
 156 0010 0123     		movs	r3, #1
 157 0012 03FA00F0 		lsl	r0, r3, r0
 158 0016 30EA0203 		bics	r3, r0, r2
 159 001a 01D0     		beq	.L14
 126:/home/y/github/EmbeddedSoftwareMCU/Libraries/AT32/drivers/src/at32f403a_407_crm.c ****   {
 127:/home/y/github/EmbeddedSoftwareMCU/Libraries/AT32/drivers/src/at32f403a_407_crm.c ****     status = RESET;
 160              		.loc 1 127 0
 161 001c 0020     		movs	r0, #0
 162 001e 7047     		bx	lr
 163              	.L14:
 128:/home/y/github/EmbeddedSoftwareMCU/Libraries/AT32/drivers/src/at32f403a_407_crm.c ****   }
 129:/home/y/github/EmbeddedSoftwareMCU/Libraries/AT32/drivers/src/at32f403a_407_crm.c ****   else
ARM GAS  /tmp/ccn3b2SJ.s 			page 6


 130:/home/y/github/EmbeddedSoftwareMCU/Libraries/AT32/drivers/src/at32f403a_407_crm.c ****   {
 131:/home/y/github/EmbeddedSoftwareMCU/Libraries/AT32/drivers/src/at32f403a_407_crm.c ****     status = SET;
 164              		.loc 1 131 0
 165 0020 0120     		movs	r0, #1
 166              	.LVL4:
 132:/home/y/github/EmbeddedSoftwareMCU/Libraries/AT32/drivers/src/at32f403a_407_crm.c ****   }
 133:/home/y/github/EmbeddedSoftwareMCU/Libraries/AT32/drivers/src/at32f403a_407_crm.c ****   return status;
 134:/home/y/github/EmbeddedSoftwareMCU/Libraries/AT32/drivers/src/at32f403a_407_crm.c **** }
 167              		.loc 1 134 0
 168 0022 7047     		bx	lr
 169              		.cfi_endproc
 170              	.LFE136:
 172              		.section	.text.crm_hext_stable_wait,"ax",%progbits
 173              		.align	1
 174              		.global	crm_hext_stable_wait
 175              		.syntax unified
 176              		.thumb
 177              		.thumb_func
 178              		.fpu softvfp
 180              	crm_hext_stable_wait:
 181              	.LFB137:
 135:/home/y/github/EmbeddedSoftwareMCU/Libraries/AT32/drivers/src/at32f403a_407_crm.c **** 
 136:/home/y/github/EmbeddedSoftwareMCU/Libraries/AT32/drivers/src/at32f403a_407_crm.c **** /**
 137:/home/y/github/EmbeddedSoftwareMCU/Libraries/AT32/drivers/src/at32f403a_407_crm.c ****   * @brief  wait for hext stable
 138:/home/y/github/EmbeddedSoftwareMCU/Libraries/AT32/drivers/src/at32f403a_407_crm.c ****   * @param  none
 139:/home/y/github/EmbeddedSoftwareMCU/Libraries/AT32/drivers/src/at32f403a_407_crm.c ****   * @retval error_status (ERROR or SUCCESS)
 140:/home/y/github/EmbeddedSoftwareMCU/Libraries/AT32/drivers/src/at32f403a_407_crm.c ****   */
 141:/home/y/github/EmbeddedSoftwareMCU/Libraries/AT32/drivers/src/at32f403a_407_crm.c **** error_status crm_hext_stable_wait(void)
 142:/home/y/github/EmbeddedSoftwareMCU/Libraries/AT32/drivers/src/at32f403a_407_crm.c **** {
 182              		.loc 1 142 0
 183              		.cfi_startproc
 184              		@ args = 0, pretend = 0, frame = 0
 185              		@ frame_needed = 0, uses_anonymous_args = 0
 186 0000 10B5     		push	{r4, lr}
 187              	.LCFI0:
 188              		.cfi_def_cfa_offset 8
 189              		.cfi_offset 4, -8
 190              		.cfi_offset 14, -4
 191              	.LVL5:
 143:/home/y/github/EmbeddedSoftwareMCU/Libraries/AT32/drivers/src/at32f403a_407_crm.c ****   uint32_t stable_cnt = 0;
 192              		.loc 1 143 0
 193 0002 0024     		movs	r4, #0
 144:/home/y/github/EmbeddedSoftwareMCU/Libraries/AT32/drivers/src/at32f403a_407_crm.c ****   error_status status = ERROR;
 145:/home/y/github/EmbeddedSoftwareMCU/Libraries/AT32/drivers/src/at32f403a_407_crm.c **** 
 146:/home/y/github/EmbeddedSoftwareMCU/Libraries/AT32/drivers/src/at32f403a_407_crm.c ****   while((crm_flag_get(CRM_HEXT_STABLE_FLAG) != SET) && (stable_cnt < HEXT_STARTUP_TIMEOUT))
 194              		.loc 1 146 0
 195 0004 00E0     		b	.L16
 196              	.LVL6:
 197              	.L18:
 147:/home/y/github/EmbeddedSoftwareMCU/Libraries/AT32/drivers/src/at32f403a_407_crm.c ****   {
 148:/home/y/github/EmbeddedSoftwareMCU/Libraries/AT32/drivers/src/at32f403a_407_crm.c ****     stable_cnt ++;
 198              		.loc 1 148 0
 199 0006 0134     		adds	r4, r4, #1
 200              	.LVL7:
 201              	.L16:
 146:/home/y/github/EmbeddedSoftwareMCU/Libraries/AT32/drivers/src/at32f403a_407_crm.c ****   {
 202              		.loc 1 146 0
ARM GAS  /tmp/ccn3b2SJ.s 			page 7


 203 0008 1120     		movs	r0, #17
 204 000a FFF7FEFF 		bl	crm_flag_get
 205              	.LVL8:
 206 000e 0128     		cmp	r0, #1
 207 0010 02D0     		beq	.L17
 146:/home/y/github/EmbeddedSoftwareMCU/Libraries/AT32/drivers/src/at32f403a_407_crm.c ****   {
 208              		.loc 1 146 0 is_stmt 0 discriminator 1
 209 0012 B4F5405F 		cmp	r4, #12288
 210 0016 F6D3     		bcc	.L18
 211              	.L17:
 149:/home/y/github/EmbeddedSoftwareMCU/Libraries/AT32/drivers/src/at32f403a_407_crm.c ****   }
 150:/home/y/github/EmbeddedSoftwareMCU/Libraries/AT32/drivers/src/at32f403a_407_crm.c **** 
 151:/home/y/github/EmbeddedSoftwareMCU/Libraries/AT32/drivers/src/at32f403a_407_crm.c ****   if(crm_flag_get(CRM_HEXT_STABLE_FLAG) != SET)
 212              		.loc 1 151 0 is_stmt 1
 213 0018 1120     		movs	r0, #17
 214 001a FFF7FEFF 		bl	crm_flag_get
 215              	.LVL9:
 216 001e 0128     		cmp	r0, #1
 217 0020 01D0     		beq	.L20
 152:/home/y/github/EmbeddedSoftwareMCU/Libraries/AT32/drivers/src/at32f403a_407_crm.c ****   {
 153:/home/y/github/EmbeddedSoftwareMCU/Libraries/AT32/drivers/src/at32f403a_407_crm.c ****     status = ERROR;
 218              		.loc 1 153 0
 219 0022 0020     		movs	r0, #0
 220 0024 10BD     		pop	{r4, pc}
 221              	.LVL10:
 222              	.L20:
 154:/home/y/github/EmbeddedSoftwareMCU/Libraries/AT32/drivers/src/at32f403a_407_crm.c ****   }
 155:/home/y/github/EmbeddedSoftwareMCU/Libraries/AT32/drivers/src/at32f403a_407_crm.c ****   else
 156:/home/y/github/EmbeddedSoftwareMCU/Libraries/AT32/drivers/src/at32f403a_407_crm.c ****   {
 157:/home/y/github/EmbeddedSoftwareMCU/Libraries/AT32/drivers/src/at32f403a_407_crm.c ****     status = SUCCESS;
 223              		.loc 1 157 0
 224 0026 0120     		movs	r0, #1
 225              	.LVL11:
 158:/home/y/github/EmbeddedSoftwareMCU/Libraries/AT32/drivers/src/at32f403a_407_crm.c ****   }
 159:/home/y/github/EmbeddedSoftwareMCU/Libraries/AT32/drivers/src/at32f403a_407_crm.c **** 
 160:/home/y/github/EmbeddedSoftwareMCU/Libraries/AT32/drivers/src/at32f403a_407_crm.c ****   return status;
 161:/home/y/github/EmbeddedSoftwareMCU/Libraries/AT32/drivers/src/at32f403a_407_crm.c **** }
 226              		.loc 1 161 0
 227 0028 10BD     		pop	{r4, pc}
 228              		.cfi_endproc
 229              	.LFE137:
 231              		.section	.text.crm_hick_clock_trimming_set,"ax",%progbits
 232              		.align	1
 233              		.global	crm_hick_clock_trimming_set
 234              		.syntax unified
 235              		.thumb
 236              		.thumb_func
 237              		.fpu softvfp
 239              	crm_hick_clock_trimming_set:
 240              	.LFB138:
 162:/home/y/github/EmbeddedSoftwareMCU/Libraries/AT32/drivers/src/at32f403a_407_crm.c **** 
 163:/home/y/github/EmbeddedSoftwareMCU/Libraries/AT32/drivers/src/at32f403a_407_crm.c **** /**
 164:/home/y/github/EmbeddedSoftwareMCU/Libraries/AT32/drivers/src/at32f403a_407_crm.c ****   * @brief  set the hick trimming value
 165:/home/y/github/EmbeddedSoftwareMCU/Libraries/AT32/drivers/src/at32f403a_407_crm.c ****   * @param  trim_value (0x00~0x3F)
 166:/home/y/github/EmbeddedSoftwareMCU/Libraries/AT32/drivers/src/at32f403a_407_crm.c ****   * @retval none
 167:/home/y/github/EmbeddedSoftwareMCU/Libraries/AT32/drivers/src/at32f403a_407_crm.c ****   */
 168:/home/y/github/EmbeddedSoftwareMCU/Libraries/AT32/drivers/src/at32f403a_407_crm.c **** void crm_hick_clock_trimming_set(uint8_t trim_value)
ARM GAS  /tmp/ccn3b2SJ.s 			page 8


 169:/home/y/github/EmbeddedSoftwareMCU/Libraries/AT32/drivers/src/at32f403a_407_crm.c **** {
 241              		.loc 1 169 0
 242              		.cfi_startproc
 243              		@ args = 0, pretend = 0, frame = 0
 244              		@ frame_needed = 0, uses_anonymous_args = 0
 245              		@ link register save eliminated.
 246              	.LVL12:
 170:/home/y/github/EmbeddedSoftwareMCU/Libraries/AT32/drivers/src/at32f403a_407_crm.c ****   CRM->ctrl_bit.hicktrim = trim_value;
 247              		.loc 1 170 0
 248 0000 024B     		ldr	r3, .L23
 249 0002 1A68     		ldr	r2, [r3]
 250 0004 60F38702 		bfi	r2, r0, #2, #6
 251 0008 1A60     		str	r2, [r3]
 252 000a 7047     		bx	lr
 253              	.L24:
 254              		.align	2
 255              	.L23:
 256 000c 00100240 		.word	1073876992
 257              		.cfi_endproc
 258              	.LFE138:
 260              		.section	.text.crm_hick_clock_calibration_set,"ax",%progbits
 261              		.align	1
 262              		.global	crm_hick_clock_calibration_set
 263              		.syntax unified
 264              		.thumb
 265              		.thumb_func
 266              		.fpu softvfp
 268              	crm_hick_clock_calibration_set:
 269              	.LFB139:
 171:/home/y/github/EmbeddedSoftwareMCU/Libraries/AT32/drivers/src/at32f403a_407_crm.c **** }
 172:/home/y/github/EmbeddedSoftwareMCU/Libraries/AT32/drivers/src/at32f403a_407_crm.c **** 
 173:/home/y/github/EmbeddedSoftwareMCU/Libraries/AT32/drivers/src/at32f403a_407_crm.c **** /**
 174:/home/y/github/EmbeddedSoftwareMCU/Libraries/AT32/drivers/src/at32f403a_407_crm.c ****   * @brief  set the crm calibration value
 175:/home/y/github/EmbeddedSoftwareMCU/Libraries/AT32/drivers/src/at32f403a_407_crm.c ****   * @param  cali_value (0x00~0xFF)
 176:/home/y/github/EmbeddedSoftwareMCU/Libraries/AT32/drivers/src/at32f403a_407_crm.c ****   * @retval none
 177:/home/y/github/EmbeddedSoftwareMCU/Libraries/AT32/drivers/src/at32f403a_407_crm.c ****   */
 178:/home/y/github/EmbeddedSoftwareMCU/Libraries/AT32/drivers/src/at32f403a_407_crm.c **** void crm_hick_clock_calibration_set(uint8_t cali_value)
 179:/home/y/github/EmbeddedSoftwareMCU/Libraries/AT32/drivers/src/at32f403a_407_crm.c **** {
 270              		.loc 1 179 0
 271              		.cfi_startproc
 272              		@ args = 0, pretend = 0, frame = 0
 273              		@ frame_needed = 0, uses_anonymous_args = 0
 274              		@ link register save eliminated.
 275              	.LVL13:
 180:/home/y/github/EmbeddedSoftwareMCU/Libraries/AT32/drivers/src/at32f403a_407_crm.c ****   /* enable write hick calibration */
 181:/home/y/github/EmbeddedSoftwareMCU/Libraries/AT32/drivers/src/at32f403a_407_crm.c ****   CRM->misc1_bit.hickcal_key = 0x5A;
 276              		.loc 1 181 0
 277 0000 074B     		ldr	r3, .L26
 278 0002 1A6B     		ldr	r2, [r3, #48]
 279 0004 5A21     		movs	r1, #90
 280 0006 61F30702 		bfi	r2, r1, #0, #8
 281 000a 1A63     		str	r2, [r3, #48]
 182:/home/y/github/EmbeddedSoftwareMCU/Libraries/AT32/drivers/src/at32f403a_407_crm.c **** 
 183:/home/y/github/EmbeddedSoftwareMCU/Libraries/AT32/drivers/src/at32f403a_407_crm.c ****   /* write hick calibration value */
 184:/home/y/github/EmbeddedSoftwareMCU/Libraries/AT32/drivers/src/at32f403a_407_crm.c ****   CRM->ctrl_bit.hickcal = cali_value;
 282              		.loc 1 184 0
 283 000c 1A68     		ldr	r2, [r3]
ARM GAS  /tmp/ccn3b2SJ.s 			page 9


 284 000e 60F30F22 		bfi	r2, r0, #8, #8
 285 0012 1A60     		str	r2, [r3]
 185:/home/y/github/EmbeddedSoftwareMCU/Libraries/AT32/drivers/src/at32f403a_407_crm.c **** 
 186:/home/y/github/EmbeddedSoftwareMCU/Libraries/AT32/drivers/src/at32f403a_407_crm.c ****   /* disable write hick calibration */
 187:/home/y/github/EmbeddedSoftwareMCU/Libraries/AT32/drivers/src/at32f403a_407_crm.c ****   CRM->misc1_bit.hickcal_key = 0x0;
 286              		.loc 1 187 0
 287 0014 1A6B     		ldr	r2, [r3, #48]
 288 0016 6FF30702 		bfc	r2, #0, #8
 289 001a 1A63     		str	r2, [r3, #48]
 290 001c 7047     		bx	lr
 291              	.L27:
 292 001e 00BF     		.align	2
 293              	.L26:
 294 0020 00100240 		.word	1073876992
 295              		.cfi_endproc
 296              	.LFE139:
 298              		.section	.text.crm_periph_clock_enable,"ax",%progbits
 299              		.align	1
 300              		.global	crm_periph_clock_enable
 301              		.syntax unified
 302              		.thumb
 303              		.thumb_func
 304              		.fpu softvfp
 306              	crm_periph_clock_enable:
 307              	.LFB140:
 188:/home/y/github/EmbeddedSoftwareMCU/Libraries/AT32/drivers/src/at32f403a_407_crm.c **** }
 189:/home/y/github/EmbeddedSoftwareMCU/Libraries/AT32/drivers/src/at32f403a_407_crm.c **** 
 190:/home/y/github/EmbeddedSoftwareMCU/Libraries/AT32/drivers/src/at32f403a_407_crm.c **** /**
 191:/home/y/github/EmbeddedSoftwareMCU/Libraries/AT32/drivers/src/at32f403a_407_crm.c ****   * @brief  enable or disable the peripheral clock
 192:/home/y/github/EmbeddedSoftwareMCU/Libraries/AT32/drivers/src/at32f403a_407_crm.c ****   * @param  value
 193:/home/y/github/EmbeddedSoftwareMCU/Libraries/AT32/drivers/src/at32f403a_407_crm.c ****   *         this parameter can be one of the following values:
 194:/home/y/github/EmbeddedSoftwareMCU/Libraries/AT32/drivers/src/at32f403a_407_crm.c ****   *         - CRM_DMA1_PERIPH_CLOCK         - CRM_DMA2_PERIPH_CLOCK         - CRM_CRC_PERIPH_CLOCK 
 195:/home/y/github/EmbeddedSoftwareMCU/Libraries/AT32/drivers/src/at32f403a_407_crm.c ****   *         - CRM_SDIO1_PERIPH_CLOCK        - CRM_SDIO2_PERIPH_CLOCK        - CRM_EMAC_PERIPH_CLOCK
 196:/home/y/github/EmbeddedSoftwareMCU/Libraries/AT32/drivers/src/at32f403a_407_crm.c ****   *         - CRM_EMACRX_PERIPH_CLOCK       - CRM_EMACPTP_PERIPH_CLOCK      - CRM_IOMUX_PERIPH_CLOC
 197:/home/y/github/EmbeddedSoftwareMCU/Libraries/AT32/drivers/src/at32f403a_407_crm.c ****   *         - CRM_GPIOB_PERIPH_CLOCK        - CRM_GPIOC_PERIPH_CLOCK        - CRM_GPIOD_PERIPH_CLOC
 198:/home/y/github/EmbeddedSoftwareMCU/Libraries/AT32/drivers/src/at32f403a_407_crm.c ****   *         - CRM_ADC1_PERIPH_CLOCK         - CRM_ADC2_PERIPH_CLOCK         - CRM_TMR1_PERIPH_CLOCK
 199:/home/y/github/EmbeddedSoftwareMCU/Libraries/AT32/drivers/src/at32f403a_407_crm.c ****   *         - CRM_TMR8_PERIPH_CLOCK         - CRM_USART1_PERIPH_CLOCK       - CRM_ADC3_PERIPH_CLOCK
 200:/home/y/github/EmbeddedSoftwareMCU/Libraries/AT32/drivers/src/at32f403a_407_crm.c ****   *         - CRM_TMR10_PERIPH_CLOCK        - CRM_TMR11_PERIPH_CLOCK        - CRM_ACC_PERIPH_CLOCK 
 201:/home/y/github/EmbeddedSoftwareMCU/Libraries/AT32/drivers/src/at32f403a_407_crm.c ****   *         - CRM_USART6_PERIPH_CLOCK       - CRM_UART7_PERIPH_CLOCK        - CRM_UART8_PERIPH_CLOC
 202:/home/y/github/EmbeddedSoftwareMCU/Libraries/AT32/drivers/src/at32f403a_407_crm.c ****   *         - CRM_TMR3_PERIPH_CLOCK         - CRM_TMR4_PERIPH_CLOCK         - CRM_TMR5_PERIPH_CLOCK
 203:/home/y/github/EmbeddedSoftwareMCU/Libraries/AT32/drivers/src/at32f403a_407_crm.c ****   *         - CRM_TMR7_PERIPH_CLOCK         - CRM_TMR12_PERIPH_CLOCK        - CRM_TMR13_PERIPH_CLOC
 204:/home/y/github/EmbeddedSoftwareMCU/Libraries/AT32/drivers/src/at32f403a_407_crm.c ****   *         - CRM_WWDT_PERIPH_CLOCK         - CRM_SPI2_PERIPH_CLOCK         - CRM_SPI3_PERIPH_CLOCK
 205:/home/y/github/EmbeddedSoftwareMCU/Libraries/AT32/drivers/src/at32f403a_407_crm.c ****   *         - CRM_USART2_PERIPH_CLOCK       - CRM_USART3_PERIPH_CLOCK       - CRM_UART4_PERIPH_CLOC
 206:/home/y/github/EmbeddedSoftwareMCU/Libraries/AT32/drivers/src/at32f403a_407_crm.c ****   *         - CRM_I2C1_PERIPH_CLOCK         - CRM_I2C2_PERIPH_CLOCK         - CRM_USB_PERIPH_CLOCK 
 207:/home/y/github/EmbeddedSoftwareMCU/Libraries/AT32/drivers/src/at32f403a_407_crm.c ****   *         - CRM_CAN2_PERIPH_CLOCK         - CRM_BPR_PERIPH_CLOCK          - CRM_PWC_PERIPH_CLOCK 
 208:/home/y/github/EmbeddedSoftwareMCU/Libraries/AT32/drivers/src/at32f403a_407_crm.c ****   * @param  new_state (TRUE or FALSE)
 209:/home/y/github/EmbeddedSoftwareMCU/Libraries/AT32/drivers/src/at32f403a_407_crm.c ****   * @retval none
 210:/home/y/github/EmbeddedSoftwareMCU/Libraries/AT32/drivers/src/at32f403a_407_crm.c ****   */
 211:/home/y/github/EmbeddedSoftwareMCU/Libraries/AT32/drivers/src/at32f403a_407_crm.c **** void crm_periph_clock_enable(crm_periph_clock_type value, confirm_state new_state)
 212:/home/y/github/EmbeddedSoftwareMCU/Libraries/AT32/drivers/src/at32f403a_407_crm.c **** {
 308              		.loc 1 212 0
 309              		.cfi_startproc
 310              		@ args = 0, pretend = 0, frame = 0
 311              		@ frame_needed = 0, uses_anonymous_args = 0
 312              		@ link register save eliminated.
 313              	.LVL14:
 213:/home/y/github/EmbeddedSoftwareMCU/Libraries/AT32/drivers/src/at32f403a_407_crm.c ****   /* enable periph clock */
ARM GAS  /tmp/ccn3b2SJ.s 			page 10


 214:/home/y/github/EmbeddedSoftwareMCU/Libraries/AT32/drivers/src/at32f403a_407_crm.c ****   if(TRUE == new_state)
 314              		.loc 1 214 0
 315 0000 0129     		cmp	r1, #1
 316 0002 0ED0     		beq	.L31
 215:/home/y/github/EmbeddedSoftwareMCU/Libraries/AT32/drivers/src/at32f403a_407_crm.c ****   {
 216:/home/y/github/EmbeddedSoftwareMCU/Libraries/AT32/drivers/src/at32f403a_407_crm.c ****     CRM_REG(value) |= CRM_REG_BIT(value);
 217:/home/y/github/EmbeddedSoftwareMCU/Libraries/AT32/drivers/src/at32f403a_407_crm.c ****   }
 218:/home/y/github/EmbeddedSoftwareMCU/Libraries/AT32/drivers/src/at32f403a_407_crm.c ****   /* disable periph clock */
 219:/home/y/github/EmbeddedSoftwareMCU/Libraries/AT32/drivers/src/at32f403a_407_crm.c ****   else
 220:/home/y/github/EmbeddedSoftwareMCU/Libraries/AT32/drivers/src/at32f403a_407_crm.c ****   {
 221:/home/y/github/EmbeddedSoftwareMCU/Libraries/AT32/drivers/src/at32f403a_407_crm.c ****     CRM_REG(value) &= ~(CRM_REG_BIT(value));
 317              		.loc 1 221 0
 318 0004 030C     		lsrs	r3, r0, #16
 319 0006 03F18043 		add	r3, r3, #1073741824
 320 000a 03F50433 		add	r3, r3, #135168
 321 000e 1A68     		ldr	r2, [r3]
 322 0010 00F01F00 		and	r0, r0, #31
 323              	.LVL15:
 324 0014 0121     		movs	r1, #1
 325              	.LVL16:
 326 0016 01FA00F0 		lsl	r0, r1, r0
 327 001a 22EA0000 		bic	r0, r2, r0
 328 001e 1860     		str	r0, [r3]
 329 0020 7047     		bx	lr
 330              	.LVL17:
 331              	.L31:
 216:/home/y/github/EmbeddedSoftwareMCU/Libraries/AT32/drivers/src/at32f403a_407_crm.c ****   }
 332              		.loc 1 216 0
 333 0022 030C     		lsrs	r3, r0, #16
 334 0024 03F18043 		add	r3, r3, #1073741824
 335 0028 03F50433 		add	r3, r3, #135168
 336 002c 1A68     		ldr	r2, [r3]
 337 002e 00F01F00 		and	r0, r0, #31
 338              	.LVL18:
 339 0032 01FA00F0 		lsl	r0, r1, r0
 340 0036 1043     		orrs	r0, r0, r2
 341 0038 1860     		str	r0, [r3]
 342 003a 7047     		bx	lr
 343              		.cfi_endproc
 344              	.LFE140:
 346              		.section	.text.crm_periph_reset,"ax",%progbits
 347              		.align	1
 348              		.global	crm_periph_reset
 349              		.syntax unified
 350              		.thumb
 351              		.thumb_func
 352              		.fpu softvfp
 354              	crm_periph_reset:
 355              	.LFB141:
 222:/home/y/github/EmbeddedSoftwareMCU/Libraries/AT32/drivers/src/at32f403a_407_crm.c ****   }
 223:/home/y/github/EmbeddedSoftwareMCU/Libraries/AT32/drivers/src/at32f403a_407_crm.c **** }
 224:/home/y/github/EmbeddedSoftwareMCU/Libraries/AT32/drivers/src/at32f403a_407_crm.c **** 
 225:/home/y/github/EmbeddedSoftwareMCU/Libraries/AT32/drivers/src/at32f403a_407_crm.c **** /**
 226:/home/y/github/EmbeddedSoftwareMCU/Libraries/AT32/drivers/src/at32f403a_407_crm.c ****   * @brief  enable or disable the peripheral reset
 227:/home/y/github/EmbeddedSoftwareMCU/Libraries/AT32/drivers/src/at32f403a_407_crm.c ****   * @param  value
 228:/home/y/github/EmbeddedSoftwareMCU/Libraries/AT32/drivers/src/at32f403a_407_crm.c ****   *         this parameter can be one of the following values:
 229:/home/y/github/EmbeddedSoftwareMCU/Libraries/AT32/drivers/src/at32f403a_407_crm.c ****   *         - CRM_EMAC_PERIPH_RESET         - CRM_IOMUX_PERIPH_RESET        - CRM_EXINT_PERIPH_RESE
ARM GAS  /tmp/ccn3b2SJ.s 			page 11


 230:/home/y/github/EmbeddedSoftwareMCU/Libraries/AT32/drivers/src/at32f403a_407_crm.c ****   *         - CRM_GPIOB_PERIPH_RESET        - CRM_GPIOC_PERIPH_RESET        - CRM_GPIOD_PERIPH_RESE
 231:/home/y/github/EmbeddedSoftwareMCU/Libraries/AT32/drivers/src/at32f403a_407_crm.c ****   *         - CRM_ADC1_PERIPH_RESET         - CRM_ADC2_PERIPH_RESET         - CRM_TMR1_PERIPH_RESET
 232:/home/y/github/EmbeddedSoftwareMCU/Libraries/AT32/drivers/src/at32f403a_407_crm.c ****   *         - CRM_TMR8_PERIPH_RESET         - CRM_USART1_PERIPH_RESET       - CRM_ADC3_PERIPH_RESET
 233:/home/y/github/EmbeddedSoftwareMCU/Libraries/AT32/drivers/src/at32f403a_407_crm.c ****   *         - CRM_TMR10_PERIPH_RESET        - CRM_TMR11_PERIPH_RESET        - CRM_ACC_PERIPH_RESET 
 234:/home/y/github/EmbeddedSoftwareMCU/Libraries/AT32/drivers/src/at32f403a_407_crm.c ****   *         - CRM_USART6_PERIPH_RESET       - CRM_UART7_PERIPH_RESET        - CRM_UART8_PERIPH_RESE
 235:/home/y/github/EmbeddedSoftwareMCU/Libraries/AT32/drivers/src/at32f403a_407_crm.c ****   *         - CRM_TMR3_PERIPH_RESET         - CRM_TMR4_PERIPH_RESET         - CRM_TMR5_PERIPH_RESET
 236:/home/y/github/EmbeddedSoftwareMCU/Libraries/AT32/drivers/src/at32f403a_407_crm.c ****   *         - CRM_TMR7_PERIPH_RESET         - CRM_TMR12_PERIPH_RESET        - CRM_TMR13_PERIPH_RESE
 237:/home/y/github/EmbeddedSoftwareMCU/Libraries/AT32/drivers/src/at32f403a_407_crm.c ****   *         - CRM_WWDT_PERIPH_RESET         - CRM_SPI2_PERIPH_RESET         - CRM_SPI3_PERIPH_RESET
 238:/home/y/github/EmbeddedSoftwareMCU/Libraries/AT32/drivers/src/at32f403a_407_crm.c ****   *         - CRM_USART2_PERIPH_RESET       - CRM_USART3_PERIPH_RESET       - CRM_UART4_PERIPH_RESE
 239:/home/y/github/EmbeddedSoftwareMCU/Libraries/AT32/drivers/src/at32f403a_407_crm.c ****   *         - CRM_I2C1_PERIPH_RESET         - CRM_I2C2_PERIPH_RESET         - CRM_USB_PERIPH_RESET 
 240:/home/y/github/EmbeddedSoftwareMCU/Libraries/AT32/drivers/src/at32f403a_407_crm.c ****   *         - CRM_CAN2_PERIPH_RESET         - CRM_BPR_PERIPH_RESET          - CRM_PWC_PERIPH_RESET 
 241:/home/y/github/EmbeddedSoftwareMCU/Libraries/AT32/drivers/src/at32f403a_407_crm.c ****   * @param  new_state (TRUE or FALSE)
 242:/home/y/github/EmbeddedSoftwareMCU/Libraries/AT32/drivers/src/at32f403a_407_crm.c ****   * @retval none
 243:/home/y/github/EmbeddedSoftwareMCU/Libraries/AT32/drivers/src/at32f403a_407_crm.c ****   */
 244:/home/y/github/EmbeddedSoftwareMCU/Libraries/AT32/drivers/src/at32f403a_407_crm.c **** void crm_periph_reset(crm_periph_reset_type value, confirm_state new_state)
 245:/home/y/github/EmbeddedSoftwareMCU/Libraries/AT32/drivers/src/at32f403a_407_crm.c **** {
 356              		.loc 1 245 0
 357              		.cfi_startproc
 358              		@ args = 0, pretend = 0, frame = 0
 359              		@ frame_needed = 0, uses_anonymous_args = 0
 360              		@ link register save eliminated.
 361              	.LVL19:
 246:/home/y/github/EmbeddedSoftwareMCU/Libraries/AT32/drivers/src/at32f403a_407_crm.c ****   /* enable periph reset */
 247:/home/y/github/EmbeddedSoftwareMCU/Libraries/AT32/drivers/src/at32f403a_407_crm.c ****   if(new_state == TRUE)
 362              		.loc 1 247 0
 363 0000 0129     		cmp	r1, #1
 364 0002 0ED0     		beq	.L35
 248:/home/y/github/EmbeddedSoftwareMCU/Libraries/AT32/drivers/src/at32f403a_407_crm.c ****   {
 249:/home/y/github/EmbeddedSoftwareMCU/Libraries/AT32/drivers/src/at32f403a_407_crm.c ****     CRM_REG(value) |= (CRM_REG_BIT(value));
 250:/home/y/github/EmbeddedSoftwareMCU/Libraries/AT32/drivers/src/at32f403a_407_crm.c ****   }
 251:/home/y/github/EmbeddedSoftwareMCU/Libraries/AT32/drivers/src/at32f403a_407_crm.c ****   /* disable periph reset */
 252:/home/y/github/EmbeddedSoftwareMCU/Libraries/AT32/drivers/src/at32f403a_407_crm.c ****   else
 253:/home/y/github/EmbeddedSoftwareMCU/Libraries/AT32/drivers/src/at32f403a_407_crm.c ****   {
 254:/home/y/github/EmbeddedSoftwareMCU/Libraries/AT32/drivers/src/at32f403a_407_crm.c ****     CRM_REG(value) &= ~(CRM_REG_BIT(value));
 365              		.loc 1 254 0
 366 0004 030C     		lsrs	r3, r0, #16
 367 0006 03F18043 		add	r3, r3, #1073741824
 368 000a 03F50433 		add	r3, r3, #135168
 369 000e 1A68     		ldr	r2, [r3]
 370 0010 00F01F00 		and	r0, r0, #31
 371              	.LVL20:
 372 0014 0121     		movs	r1, #1
 373              	.LVL21:
 374 0016 01FA00F0 		lsl	r0, r1, r0
 375 001a 22EA0000 		bic	r0, r2, r0
 376 001e 1860     		str	r0, [r3]
 377 0020 7047     		bx	lr
 378              	.LVL22:
 379              	.L35:
 249:/home/y/github/EmbeddedSoftwareMCU/Libraries/AT32/drivers/src/at32f403a_407_crm.c ****   }
 380              		.loc 1 249 0
 381 0022 030C     		lsrs	r3, r0, #16
 382 0024 03F18043 		add	r3, r3, #1073741824
 383 0028 03F50433 		add	r3, r3, #135168
 384 002c 1A68     		ldr	r2, [r3]
 385 002e 00F01F00 		and	r0, r0, #31
 386              	.LVL23:
ARM GAS  /tmp/ccn3b2SJ.s 			page 12


 387 0032 01FA00F0 		lsl	r0, r1, r0
 388 0036 1043     		orrs	r0, r0, r2
 389 0038 1860     		str	r0, [r3]
 390 003a 7047     		bx	lr
 391              		.cfi_endproc
 392              	.LFE141:
 394              		.section	.text.crm_periph_sleep_mode_clock_enable,"ax",%progbits
 395              		.align	1
 396              		.global	crm_periph_sleep_mode_clock_enable
 397              		.syntax unified
 398              		.thumb
 399              		.thumb_func
 400              		.fpu softvfp
 402              	crm_periph_sleep_mode_clock_enable:
 403              	.LFB142:
 255:/home/y/github/EmbeddedSoftwareMCU/Libraries/AT32/drivers/src/at32f403a_407_crm.c ****   }
 256:/home/y/github/EmbeddedSoftwareMCU/Libraries/AT32/drivers/src/at32f403a_407_crm.c **** }
 257:/home/y/github/EmbeddedSoftwareMCU/Libraries/AT32/drivers/src/at32f403a_407_crm.c **** 
 258:/home/y/github/EmbeddedSoftwareMCU/Libraries/AT32/drivers/src/at32f403a_407_crm.c **** /**
 259:/home/y/github/EmbeddedSoftwareMCU/Libraries/AT32/drivers/src/at32f403a_407_crm.c ****   * @brief  enable or disable the peripheral clock in sleep mode
 260:/home/y/github/EmbeddedSoftwareMCU/Libraries/AT32/drivers/src/at32f403a_407_crm.c ****   * @param  value
 261:/home/y/github/EmbeddedSoftwareMCU/Libraries/AT32/drivers/src/at32f403a_407_crm.c ****   *         this parameter can be one of the following values:
 262:/home/y/github/EmbeddedSoftwareMCU/Libraries/AT32/drivers/src/at32f403a_407_crm.c ****   *         - CRM_SRAM_PERIPH_CLOCK_SLEEP_MODE
 263:/home/y/github/EmbeddedSoftwareMCU/Libraries/AT32/drivers/src/at32f403a_407_crm.c ****   *         - CRM_FLASH_PERIPH_CLOCK_SLEEP_MODE
 264:/home/y/github/EmbeddedSoftwareMCU/Libraries/AT32/drivers/src/at32f403a_407_crm.c ****   * @param  new_state (TRUE or FALSE)
 265:/home/y/github/EmbeddedSoftwareMCU/Libraries/AT32/drivers/src/at32f403a_407_crm.c ****   * @retval none
 266:/home/y/github/EmbeddedSoftwareMCU/Libraries/AT32/drivers/src/at32f403a_407_crm.c ****   */
 267:/home/y/github/EmbeddedSoftwareMCU/Libraries/AT32/drivers/src/at32f403a_407_crm.c **** void crm_periph_sleep_mode_clock_enable(crm_periph_clock_sleepmd_type value, confirm_state new_stat
 268:/home/y/github/EmbeddedSoftwareMCU/Libraries/AT32/drivers/src/at32f403a_407_crm.c **** {
 404              		.loc 1 268 0
 405              		.cfi_startproc
 406              		@ args = 0, pretend = 0, frame = 0
 407              		@ frame_needed = 0, uses_anonymous_args = 0
 408              		@ link register save eliminated.
 409              	.LVL24:
 269:/home/y/github/EmbeddedSoftwareMCU/Libraries/AT32/drivers/src/at32f403a_407_crm.c ****   /* enable periph clock in sleep mode */
 270:/home/y/github/EmbeddedSoftwareMCU/Libraries/AT32/drivers/src/at32f403a_407_crm.c ****   if(new_state == TRUE)
 410              		.loc 1 270 0
 411 0000 0129     		cmp	r1, #1
 412 0002 0ED0     		beq	.L39
 271:/home/y/github/EmbeddedSoftwareMCU/Libraries/AT32/drivers/src/at32f403a_407_crm.c ****   {
 272:/home/y/github/EmbeddedSoftwareMCU/Libraries/AT32/drivers/src/at32f403a_407_crm.c ****     CRM_REG(value) |= (CRM_REG_BIT(value));
 273:/home/y/github/EmbeddedSoftwareMCU/Libraries/AT32/drivers/src/at32f403a_407_crm.c ****   }
 274:/home/y/github/EmbeddedSoftwareMCU/Libraries/AT32/drivers/src/at32f403a_407_crm.c ****   /* disable perph clock in sleep mode */
 275:/home/y/github/EmbeddedSoftwareMCU/Libraries/AT32/drivers/src/at32f403a_407_crm.c ****   else
 276:/home/y/github/EmbeddedSoftwareMCU/Libraries/AT32/drivers/src/at32f403a_407_crm.c ****   {
 277:/home/y/github/EmbeddedSoftwareMCU/Libraries/AT32/drivers/src/at32f403a_407_crm.c ****     CRM_REG(value) &= ~(CRM_REG_BIT(value));
 413              		.loc 1 277 0
 414 0004 030C     		lsrs	r3, r0, #16
 415 0006 03F18043 		add	r3, r3, #1073741824
 416 000a 03F50433 		add	r3, r3, #135168
 417 000e 1A68     		ldr	r2, [r3]
 418 0010 00F01F00 		and	r0, r0, #31
 419              	.LVL25:
 420 0014 0121     		movs	r1, #1
 421              	.LVL26:
 422 0016 01FA00F0 		lsl	r0, r1, r0
ARM GAS  /tmp/ccn3b2SJ.s 			page 13


 423 001a 22EA0000 		bic	r0, r2, r0
 424 001e 1860     		str	r0, [r3]
 425 0020 7047     		bx	lr
 426              	.LVL27:
 427              	.L39:
 272:/home/y/github/EmbeddedSoftwareMCU/Libraries/AT32/drivers/src/at32f403a_407_crm.c ****   }
 428              		.loc 1 272 0
 429 0022 030C     		lsrs	r3, r0, #16
 430 0024 03F18043 		add	r3, r3, #1073741824
 431 0028 03F50433 		add	r3, r3, #135168
 432 002c 1A68     		ldr	r2, [r3]
 433 002e 00F01F00 		and	r0, r0, #31
 434              	.LVL28:
 435 0032 01FA00F0 		lsl	r0, r1, r0
 436 0036 1043     		orrs	r0, r0, r2
 437 0038 1860     		str	r0, [r3]
 438 003a 7047     		bx	lr
 439              		.cfi_endproc
 440              	.LFE142:
 442              		.section	.text.crm_clock_source_enable,"ax",%progbits
 443              		.align	1
 444              		.global	crm_clock_source_enable
 445              		.syntax unified
 446              		.thumb
 447              		.thumb_func
 448              		.fpu softvfp
 450              	crm_clock_source_enable:
 451              	.LFB143:
 278:/home/y/github/EmbeddedSoftwareMCU/Libraries/AT32/drivers/src/at32f403a_407_crm.c ****   }
 279:/home/y/github/EmbeddedSoftwareMCU/Libraries/AT32/drivers/src/at32f403a_407_crm.c **** 
 280:/home/y/github/EmbeddedSoftwareMCU/Libraries/AT32/drivers/src/at32f403a_407_crm.c **** }
 281:/home/y/github/EmbeddedSoftwareMCU/Libraries/AT32/drivers/src/at32f403a_407_crm.c **** 
 282:/home/y/github/EmbeddedSoftwareMCU/Libraries/AT32/drivers/src/at32f403a_407_crm.c **** /**
 283:/home/y/github/EmbeddedSoftwareMCU/Libraries/AT32/drivers/src/at32f403a_407_crm.c ****   * @brief  enable or disable the crm clock source
 284:/home/y/github/EmbeddedSoftwareMCU/Libraries/AT32/drivers/src/at32f403a_407_crm.c ****   * @param  source
 285:/home/y/github/EmbeddedSoftwareMCU/Libraries/AT32/drivers/src/at32f403a_407_crm.c ****   *         this parameter can be one of the following values:
 286:/home/y/github/EmbeddedSoftwareMCU/Libraries/AT32/drivers/src/at32f403a_407_crm.c ****   *         - CRM_CLOCK_SOURCE_HICK
 287:/home/y/github/EmbeddedSoftwareMCU/Libraries/AT32/drivers/src/at32f403a_407_crm.c ****   *         - CRM_CLOCK_SOURCE_HEXT
 288:/home/y/github/EmbeddedSoftwareMCU/Libraries/AT32/drivers/src/at32f403a_407_crm.c ****   *         - CRM_CLOCK_SOURCE_PLL
 289:/home/y/github/EmbeddedSoftwareMCU/Libraries/AT32/drivers/src/at32f403a_407_crm.c ****   *         - CRM_CLOCK_SOURCE_LEXT
 290:/home/y/github/EmbeddedSoftwareMCU/Libraries/AT32/drivers/src/at32f403a_407_crm.c ****   *         - CRM_CLOCK_SOURCE_LICK
 291:/home/y/github/EmbeddedSoftwareMCU/Libraries/AT32/drivers/src/at32f403a_407_crm.c ****   * @param  new_state (TRUE or FALSE)
 292:/home/y/github/EmbeddedSoftwareMCU/Libraries/AT32/drivers/src/at32f403a_407_crm.c ****   * @retval none
 293:/home/y/github/EmbeddedSoftwareMCU/Libraries/AT32/drivers/src/at32f403a_407_crm.c ****   */
 294:/home/y/github/EmbeddedSoftwareMCU/Libraries/AT32/drivers/src/at32f403a_407_crm.c **** void crm_clock_source_enable(crm_clock_source_type source, confirm_state new_state)
 295:/home/y/github/EmbeddedSoftwareMCU/Libraries/AT32/drivers/src/at32f403a_407_crm.c **** {
 452              		.loc 1 295 0
 453              		.cfi_startproc
 454              		@ args = 0, pretend = 0, frame = 0
 455              		@ frame_needed = 0, uses_anonymous_args = 0
 456              		@ link register save eliminated.
 457              	.LVL29:
 296:/home/y/github/EmbeddedSoftwareMCU/Libraries/AT32/drivers/src/at32f403a_407_crm.c ****   switch(source)
 458              		.loc 1 296 0
 459 0000 0428     		cmp	r0, #4
 460 0002 21D8     		bhi	.L40
 461 0004 DFE800F0 		tbb	[pc, r0]
ARM GAS  /tmp/ccn3b2SJ.s 			page 14


 462              	.L43:
 463 0008 03       		.byte	(.L42-.L43)/2
 464 0009 09       		.byte	(.L44-.L43)/2
 465 000a 0F       		.byte	(.L45-.L43)/2
 466 000b 15       		.byte	(.L46-.L43)/2
 467 000c 1B       		.byte	(.L47-.L43)/2
 468 000d 00       		.p2align 1
 469              	.L42:
 297:/home/y/github/EmbeddedSoftwareMCU/Libraries/AT32/drivers/src/at32f403a_407_crm.c ****   {
 298:/home/y/github/EmbeddedSoftwareMCU/Libraries/AT32/drivers/src/at32f403a_407_crm.c ****     case CRM_CLOCK_SOURCE_HICK:
 299:/home/y/github/EmbeddedSoftwareMCU/Libraries/AT32/drivers/src/at32f403a_407_crm.c ****       CRM->ctrl_bit.hicken = new_state;
 470              		.loc 1 299 0
 471 000e 0F4B     		ldr	r3, .L48
 472 0010 1A68     		ldr	r2, [r3]
 473 0012 61F30002 		bfi	r2, r1, #0, #1
 474 0016 1A60     		str	r2, [r3]
 300:/home/y/github/EmbeddedSoftwareMCU/Libraries/AT32/drivers/src/at32f403a_407_crm.c ****       break;
 475              		.loc 1 300 0
 476 0018 7047     		bx	lr
 477              	.L44:
 301:/home/y/github/EmbeddedSoftwareMCU/Libraries/AT32/drivers/src/at32f403a_407_crm.c ****     case CRM_CLOCK_SOURCE_HEXT:
 302:/home/y/github/EmbeddedSoftwareMCU/Libraries/AT32/drivers/src/at32f403a_407_crm.c ****       CRM->ctrl_bit.hexten = new_state;
 478              		.loc 1 302 0
 479 001a 0C4B     		ldr	r3, .L48
 480 001c 1A68     		ldr	r2, [r3]
 481 001e 61F31042 		bfi	r2, r1, #16, #1
 482 0022 1A60     		str	r2, [r3]
 303:/home/y/github/EmbeddedSoftwareMCU/Libraries/AT32/drivers/src/at32f403a_407_crm.c ****       break;
 483              		.loc 1 303 0
 484 0024 7047     		bx	lr
 485              	.L45:
 304:/home/y/github/EmbeddedSoftwareMCU/Libraries/AT32/drivers/src/at32f403a_407_crm.c ****     case CRM_CLOCK_SOURCE_PLL:
 305:/home/y/github/EmbeddedSoftwareMCU/Libraries/AT32/drivers/src/at32f403a_407_crm.c ****       CRM->ctrl_bit.pllen = new_state;
 486              		.loc 1 305 0
 487 0026 094B     		ldr	r3, .L48
 488 0028 1A68     		ldr	r2, [r3]
 489 002a 61F31862 		bfi	r2, r1, #24, #1
 490 002e 1A60     		str	r2, [r3]
 306:/home/y/github/EmbeddedSoftwareMCU/Libraries/AT32/drivers/src/at32f403a_407_crm.c ****       break;
 491              		.loc 1 306 0
 492 0030 7047     		bx	lr
 493              	.L46:
 307:/home/y/github/EmbeddedSoftwareMCU/Libraries/AT32/drivers/src/at32f403a_407_crm.c ****     case CRM_CLOCK_SOURCE_LEXT:
 308:/home/y/github/EmbeddedSoftwareMCU/Libraries/AT32/drivers/src/at32f403a_407_crm.c ****       CRM->bpdc_bit.lexten = new_state;
 494              		.loc 1 308 0
 495 0032 064B     		ldr	r3, .L48
 496 0034 1A6A     		ldr	r2, [r3, #32]
 497 0036 61F30002 		bfi	r2, r1, #0, #1
 498 003a 1A62     		str	r2, [r3, #32]
 309:/home/y/github/EmbeddedSoftwareMCU/Libraries/AT32/drivers/src/at32f403a_407_crm.c ****       break;
 499              		.loc 1 309 0
 500 003c 7047     		bx	lr
 501              	.L47:
 310:/home/y/github/EmbeddedSoftwareMCU/Libraries/AT32/drivers/src/at32f403a_407_crm.c ****     case CRM_CLOCK_SOURCE_LICK:
 311:/home/y/github/EmbeddedSoftwareMCU/Libraries/AT32/drivers/src/at32f403a_407_crm.c ****       CRM->ctrlsts_bit.licken = new_state;
 502              		.loc 1 311 0
 503 003e 034B     		ldr	r3, .L48
ARM GAS  /tmp/ccn3b2SJ.s 			page 15


 504 0040 5A6A     		ldr	r2, [r3, #36]
 505 0042 61F30002 		bfi	r2, r1, #0, #1
 506 0046 5A62     		str	r2, [r3, #36]
 507              	.L40:
 508 0048 7047     		bx	lr
 509              	.L49:
 510 004a 00BF     		.align	2
 511              	.L48:
 512 004c 00100240 		.word	1073876992
 513              		.cfi_endproc
 514              	.LFE143:
 516              		.section	.text.crm_flag_clear,"ax",%progbits
 517              		.align	1
 518              		.global	crm_flag_clear
 519              		.syntax unified
 520              		.thumb
 521              		.thumb_func
 522              		.fpu softvfp
 524              	crm_flag_clear:
 525              	.LFB144:
 312:/home/y/github/EmbeddedSoftwareMCU/Libraries/AT32/drivers/src/at32f403a_407_crm.c ****       break;
 313:/home/y/github/EmbeddedSoftwareMCU/Libraries/AT32/drivers/src/at32f403a_407_crm.c ****     default:
 314:/home/y/github/EmbeddedSoftwareMCU/Libraries/AT32/drivers/src/at32f403a_407_crm.c ****       break;
 315:/home/y/github/EmbeddedSoftwareMCU/Libraries/AT32/drivers/src/at32f403a_407_crm.c ****   }
 316:/home/y/github/EmbeddedSoftwareMCU/Libraries/AT32/drivers/src/at32f403a_407_crm.c **** }
 317:/home/y/github/EmbeddedSoftwareMCU/Libraries/AT32/drivers/src/at32f403a_407_crm.c **** 
 318:/home/y/github/EmbeddedSoftwareMCU/Libraries/AT32/drivers/src/at32f403a_407_crm.c **** /**
 319:/home/y/github/EmbeddedSoftwareMCU/Libraries/AT32/drivers/src/at32f403a_407_crm.c ****   * @brief  clear the crm reset flags
 320:/home/y/github/EmbeddedSoftwareMCU/Libraries/AT32/drivers/src/at32f403a_407_crm.c ****   * @param  flag
 321:/home/y/github/EmbeddedSoftwareMCU/Libraries/AT32/drivers/src/at32f403a_407_crm.c ****   *         this parameter can be one of the following values:
 322:/home/y/github/EmbeddedSoftwareMCU/Libraries/AT32/drivers/src/at32f403a_407_crm.c ****   *         reset flag:
 323:/home/y/github/EmbeddedSoftwareMCU/Libraries/AT32/drivers/src/at32f403a_407_crm.c ****   *         - CRM_NRST_RESET_FLAG
 324:/home/y/github/EmbeddedSoftwareMCU/Libraries/AT32/drivers/src/at32f403a_407_crm.c ****   *         - CRM_POR_RESET_FLAG
 325:/home/y/github/EmbeddedSoftwareMCU/Libraries/AT32/drivers/src/at32f403a_407_crm.c ****   *         - CRM_SW_RESET_FLAG
 326:/home/y/github/EmbeddedSoftwareMCU/Libraries/AT32/drivers/src/at32f403a_407_crm.c ****   *         - CRM_WDT_RESET_FLAG
 327:/home/y/github/EmbeddedSoftwareMCU/Libraries/AT32/drivers/src/at32f403a_407_crm.c ****   *         - CRM_WWDT_RESET_FLAG
 328:/home/y/github/EmbeddedSoftwareMCU/Libraries/AT32/drivers/src/at32f403a_407_crm.c ****   *         - CRM_LOWPOWER_RESET_FLAG
 329:/home/y/github/EmbeddedSoftwareMCU/Libraries/AT32/drivers/src/at32f403a_407_crm.c ****   *         - CRM_ALL_RESET_FLAG
 330:/home/y/github/EmbeddedSoftwareMCU/Libraries/AT32/drivers/src/at32f403a_407_crm.c ****   *         interrupt flag:
 331:/home/y/github/EmbeddedSoftwareMCU/Libraries/AT32/drivers/src/at32f403a_407_crm.c ****   *         - CRM_LICK_READY_INT_FLAG
 332:/home/y/github/EmbeddedSoftwareMCU/Libraries/AT32/drivers/src/at32f403a_407_crm.c ****   *         - CRM_LEXT_READY_INT_FLAG
 333:/home/y/github/EmbeddedSoftwareMCU/Libraries/AT32/drivers/src/at32f403a_407_crm.c ****   *         - CRM_HICK_READY_INT_FLAG
 334:/home/y/github/EmbeddedSoftwareMCU/Libraries/AT32/drivers/src/at32f403a_407_crm.c ****   *         - CRM_HEXT_READY_INT_FLAG
 335:/home/y/github/EmbeddedSoftwareMCU/Libraries/AT32/drivers/src/at32f403a_407_crm.c ****   *         - CRM_PLL_READY_INT_FLAG
 336:/home/y/github/EmbeddedSoftwareMCU/Libraries/AT32/drivers/src/at32f403a_407_crm.c ****   *         - CRM_CLOCK_FAILURE_INT_FLAG
 337:/home/y/github/EmbeddedSoftwareMCU/Libraries/AT32/drivers/src/at32f403a_407_crm.c ****   * @retval none
 338:/home/y/github/EmbeddedSoftwareMCU/Libraries/AT32/drivers/src/at32f403a_407_crm.c ****   */
 339:/home/y/github/EmbeddedSoftwareMCU/Libraries/AT32/drivers/src/at32f403a_407_crm.c **** void crm_flag_clear(uint32_t flag)
 340:/home/y/github/EmbeddedSoftwareMCU/Libraries/AT32/drivers/src/at32f403a_407_crm.c **** {
 526              		.loc 1 340 0
 527              		.cfi_startproc
 528              		@ args = 0, pretend = 0, frame = 0
 529              		@ frame_needed = 0, uses_anonymous_args = 0
 530              		@ link register save eliminated.
 531              	.LVL30:
 341:/home/y/github/EmbeddedSoftwareMCU/Libraries/AT32/drivers/src/at32f403a_407_crm.c ****   switch(flag)
 532              		.loc 1 341 0
ARM GAS  /tmp/ccn3b2SJ.s 			page 16


 533 0000 244B     		ldr	r3, .L66
 534 0002 9842     		cmp	r0, r3
 535 0004 40D0     		beq	.L52
 536 0006 1AD8     		bhi	.L53
 537 0008 033B     		subs	r3, r3, #3
 538 000a 9842     		cmp	r0, r3
 539 000c 30D0     		beq	.L54
 540 000e 0BD9     		bls	.L62
 541 0010 214B     		ldr	r3, .L66+4
 542 0012 9842     		cmp	r0, r3
 543 0014 32D0     		beq	.L57
 544 0016 0133     		adds	r3, r3, #1
 545 0018 9842     		cmp	r0, r3
 546 001a 0FD1     		bne	.L63
 342:/home/y/github/EmbeddedSoftwareMCU/Libraries/AT32/drivers/src/at32f403a_407_crm.c ****   {
 343:/home/y/github/EmbeddedSoftwareMCU/Libraries/AT32/drivers/src/at32f403a_407_crm.c ****     case CRM_NRST_RESET_FLAG:
 344:/home/y/github/EmbeddedSoftwareMCU/Libraries/AT32/drivers/src/at32f403a_407_crm.c ****     case CRM_POR_RESET_FLAG:
 345:/home/y/github/EmbeddedSoftwareMCU/Libraries/AT32/drivers/src/at32f403a_407_crm.c ****     case CRM_SW_RESET_FLAG:
 346:/home/y/github/EmbeddedSoftwareMCU/Libraries/AT32/drivers/src/at32f403a_407_crm.c ****     case CRM_WDT_RESET_FLAG:
 347:/home/y/github/EmbeddedSoftwareMCU/Libraries/AT32/drivers/src/at32f403a_407_crm.c ****     case CRM_WWDT_RESET_FLAG:
 348:/home/y/github/EmbeddedSoftwareMCU/Libraries/AT32/drivers/src/at32f403a_407_crm.c ****     case CRM_LOWPOWER_RESET_FLAG:
 349:/home/y/github/EmbeddedSoftwareMCU/Libraries/AT32/drivers/src/at32f403a_407_crm.c ****     case CRM_ALL_RESET_FLAG:
 350:/home/y/github/EmbeddedSoftwareMCU/Libraries/AT32/drivers/src/at32f403a_407_crm.c ****       CRM->ctrlsts_bit.rstfc = TRUE;
 351:/home/y/github/EmbeddedSoftwareMCU/Libraries/AT32/drivers/src/at32f403a_407_crm.c ****       break;
 352:/home/y/github/EmbeddedSoftwareMCU/Libraries/AT32/drivers/src/at32f403a_407_crm.c ****     case CRM_LICK_READY_INT_FLAG:
 353:/home/y/github/EmbeddedSoftwareMCU/Libraries/AT32/drivers/src/at32f403a_407_crm.c ****       CRM->clkint_bit.lickstblfc = TRUE;
 354:/home/y/github/EmbeddedSoftwareMCU/Libraries/AT32/drivers/src/at32f403a_407_crm.c ****       break;
 355:/home/y/github/EmbeddedSoftwareMCU/Libraries/AT32/drivers/src/at32f403a_407_crm.c ****     case CRM_LEXT_READY_INT_FLAG:
 356:/home/y/github/EmbeddedSoftwareMCU/Libraries/AT32/drivers/src/at32f403a_407_crm.c ****       CRM->clkint_bit.lextstblfc = TRUE;
 357:/home/y/github/EmbeddedSoftwareMCU/Libraries/AT32/drivers/src/at32f403a_407_crm.c ****       break;
 358:/home/y/github/EmbeddedSoftwareMCU/Libraries/AT32/drivers/src/at32f403a_407_crm.c ****     case CRM_HICK_READY_INT_FLAG:
 359:/home/y/github/EmbeddedSoftwareMCU/Libraries/AT32/drivers/src/at32f403a_407_crm.c ****       CRM->clkint_bit.hickstblfc = TRUE;
 360:/home/y/github/EmbeddedSoftwareMCU/Libraries/AT32/drivers/src/at32f403a_407_crm.c ****       break;
 361:/home/y/github/EmbeddedSoftwareMCU/Libraries/AT32/drivers/src/at32f403a_407_crm.c ****     case CRM_HEXT_READY_INT_FLAG:
 362:/home/y/github/EmbeddedSoftwareMCU/Libraries/AT32/drivers/src/at32f403a_407_crm.c ****       CRM->clkint_bit.hextstblfc = TRUE;
 547              		.loc 1 362 0
 548 001c 1F4A     		ldr	r2, .L66+8
 549 001e 9368     		ldr	r3, [r2, #8]
 550 0020 43F40023 		orr	r3, r3, #524288
 551 0024 9360     		str	r3, [r2, #8]
 363:/home/y/github/EmbeddedSoftwareMCU/Libraries/AT32/drivers/src/at32f403a_407_crm.c ****       break;
 552              		.loc 1 363 0
 553 0026 7047     		bx	lr
 554              	.L62:
 341:/home/y/github/EmbeddedSoftwareMCU/Libraries/AT32/drivers/src/at32f403a_407_crm.c ****   switch(flag)
 555              		.loc 1 341 0
 556 0028 B0F5002F 		cmp	r0, #524288
 557 002c 05D1     		bne	.L64
 353:/home/y/github/EmbeddedSoftwareMCU/Libraries/AT32/drivers/src/at32f403a_407_crm.c ****       break;
 558              		.loc 1 353 0
 559 002e 1B4A     		ldr	r2, .L66+8
 560 0030 9368     		ldr	r3, [r2, #8]
 561 0032 43F48033 		orr	r3, r3, #65536
 562 0036 9360     		str	r3, [r2, #8]
 354:/home/y/github/EmbeddedSoftwareMCU/Libraries/AT32/drivers/src/at32f403a_407_crm.c ****     case CRM_LEXT_READY_INT_FLAG:
 563              		.loc 1 354 0
 564 0038 7047     		bx	lr
ARM GAS  /tmp/ccn3b2SJ.s 			page 17


 565              	.L64:
 566 003a 7047     		bx	lr
 567              	.L63:
 568 003c 7047     		bx	lr
 569              	.L53:
 341:/home/y/github/EmbeddedSoftwareMCU/Libraries/AT32/drivers/src/at32f403a_407_crm.c ****   {
 570              		.loc 1 341 0
 571 003e 184B     		ldr	r3, .L66+12
 572 0040 9842     		cmp	r0, r3
 573 0042 0FD0     		beq	.L59
 574 0044 09D8     		bhi	.L60
 575 0046 174B     		ldr	r3, .L66+16
 576 0048 9842     		cmp	r0, r3
 577 004a 05D1     		bne	.L65
 364:/home/y/github/EmbeddedSoftwareMCU/Libraries/AT32/drivers/src/at32f403a_407_crm.c ****     case CRM_PLL_READY_INT_FLAG:
 365:/home/y/github/EmbeddedSoftwareMCU/Libraries/AT32/drivers/src/at32f403a_407_crm.c ****       CRM->clkint_bit.pllstblfc = TRUE;
 366:/home/y/github/EmbeddedSoftwareMCU/Libraries/AT32/drivers/src/at32f403a_407_crm.c ****       break;
 367:/home/y/github/EmbeddedSoftwareMCU/Libraries/AT32/drivers/src/at32f403a_407_crm.c ****     case CRM_CLOCK_FAILURE_INT_FLAG:
 368:/home/y/github/EmbeddedSoftwareMCU/Libraries/AT32/drivers/src/at32f403a_407_crm.c ****       CRM->clkint_bit.cfdfc = TRUE;
 578              		.loc 1 368 0
 579 004c 134A     		ldr	r2, .L66+8
 580 004e 9368     		ldr	r3, [r2, #8]
 581 0050 43F40003 		orr	r3, r3, #8388608
 582 0054 9360     		str	r3, [r2, #8]
 583              	.LVL31:
 584              	.L50:
 585 0056 7047     		bx	lr
 586              	.LVL32:
 587              	.L65:
 588 0058 7047     		bx	lr
 589              	.L60:
 341:/home/y/github/EmbeddedSoftwareMCU/Libraries/AT32/drivers/src/at32f403a_407_crm.c ****   {
 590              		.loc 1 341 0
 591 005a A0F51010 		sub	r0, r0, #2359296
 592              	.LVL33:
 593 005e 1A38     		subs	r0, r0, #26
 594              	.LVL34:
 595 0060 0528     		cmp	r0, #5
 596 0062 F8D8     		bhi	.L50
 597              	.LVL35:
 598              	.L59:
 350:/home/y/github/EmbeddedSoftwareMCU/Libraries/AT32/drivers/src/at32f403a_407_crm.c ****       break;
 599              		.loc 1 350 0
 600 0064 0D4A     		ldr	r2, .L66+8
 601 0066 536A     		ldr	r3, [r2, #36]
 602 0068 43F08073 		orr	r3, r3, #16777216
 603 006c 5362     		str	r3, [r2, #36]
 351:/home/y/github/EmbeddedSoftwareMCU/Libraries/AT32/drivers/src/at32f403a_407_crm.c ****     case CRM_LICK_READY_INT_FLAG:
 604              		.loc 1 351 0
 605 006e 7047     		bx	lr
 606              	.LVL36:
 607              	.L54:
 356:/home/y/github/EmbeddedSoftwareMCU/Libraries/AT32/drivers/src/at32f403a_407_crm.c ****       break;
 608              		.loc 1 356 0
 609 0070 0A4A     		ldr	r2, .L66+8
 610 0072 9368     		ldr	r3, [r2, #8]
 611 0074 43F40033 		orr	r3, r3, #131072
ARM GAS  /tmp/ccn3b2SJ.s 			page 18


 612 0078 9360     		str	r3, [r2, #8]
 357:/home/y/github/EmbeddedSoftwareMCU/Libraries/AT32/drivers/src/at32f403a_407_crm.c ****     case CRM_HICK_READY_INT_FLAG:
 613              		.loc 1 357 0
 614 007a 7047     		bx	lr
 615              	.L57:
 359:/home/y/github/EmbeddedSoftwareMCU/Libraries/AT32/drivers/src/at32f403a_407_crm.c ****       break;
 616              		.loc 1 359 0
 617 007c 074A     		ldr	r2, .L66+8
 618 007e 9368     		ldr	r3, [r2, #8]
 619 0080 43F48023 		orr	r3, r3, #262144
 620 0084 9360     		str	r3, [r2, #8]
 360:/home/y/github/EmbeddedSoftwareMCU/Libraries/AT32/drivers/src/at32f403a_407_crm.c ****     case CRM_HEXT_READY_INT_FLAG:
 621              		.loc 1 360 0
 622 0086 7047     		bx	lr
 623              	.L52:
 365:/home/y/github/EmbeddedSoftwareMCU/Libraries/AT32/drivers/src/at32f403a_407_crm.c ****       break;
 624              		.loc 1 365 0
 625 0088 044A     		ldr	r2, .L66+8
 626 008a 9368     		ldr	r3, [r2, #8]
 627 008c 43F48013 		orr	r3, r3, #1048576
 628 0090 9360     		str	r3, [r2, #8]
 366:/home/y/github/EmbeddedSoftwareMCU/Libraries/AT32/drivers/src/at32f403a_407_crm.c ****     case CRM_CLOCK_FAILURE_INT_FLAG:
 629              		.loc 1 366 0
 630 0092 7047     		bx	lr
 631              	.L67:
 632              		.align	2
 633              	.L66:
 634 0094 04000800 		.word	524292
 635 0098 02000800 		.word	524290
 636 009c 00100240 		.word	1073876992
 637 00a0 18002400 		.word	2359320
 638 00a4 07000800 		.word	524295
 639              		.cfi_endproc
 640              	.LFE144:
 642              		.section	.text.crm_rtc_clock_select,"ax",%progbits
 643              		.align	1
 644              		.global	crm_rtc_clock_select
 645              		.syntax unified
 646              		.thumb
 647              		.thumb_func
 648              		.fpu softvfp
 650              	crm_rtc_clock_select:
 651              	.LFB145:
 369:/home/y/github/EmbeddedSoftwareMCU/Libraries/AT32/drivers/src/at32f403a_407_crm.c ****       break;
 370:/home/y/github/EmbeddedSoftwareMCU/Libraries/AT32/drivers/src/at32f403a_407_crm.c ****     default:
 371:/home/y/github/EmbeddedSoftwareMCU/Libraries/AT32/drivers/src/at32f403a_407_crm.c ****       break;
 372:/home/y/github/EmbeddedSoftwareMCU/Libraries/AT32/drivers/src/at32f403a_407_crm.c ****   }
 373:/home/y/github/EmbeddedSoftwareMCU/Libraries/AT32/drivers/src/at32f403a_407_crm.c **** }
 374:/home/y/github/EmbeddedSoftwareMCU/Libraries/AT32/drivers/src/at32f403a_407_crm.c **** 
 375:/home/y/github/EmbeddedSoftwareMCU/Libraries/AT32/drivers/src/at32f403a_407_crm.c **** /**
 376:/home/y/github/EmbeddedSoftwareMCU/Libraries/AT32/drivers/src/at32f403a_407_crm.c ****   * @brief  select rtc clock
 377:/home/y/github/EmbeddedSoftwareMCU/Libraries/AT32/drivers/src/at32f403a_407_crm.c ****   * @param  value
 378:/home/y/github/EmbeddedSoftwareMCU/Libraries/AT32/drivers/src/at32f403a_407_crm.c ****   *         this parameter can be one of the following values:
 379:/home/y/github/EmbeddedSoftwareMCU/Libraries/AT32/drivers/src/at32f403a_407_crm.c ****   *         - CRM_RTC_CLOCK_LEXT
 380:/home/y/github/EmbeddedSoftwareMCU/Libraries/AT32/drivers/src/at32f403a_407_crm.c ****   *         - CRM_RTC_CLOCK_LICK
 381:/home/y/github/EmbeddedSoftwareMCU/Libraries/AT32/drivers/src/at32f403a_407_crm.c ****   *         - CRM_RTC_CLOCK_HEXT_DIV
 382:/home/y/github/EmbeddedSoftwareMCU/Libraries/AT32/drivers/src/at32f403a_407_crm.c ****   * @retval none
ARM GAS  /tmp/ccn3b2SJ.s 			page 19


 383:/home/y/github/EmbeddedSoftwareMCU/Libraries/AT32/drivers/src/at32f403a_407_crm.c ****   */
 384:/home/y/github/EmbeddedSoftwareMCU/Libraries/AT32/drivers/src/at32f403a_407_crm.c **** void crm_rtc_clock_select(crm_rtc_clock_type value)
 385:/home/y/github/EmbeddedSoftwareMCU/Libraries/AT32/drivers/src/at32f403a_407_crm.c **** {
 652              		.loc 1 385 0
 653              		.cfi_startproc
 654              		@ args = 0, pretend = 0, frame = 0
 655              		@ frame_needed = 0, uses_anonymous_args = 0
 656              		@ link register save eliminated.
 657              	.LVL37:
 386:/home/y/github/EmbeddedSoftwareMCU/Libraries/AT32/drivers/src/at32f403a_407_crm.c ****   CRM->bpdc_bit.rtcsel = value;
 658              		.loc 1 386 0
 659 0000 024B     		ldr	r3, .L69
 660 0002 1A6A     		ldr	r2, [r3, #32]
 661 0004 60F30922 		bfi	r2, r0, #8, #2
 662 0008 1A62     		str	r2, [r3, #32]
 663 000a 7047     		bx	lr
 664              	.L70:
 665              		.align	2
 666              	.L69:
 667 000c 00100240 		.word	1073876992
 668              		.cfi_endproc
 669              	.LFE145:
 671              		.section	.text.crm_rtc_clock_enable,"ax",%progbits
 672              		.align	1
 673              		.global	crm_rtc_clock_enable
 674              		.syntax unified
 675              		.thumb
 676              		.thumb_func
 677              		.fpu softvfp
 679              	crm_rtc_clock_enable:
 680              	.LFB146:
 387:/home/y/github/EmbeddedSoftwareMCU/Libraries/AT32/drivers/src/at32f403a_407_crm.c **** }
 388:/home/y/github/EmbeddedSoftwareMCU/Libraries/AT32/drivers/src/at32f403a_407_crm.c **** 
 389:/home/y/github/EmbeddedSoftwareMCU/Libraries/AT32/drivers/src/at32f403a_407_crm.c **** /**
 390:/home/y/github/EmbeddedSoftwareMCU/Libraries/AT32/drivers/src/at32f403a_407_crm.c ****   * @brief  enable or disable rtc
 391:/home/y/github/EmbeddedSoftwareMCU/Libraries/AT32/drivers/src/at32f403a_407_crm.c ****   * @param  new_state (TRUE or FALSE)
 392:/home/y/github/EmbeddedSoftwareMCU/Libraries/AT32/drivers/src/at32f403a_407_crm.c ****   * @retval none
 393:/home/y/github/EmbeddedSoftwareMCU/Libraries/AT32/drivers/src/at32f403a_407_crm.c ****   */
 394:/home/y/github/EmbeddedSoftwareMCU/Libraries/AT32/drivers/src/at32f403a_407_crm.c **** void crm_rtc_clock_enable(confirm_state new_state)
 395:/home/y/github/EmbeddedSoftwareMCU/Libraries/AT32/drivers/src/at32f403a_407_crm.c **** {
 681              		.loc 1 395 0
 682              		.cfi_startproc
 683              		@ args = 0, pretend = 0, frame = 0
 684              		@ frame_needed = 0, uses_anonymous_args = 0
 685              		@ link register save eliminated.
 686              	.LVL38:
 396:/home/y/github/EmbeddedSoftwareMCU/Libraries/AT32/drivers/src/at32f403a_407_crm.c ****   CRM->bpdc_bit.rtcen = new_state;
 687              		.loc 1 396 0
 688 0000 024B     		ldr	r3, .L72
 689 0002 1A6A     		ldr	r2, [r3, #32]
 690 0004 60F3CF32 		bfi	r2, r0, #15, #1
 691 0008 1A62     		str	r2, [r3, #32]
 692 000a 7047     		bx	lr
 693              	.L73:
 694              		.align	2
 695              	.L72:
 696 000c 00100240 		.word	1073876992
ARM GAS  /tmp/ccn3b2SJ.s 			page 20


 697              		.cfi_endproc
 698              	.LFE146:
 700              		.section	.text.crm_ahb_div_set,"ax",%progbits
 701              		.align	1
 702              		.global	crm_ahb_div_set
 703              		.syntax unified
 704              		.thumb
 705              		.thumb_func
 706              		.fpu softvfp
 708              	crm_ahb_div_set:
 709              	.LFB147:
 397:/home/y/github/EmbeddedSoftwareMCU/Libraries/AT32/drivers/src/at32f403a_407_crm.c **** }
 398:/home/y/github/EmbeddedSoftwareMCU/Libraries/AT32/drivers/src/at32f403a_407_crm.c **** 
 399:/home/y/github/EmbeddedSoftwareMCU/Libraries/AT32/drivers/src/at32f403a_407_crm.c **** /**
 400:/home/y/github/EmbeddedSoftwareMCU/Libraries/AT32/drivers/src/at32f403a_407_crm.c ****   * @brief  set crm ahb division
 401:/home/y/github/EmbeddedSoftwareMCU/Libraries/AT32/drivers/src/at32f403a_407_crm.c ****   * @param  value
 402:/home/y/github/EmbeddedSoftwareMCU/Libraries/AT32/drivers/src/at32f403a_407_crm.c ****   *         this parameter can be one of the following values:
 403:/home/y/github/EmbeddedSoftwareMCU/Libraries/AT32/drivers/src/at32f403a_407_crm.c ****   *         - CRM_AHB_DIV_1
 404:/home/y/github/EmbeddedSoftwareMCU/Libraries/AT32/drivers/src/at32f403a_407_crm.c ****   *         - CRM_AHB_DIV_2
 405:/home/y/github/EmbeddedSoftwareMCU/Libraries/AT32/drivers/src/at32f403a_407_crm.c ****   *         - CRM_AHB_DIV_4
 406:/home/y/github/EmbeddedSoftwareMCU/Libraries/AT32/drivers/src/at32f403a_407_crm.c ****   *         - CRM_AHB_DIV_8
 407:/home/y/github/EmbeddedSoftwareMCU/Libraries/AT32/drivers/src/at32f403a_407_crm.c ****   *         - CRM_AHB_DIV_16
 408:/home/y/github/EmbeddedSoftwareMCU/Libraries/AT32/drivers/src/at32f403a_407_crm.c ****   *         - CRM_AHB_DIV_64
 409:/home/y/github/EmbeddedSoftwareMCU/Libraries/AT32/drivers/src/at32f403a_407_crm.c ****   *         - CRM_AHB_DIV_128
 410:/home/y/github/EmbeddedSoftwareMCU/Libraries/AT32/drivers/src/at32f403a_407_crm.c ****   *         - CRM_AHB_DIV_256
 411:/home/y/github/EmbeddedSoftwareMCU/Libraries/AT32/drivers/src/at32f403a_407_crm.c ****   *         - CRM_AHB_DIV_512
 412:/home/y/github/EmbeddedSoftwareMCU/Libraries/AT32/drivers/src/at32f403a_407_crm.c ****   * @retval none
 413:/home/y/github/EmbeddedSoftwareMCU/Libraries/AT32/drivers/src/at32f403a_407_crm.c ****   */
 414:/home/y/github/EmbeddedSoftwareMCU/Libraries/AT32/drivers/src/at32f403a_407_crm.c **** void crm_ahb_div_set(crm_ahb_div_type value)
 415:/home/y/github/EmbeddedSoftwareMCU/Libraries/AT32/drivers/src/at32f403a_407_crm.c **** {
 710              		.loc 1 415 0
 711              		.cfi_startproc
 712              		@ args = 0, pretend = 0, frame = 0
 713              		@ frame_needed = 0, uses_anonymous_args = 0
 714              		@ link register save eliminated.
 715              	.LVL39:
 416:/home/y/github/EmbeddedSoftwareMCU/Libraries/AT32/drivers/src/at32f403a_407_crm.c ****   CRM->cfg_bit.ahbdiv = value;
 716              		.loc 1 416 0
 717 0000 024B     		ldr	r3, .L75
 718 0002 5A68     		ldr	r2, [r3, #4]
 719 0004 60F30712 		bfi	r2, r0, #4, #4
 720 0008 5A60     		str	r2, [r3, #4]
 721 000a 7047     		bx	lr
 722              	.L76:
 723              		.align	2
 724              	.L75:
 725 000c 00100240 		.word	1073876992
 726              		.cfi_endproc
 727              	.LFE147:
 729              		.section	.text.crm_apb1_div_set,"ax",%progbits
 730              		.align	1
 731              		.global	crm_apb1_div_set
 732              		.syntax unified
 733              		.thumb
 734              		.thumb_func
 735              		.fpu softvfp
 737              	crm_apb1_div_set:
ARM GAS  /tmp/ccn3b2SJ.s 			page 21


 738              	.LFB148:
 417:/home/y/github/EmbeddedSoftwareMCU/Libraries/AT32/drivers/src/at32f403a_407_crm.c **** }
 418:/home/y/github/EmbeddedSoftwareMCU/Libraries/AT32/drivers/src/at32f403a_407_crm.c **** 
 419:/home/y/github/EmbeddedSoftwareMCU/Libraries/AT32/drivers/src/at32f403a_407_crm.c **** /**
 420:/home/y/github/EmbeddedSoftwareMCU/Libraries/AT32/drivers/src/at32f403a_407_crm.c ****   * @brief  set crm apb1 division
 421:/home/y/github/EmbeddedSoftwareMCU/Libraries/AT32/drivers/src/at32f403a_407_crm.c ****   * @param  value
 422:/home/y/github/EmbeddedSoftwareMCU/Libraries/AT32/drivers/src/at32f403a_407_crm.c ****   *         this parameter can be one of the following values:
 423:/home/y/github/EmbeddedSoftwareMCU/Libraries/AT32/drivers/src/at32f403a_407_crm.c ****   *         - CRM_APB1_DIV_1
 424:/home/y/github/EmbeddedSoftwareMCU/Libraries/AT32/drivers/src/at32f403a_407_crm.c ****   *         - CRM_APB1_DIV_2
 425:/home/y/github/EmbeddedSoftwareMCU/Libraries/AT32/drivers/src/at32f403a_407_crm.c ****   *         - CRM_APB1_DIV_4
 426:/home/y/github/EmbeddedSoftwareMCU/Libraries/AT32/drivers/src/at32f403a_407_crm.c ****   *         - CRM_APB1_DIV_8
 427:/home/y/github/EmbeddedSoftwareMCU/Libraries/AT32/drivers/src/at32f403a_407_crm.c ****   *         - CRM_APB1_DIV_16
 428:/home/y/github/EmbeddedSoftwareMCU/Libraries/AT32/drivers/src/at32f403a_407_crm.c ****   * @retval none
 429:/home/y/github/EmbeddedSoftwareMCU/Libraries/AT32/drivers/src/at32f403a_407_crm.c ****   */
 430:/home/y/github/EmbeddedSoftwareMCU/Libraries/AT32/drivers/src/at32f403a_407_crm.c **** void crm_apb1_div_set(crm_apb1_div_type value)
 431:/home/y/github/EmbeddedSoftwareMCU/Libraries/AT32/drivers/src/at32f403a_407_crm.c **** {
 739              		.loc 1 431 0
 740              		.cfi_startproc
 741              		@ args = 0, pretend = 0, frame = 0
 742              		@ frame_needed = 0, uses_anonymous_args = 0
 743              		@ link register save eliminated.
 744              	.LVL40:
 432:/home/y/github/EmbeddedSoftwareMCU/Libraries/AT32/drivers/src/at32f403a_407_crm.c ****   CRM->cfg_bit.apb1div = value;
 745              		.loc 1 432 0
 746 0000 024B     		ldr	r3, .L78
 747 0002 5A68     		ldr	r2, [r3, #4]
 748 0004 60F30A22 		bfi	r2, r0, #8, #3
 749 0008 5A60     		str	r2, [r3, #4]
 750 000a 7047     		bx	lr
 751              	.L79:
 752              		.align	2
 753              	.L78:
 754 000c 00100240 		.word	1073876992
 755              		.cfi_endproc
 756              	.LFE148:
 758              		.section	.text.crm_apb2_div_set,"ax",%progbits
 759              		.align	1
 760              		.global	crm_apb2_div_set
 761              		.syntax unified
 762              		.thumb
 763              		.thumb_func
 764              		.fpu softvfp
 766              	crm_apb2_div_set:
 767              	.LFB149:
 433:/home/y/github/EmbeddedSoftwareMCU/Libraries/AT32/drivers/src/at32f403a_407_crm.c **** }
 434:/home/y/github/EmbeddedSoftwareMCU/Libraries/AT32/drivers/src/at32f403a_407_crm.c **** 
 435:/home/y/github/EmbeddedSoftwareMCU/Libraries/AT32/drivers/src/at32f403a_407_crm.c **** /**
 436:/home/y/github/EmbeddedSoftwareMCU/Libraries/AT32/drivers/src/at32f403a_407_crm.c ****   * @brief  set crm apb2 division
 437:/home/y/github/EmbeddedSoftwareMCU/Libraries/AT32/drivers/src/at32f403a_407_crm.c ****   * @param  value
 438:/home/y/github/EmbeddedSoftwareMCU/Libraries/AT32/drivers/src/at32f403a_407_crm.c ****   *         this parameter can be one of the following values:
 439:/home/y/github/EmbeddedSoftwareMCU/Libraries/AT32/drivers/src/at32f403a_407_crm.c ****   *         - CRM_APB2_DIV_1
 440:/home/y/github/EmbeddedSoftwareMCU/Libraries/AT32/drivers/src/at32f403a_407_crm.c ****   *         - CRM_APB2_DIV_2
 441:/home/y/github/EmbeddedSoftwareMCU/Libraries/AT32/drivers/src/at32f403a_407_crm.c ****   *         - CRM_APB2_DIV_4
 442:/home/y/github/EmbeddedSoftwareMCU/Libraries/AT32/drivers/src/at32f403a_407_crm.c ****   *         - CRM_APB2_DIV_8
 443:/home/y/github/EmbeddedSoftwareMCU/Libraries/AT32/drivers/src/at32f403a_407_crm.c ****   *         - CRM_APB2_DIV_16
 444:/home/y/github/EmbeddedSoftwareMCU/Libraries/AT32/drivers/src/at32f403a_407_crm.c ****   * @retval none
 445:/home/y/github/EmbeddedSoftwareMCU/Libraries/AT32/drivers/src/at32f403a_407_crm.c ****   */
ARM GAS  /tmp/ccn3b2SJ.s 			page 22


 446:/home/y/github/EmbeddedSoftwareMCU/Libraries/AT32/drivers/src/at32f403a_407_crm.c **** void crm_apb2_div_set(crm_apb2_div_type value)
 447:/home/y/github/EmbeddedSoftwareMCU/Libraries/AT32/drivers/src/at32f403a_407_crm.c **** {
 768              		.loc 1 447 0
 769              		.cfi_startproc
 770              		@ args = 0, pretend = 0, frame = 0
 771              		@ frame_needed = 0, uses_anonymous_args = 0
 772              		@ link register save eliminated.
 773              	.LVL41:
 448:/home/y/github/EmbeddedSoftwareMCU/Libraries/AT32/drivers/src/at32f403a_407_crm.c ****   CRM->cfg_bit.apb2div = value;
 774              		.loc 1 448 0
 775 0000 024B     		ldr	r3, .L81
 776 0002 5A68     		ldr	r2, [r3, #4]
 777 0004 60F3CD22 		bfi	r2, r0, #11, #3
 778 0008 5A60     		str	r2, [r3, #4]
 779 000a 7047     		bx	lr
 780              	.L82:
 781              		.align	2
 782              	.L81:
 783 000c 00100240 		.word	1073876992
 784              		.cfi_endproc
 785              	.LFE149:
 787              		.section	.text.crm_adc_clock_div_set,"ax",%progbits
 788              		.align	1
 789              		.global	crm_adc_clock_div_set
 790              		.syntax unified
 791              		.thumb
 792              		.thumb_func
 793              		.fpu softvfp
 795              	crm_adc_clock_div_set:
 796              	.LFB150:
 449:/home/y/github/EmbeddedSoftwareMCU/Libraries/AT32/drivers/src/at32f403a_407_crm.c **** }
 450:/home/y/github/EmbeddedSoftwareMCU/Libraries/AT32/drivers/src/at32f403a_407_crm.c **** 
 451:/home/y/github/EmbeddedSoftwareMCU/Libraries/AT32/drivers/src/at32f403a_407_crm.c **** /**
 452:/home/y/github/EmbeddedSoftwareMCU/Libraries/AT32/drivers/src/at32f403a_407_crm.c ****   * @brief  set crm adc division
 453:/home/y/github/EmbeddedSoftwareMCU/Libraries/AT32/drivers/src/at32f403a_407_crm.c ****   * @param  value
 454:/home/y/github/EmbeddedSoftwareMCU/Libraries/AT32/drivers/src/at32f403a_407_crm.c ****   *         this parameter can be one of the following values:
 455:/home/y/github/EmbeddedSoftwareMCU/Libraries/AT32/drivers/src/at32f403a_407_crm.c ****   *         - CRM_ADC_DIV_2
 456:/home/y/github/EmbeddedSoftwareMCU/Libraries/AT32/drivers/src/at32f403a_407_crm.c ****   *         - CRM_ADC_DIV_4
 457:/home/y/github/EmbeddedSoftwareMCU/Libraries/AT32/drivers/src/at32f403a_407_crm.c ****   *         - CRM_ADC_DIV_6
 458:/home/y/github/EmbeddedSoftwareMCU/Libraries/AT32/drivers/src/at32f403a_407_crm.c ****   *         - CRM_ADC_DIV_8
 459:/home/y/github/EmbeddedSoftwareMCU/Libraries/AT32/drivers/src/at32f403a_407_crm.c ****   *         - CRM_ADC_DIV_12
 460:/home/y/github/EmbeddedSoftwareMCU/Libraries/AT32/drivers/src/at32f403a_407_crm.c ****   *         - CRM_ADC_DIV_16
 461:/home/y/github/EmbeddedSoftwareMCU/Libraries/AT32/drivers/src/at32f403a_407_crm.c ****   * @retval none
 462:/home/y/github/EmbeddedSoftwareMCU/Libraries/AT32/drivers/src/at32f403a_407_crm.c ****   */
 463:/home/y/github/EmbeddedSoftwareMCU/Libraries/AT32/drivers/src/at32f403a_407_crm.c **** void crm_adc_clock_div_set(crm_adc_div_type div_value)
 464:/home/y/github/EmbeddedSoftwareMCU/Libraries/AT32/drivers/src/at32f403a_407_crm.c **** {
 797              		.loc 1 464 0
 798              		.cfi_startproc
 799              		@ args = 0, pretend = 0, frame = 0
 800              		@ frame_needed = 0, uses_anonymous_args = 0
 801              		@ link register save eliminated.
 802              	.LVL42:
 465:/home/y/github/EmbeddedSoftwareMCU/Libraries/AT32/drivers/src/at32f403a_407_crm.c ****   CRM->cfg_bit.adcdiv_l = div_value & 0x03;
 803              		.loc 1 465 0
 804 0000 054B     		ldr	r3, .L84
 805 0002 5A68     		ldr	r2, [r3, #4]
 806 0004 60F38F32 		bfi	r2, r0, #14, #2
ARM GAS  /tmp/ccn3b2SJ.s 			page 23


 807 0008 5A60     		str	r2, [r3, #4]
 466:/home/y/github/EmbeddedSoftwareMCU/Libraries/AT32/drivers/src/at32f403a_407_crm.c ****   CRM->cfg_bit.adcdiv_h = (div_value >> 2) & 0x01;
 808              		.loc 1 466 0
 809 000a C0F38000 		ubfx	r0, r0, #2, #1
 810              	.LVL43:
 811 000e 5A68     		ldr	r2, [r3, #4]
 812 0010 60F31C72 		bfi	r2, r0, #28, #1
 813 0014 5A60     		str	r2, [r3, #4]
 814 0016 7047     		bx	lr
 815              	.L85:
 816              		.align	2
 817              	.L84:
 818 0018 00100240 		.word	1073876992
 819              		.cfi_endproc
 820              	.LFE150:
 822              		.section	.text.crm_usb_clock_div_set,"ax",%progbits
 823              		.align	1
 824              		.global	crm_usb_clock_div_set
 825              		.syntax unified
 826              		.thumb
 827              		.thumb_func
 828              		.fpu softvfp
 830              	crm_usb_clock_div_set:
 831              	.LFB151:
 467:/home/y/github/EmbeddedSoftwareMCU/Libraries/AT32/drivers/src/at32f403a_407_crm.c **** }
 468:/home/y/github/EmbeddedSoftwareMCU/Libraries/AT32/drivers/src/at32f403a_407_crm.c **** 
 469:/home/y/github/EmbeddedSoftwareMCU/Libraries/AT32/drivers/src/at32f403a_407_crm.c **** /**
 470:/home/y/github/EmbeddedSoftwareMCU/Libraries/AT32/drivers/src/at32f403a_407_crm.c ****   * @brief  set crm usb division
 471:/home/y/github/EmbeddedSoftwareMCU/Libraries/AT32/drivers/src/at32f403a_407_crm.c ****   * @param  value
 472:/home/y/github/EmbeddedSoftwareMCU/Libraries/AT32/drivers/src/at32f403a_407_crm.c ****   *         this parameter can be one of the following values:
 473:/home/y/github/EmbeddedSoftwareMCU/Libraries/AT32/drivers/src/at32f403a_407_crm.c ****   *         - CRM_USB_DIV_1_5
 474:/home/y/github/EmbeddedSoftwareMCU/Libraries/AT32/drivers/src/at32f403a_407_crm.c ****   *         - CRM_USB_DIV_1
 475:/home/y/github/EmbeddedSoftwareMCU/Libraries/AT32/drivers/src/at32f403a_407_crm.c ****   *         - CRM_USB_DIV_2_5
 476:/home/y/github/EmbeddedSoftwareMCU/Libraries/AT32/drivers/src/at32f403a_407_crm.c ****   *         - CRM_USB_DIV_2
 477:/home/y/github/EmbeddedSoftwareMCU/Libraries/AT32/drivers/src/at32f403a_407_crm.c ****   *         - CRM_USB_DIV_3_5
 478:/home/y/github/EmbeddedSoftwareMCU/Libraries/AT32/drivers/src/at32f403a_407_crm.c ****   *         - CRM_USB_DIV_3
 479:/home/y/github/EmbeddedSoftwareMCU/Libraries/AT32/drivers/src/at32f403a_407_crm.c ****   *         - CRM_USB_DIV_4
 480:/home/y/github/EmbeddedSoftwareMCU/Libraries/AT32/drivers/src/at32f403a_407_crm.c ****   * @retval none
 481:/home/y/github/EmbeddedSoftwareMCU/Libraries/AT32/drivers/src/at32f403a_407_crm.c ****   */
 482:/home/y/github/EmbeddedSoftwareMCU/Libraries/AT32/drivers/src/at32f403a_407_crm.c **** void crm_usb_clock_div_set(crm_usb_div_type div_value)
 483:/home/y/github/EmbeddedSoftwareMCU/Libraries/AT32/drivers/src/at32f403a_407_crm.c **** {
 832              		.loc 1 483 0
 833              		.cfi_startproc
 834              		@ args = 0, pretend = 0, frame = 0
 835              		@ frame_needed = 0, uses_anonymous_args = 0
 836              		@ link register save eliminated.
 837              	.LVL44:
 484:/home/y/github/EmbeddedSoftwareMCU/Libraries/AT32/drivers/src/at32f403a_407_crm.c ****   CRM->cfg_bit.usbdiv_l = div_value & 0x03;
 838              		.loc 1 484 0
 839 0000 054B     		ldr	r3, .L87
 840 0002 5A68     		ldr	r2, [r3, #4]
 841 0004 60F39752 		bfi	r2, r0, #22, #2
 842 0008 5A60     		str	r2, [r3, #4]
 485:/home/y/github/EmbeddedSoftwareMCU/Libraries/AT32/drivers/src/at32f403a_407_crm.c ****   CRM->cfg_bit.usbdiv_h = (div_value >> 2) & 0x01;
 843              		.loc 1 485 0
 844 000a C0F38000 		ubfx	r0, r0, #2, #1
 845              	.LVL45:
ARM GAS  /tmp/ccn3b2SJ.s 			page 24


 846 000e 5A68     		ldr	r2, [r3, #4]
 847 0010 60F3DB62 		bfi	r2, r0, #27, #1
 848 0014 5A60     		str	r2, [r3, #4]
 849 0016 7047     		bx	lr
 850              	.L88:
 851              		.align	2
 852              	.L87:
 853 0018 00100240 		.word	1073876992
 854              		.cfi_endproc
 855              	.LFE151:
 857              		.section	.text.crm_clock_failure_detection_enable,"ax",%progbits
 858              		.align	1
 859              		.global	crm_clock_failure_detection_enable
 860              		.syntax unified
 861              		.thumb
 862              		.thumb_func
 863              		.fpu softvfp
 865              	crm_clock_failure_detection_enable:
 866              	.LFB152:
 486:/home/y/github/EmbeddedSoftwareMCU/Libraries/AT32/drivers/src/at32f403a_407_crm.c **** }
 487:/home/y/github/EmbeddedSoftwareMCU/Libraries/AT32/drivers/src/at32f403a_407_crm.c **** 
 488:/home/y/github/EmbeddedSoftwareMCU/Libraries/AT32/drivers/src/at32f403a_407_crm.c **** /**
 489:/home/y/github/EmbeddedSoftwareMCU/Libraries/AT32/drivers/src/at32f403a_407_crm.c ****   * @brief  enable or disable clock failure detection
 490:/home/y/github/EmbeddedSoftwareMCU/Libraries/AT32/drivers/src/at32f403a_407_crm.c ****   * @param  new_state (TRUE or FALSE)
 491:/home/y/github/EmbeddedSoftwareMCU/Libraries/AT32/drivers/src/at32f403a_407_crm.c ****   * @retval none
 492:/home/y/github/EmbeddedSoftwareMCU/Libraries/AT32/drivers/src/at32f403a_407_crm.c ****   */
 493:/home/y/github/EmbeddedSoftwareMCU/Libraries/AT32/drivers/src/at32f403a_407_crm.c **** void crm_clock_failure_detection_enable(confirm_state new_state)
 494:/home/y/github/EmbeddedSoftwareMCU/Libraries/AT32/drivers/src/at32f403a_407_crm.c **** {
 867              		.loc 1 494 0
 868              		.cfi_startproc
 869              		@ args = 0, pretend = 0, frame = 0
 870              		@ frame_needed = 0, uses_anonymous_args = 0
 871              		@ link register save eliminated.
 872              	.LVL46:
 495:/home/y/github/EmbeddedSoftwareMCU/Libraries/AT32/drivers/src/at32f403a_407_crm.c ****   CRM->ctrl_bit.cfden = new_state;
 873              		.loc 1 495 0
 874 0000 024B     		ldr	r3, .L90
 875 0002 1A68     		ldr	r2, [r3]
 876 0004 60F3D342 		bfi	r2, r0, #19, #1
 877 0008 1A60     		str	r2, [r3]
 878 000a 7047     		bx	lr
 879              	.L91:
 880              		.align	2
 881              	.L90:
 882 000c 00100240 		.word	1073876992
 883              		.cfi_endproc
 884              	.LFE152:
 886              		.section	.text.crm_battery_powered_domain_reset,"ax",%progbits
 887              		.align	1
 888              		.global	crm_battery_powered_domain_reset
 889              		.syntax unified
 890              		.thumb
 891              		.thumb_func
 892              		.fpu softvfp
 894              	crm_battery_powered_domain_reset:
 895              	.LFB153:
 496:/home/y/github/EmbeddedSoftwareMCU/Libraries/AT32/drivers/src/at32f403a_407_crm.c **** }
ARM GAS  /tmp/ccn3b2SJ.s 			page 25


 497:/home/y/github/EmbeddedSoftwareMCU/Libraries/AT32/drivers/src/at32f403a_407_crm.c **** 
 498:/home/y/github/EmbeddedSoftwareMCU/Libraries/AT32/drivers/src/at32f403a_407_crm.c **** /**
 499:/home/y/github/EmbeddedSoftwareMCU/Libraries/AT32/drivers/src/at32f403a_407_crm.c ****   * @brief  battery powered domain software reset
 500:/home/y/github/EmbeddedSoftwareMCU/Libraries/AT32/drivers/src/at32f403a_407_crm.c ****   * @param  new_state (TRUE or FALSE)
 501:/home/y/github/EmbeddedSoftwareMCU/Libraries/AT32/drivers/src/at32f403a_407_crm.c ****   * @retval none
 502:/home/y/github/EmbeddedSoftwareMCU/Libraries/AT32/drivers/src/at32f403a_407_crm.c ****   */
 503:/home/y/github/EmbeddedSoftwareMCU/Libraries/AT32/drivers/src/at32f403a_407_crm.c **** void crm_battery_powered_domain_reset(confirm_state new_state)
 504:/home/y/github/EmbeddedSoftwareMCU/Libraries/AT32/drivers/src/at32f403a_407_crm.c **** {
 896              		.loc 1 504 0
 897              		.cfi_startproc
 898              		@ args = 0, pretend = 0, frame = 0
 899              		@ frame_needed = 0, uses_anonymous_args = 0
 900              		@ link register save eliminated.
 901              	.LVL47:
 505:/home/y/github/EmbeddedSoftwareMCU/Libraries/AT32/drivers/src/at32f403a_407_crm.c ****   CRM->bpdc_bit.bpdrst = new_state;
 902              		.loc 1 505 0
 903 0000 024B     		ldr	r3, .L93
 904 0002 1A6A     		ldr	r2, [r3, #32]
 905 0004 60F31042 		bfi	r2, r0, #16, #1
 906 0008 1A62     		str	r2, [r3, #32]
 907 000a 7047     		bx	lr
 908              	.L94:
 909              		.align	2
 910              	.L93:
 911 000c 00100240 		.word	1073876992
 912              		.cfi_endproc
 913              	.LFE153:
 915              		.section	.text.crm_pll_config,"ax",%progbits
 916              		.align	1
 917              		.global	crm_pll_config
 918              		.syntax unified
 919              		.thumb
 920              		.thumb_func
 921              		.fpu softvfp
 923              	crm_pll_config:
 924              	.LFB154:
 506:/home/y/github/EmbeddedSoftwareMCU/Libraries/AT32/drivers/src/at32f403a_407_crm.c **** }
 507:/home/y/github/EmbeddedSoftwareMCU/Libraries/AT32/drivers/src/at32f403a_407_crm.c **** 
 508:/home/y/github/EmbeddedSoftwareMCU/Libraries/AT32/drivers/src/at32f403a_407_crm.c **** /**
 509:/home/y/github/EmbeddedSoftwareMCU/Libraries/AT32/drivers/src/at32f403a_407_crm.c ****   * @brief  config crm pll
 510:/home/y/github/EmbeddedSoftwareMCU/Libraries/AT32/drivers/src/at32f403a_407_crm.c ****   * @param  clock_source
 511:/home/y/github/EmbeddedSoftwareMCU/Libraries/AT32/drivers/src/at32f403a_407_crm.c ****   *         this parameter can be one of the following values:
 512:/home/y/github/EmbeddedSoftwareMCU/Libraries/AT32/drivers/src/at32f403a_407_crm.c ****   *         - CRM_PLL_SOURCE_HICK
 513:/home/y/github/EmbeddedSoftwareMCU/Libraries/AT32/drivers/src/at32f403a_407_crm.c ****   *         - CRM_PLL_SOURCE_HEXT
 514:/home/y/github/EmbeddedSoftwareMCU/Libraries/AT32/drivers/src/at32f403a_407_crm.c ****   *         - CRM_PLL_SOURCE_HEXT_DIV
 515:/home/y/github/EmbeddedSoftwareMCU/Libraries/AT32/drivers/src/at32f403a_407_crm.c ****   * @param  mult_value (CRM_PLL_MULT_2~64)
 516:/home/y/github/EmbeddedSoftwareMCU/Libraries/AT32/drivers/src/at32f403a_407_crm.c ****   * @param  pll_range
 517:/home/y/github/EmbeddedSoftwareMCU/Libraries/AT32/drivers/src/at32f403a_407_crm.c ****   *         this parameter can be one of the following values:
 518:/home/y/github/EmbeddedSoftwareMCU/Libraries/AT32/drivers/src/at32f403a_407_crm.c ****   *         - CRM_PLL_OUTPUT_RANGE_LE72MHZ
 519:/home/y/github/EmbeddedSoftwareMCU/Libraries/AT32/drivers/src/at32f403a_407_crm.c ****   *         - CRM_PLL_OUTPUT_RANGE_GT72MHZ
 520:/home/y/github/EmbeddedSoftwareMCU/Libraries/AT32/drivers/src/at32f403a_407_crm.c ****   * @retval none
 521:/home/y/github/EmbeddedSoftwareMCU/Libraries/AT32/drivers/src/at32f403a_407_crm.c ****   */
 522:/home/y/github/EmbeddedSoftwareMCU/Libraries/AT32/drivers/src/at32f403a_407_crm.c **** void crm_pll_config(crm_pll_clock_source_type clock_source, crm_pll_mult_type mult_value, crm_pll_o
 523:/home/y/github/EmbeddedSoftwareMCU/Libraries/AT32/drivers/src/at32f403a_407_crm.c **** {
 925              		.loc 1 523 0
 926              		.cfi_startproc
 927              		@ args = 0, pretend = 0, frame = 0
ARM GAS  /tmp/ccn3b2SJ.s 			page 26


 928              		@ frame_needed = 0, uses_anonymous_args = 0
 929              		@ link register save eliminated.
 930              	.LVL48:
 931 0000 10B4     		push	{r4}
 932              	.LCFI1:
 933              		.cfi_def_cfa_offset 4
 934              		.cfi_offset 4, -4
 524:/home/y/github/EmbeddedSoftwareMCU/Libraries/AT32/drivers/src/at32f403a_407_crm.c ****   /* config pll clock source */
 525:/home/y/github/EmbeddedSoftwareMCU/Libraries/AT32/drivers/src/at32f403a_407_crm.c ****   if(clock_source == CRM_PLL_SOURCE_HICK)
 935              		.loc 1 525 0
 936 0002 E8B1     		cbz	r0, .L100
 937 0004 0446     		mov	r4, r0
 526:/home/y/github/EmbeddedSoftwareMCU/Libraries/AT32/drivers/src/at32f403a_407_crm.c ****   {
 527:/home/y/github/EmbeddedSoftwareMCU/Libraries/AT32/drivers/src/at32f403a_407_crm.c ****     CRM->cfg_bit.pllrcs = FALSE;
 528:/home/y/github/EmbeddedSoftwareMCU/Libraries/AT32/drivers/src/at32f403a_407_crm.c ****   }
 529:/home/y/github/EmbeddedSoftwareMCU/Libraries/AT32/drivers/src/at32f403a_407_crm.c ****   else
 530:/home/y/github/EmbeddedSoftwareMCU/Libraries/AT32/drivers/src/at32f403a_407_crm.c ****   {
 531:/home/y/github/EmbeddedSoftwareMCU/Libraries/AT32/drivers/src/at32f403a_407_crm.c ****     CRM->cfg_bit.pllrcs = TRUE;
 938              		.loc 1 531 0
 939 0006 1448     		ldr	r0, .L102
 940              	.LVL49:
 941 0008 4368     		ldr	r3, [r0, #4]
 942 000a 43F48033 		orr	r3, r3, #65536
 943 000e 4360     		str	r3, [r0, #4]
 532:/home/y/github/EmbeddedSoftwareMCU/Libraries/AT32/drivers/src/at32f403a_407_crm.c ****     if(CRM_PLL_SOURCE_HEXT == clock_source)
 944              		.loc 1 532 0
 945 0010 012C     		cmp	r4, #1
 946 0012 1BD0     		beq	.L101
 533:/home/y/github/EmbeddedSoftwareMCU/Libraries/AT32/drivers/src/at32f403a_407_crm.c ****     {
 534:/home/y/github/EmbeddedSoftwareMCU/Libraries/AT32/drivers/src/at32f403a_407_crm.c ****       CRM->cfg_bit.pllhextdiv = FALSE;
 535:/home/y/github/EmbeddedSoftwareMCU/Libraries/AT32/drivers/src/at32f403a_407_crm.c ****     }
 536:/home/y/github/EmbeddedSoftwareMCU/Libraries/AT32/drivers/src/at32f403a_407_crm.c ****     else
 537:/home/y/github/EmbeddedSoftwareMCU/Libraries/AT32/drivers/src/at32f403a_407_crm.c ****     {
 538:/home/y/github/EmbeddedSoftwareMCU/Libraries/AT32/drivers/src/at32f403a_407_crm.c ****       CRM->cfg_bit.pllhextdiv = TRUE;
 947              		.loc 1 538 0
 948 0014 1048     		ldr	r0, .L102
 949 0016 4368     		ldr	r3, [r0, #4]
 950 0018 43F40033 		orr	r3, r3, #131072
 951 001c 4360     		str	r3, [r0, #4]
 952              	.L97:
 539:/home/y/github/EmbeddedSoftwareMCU/Libraries/AT32/drivers/src/at32f403a_407_crm.c ****     }
 540:/home/y/github/EmbeddedSoftwareMCU/Libraries/AT32/drivers/src/at32f403a_407_crm.c ****   }
 541:/home/y/github/EmbeddedSoftwareMCU/Libraries/AT32/drivers/src/at32f403a_407_crm.c **** 
 542:/home/y/github/EmbeddedSoftwareMCU/Libraries/AT32/drivers/src/at32f403a_407_crm.c ****   /* config pll multiplication factor */
 543:/home/y/github/EmbeddedSoftwareMCU/Libraries/AT32/drivers/src/at32f403a_407_crm.c ****   CRM->cfg_bit.pllmult_l = (mult_value & 0x0F);
 953              		.loc 1 543 0
 954 001e 0E4B     		ldr	r3, .L102
 955 0020 5868     		ldr	r0, [r3, #4]
 956 0022 61F39540 		bfi	r0, r1, #18, #4
 957 0026 5860     		str	r0, [r3, #4]
 544:/home/y/github/EmbeddedSoftwareMCU/Libraries/AT32/drivers/src/at32f403a_407_crm.c ****   CRM->cfg_bit.pllmult_h = ((mult_value & 0x30) >> 4);
 958              		.loc 1 544 0
 959 0028 C1F30111 		ubfx	r1, r1, #4, #2
 960              	.LVL50:
 961 002c 5868     		ldr	r0, [r3, #4]
 962 002e 61F35E70 		bfi	r0, r1, #29, #2
 963 0032 5860     		str	r0, [r3, #4]
ARM GAS  /tmp/ccn3b2SJ.s 			page 27


 545:/home/y/github/EmbeddedSoftwareMCU/Libraries/AT32/drivers/src/at32f403a_407_crm.c **** 
 546:/home/y/github/EmbeddedSoftwareMCU/Libraries/AT32/drivers/src/at32f403a_407_crm.c ****   /* config pll output range */
 547:/home/y/github/EmbeddedSoftwareMCU/Libraries/AT32/drivers/src/at32f403a_407_crm.c ****   CRM->cfg_bit.pllrange = pll_range;
 964              		.loc 1 547 0
 965 0034 5968     		ldr	r1, [r3, #4]
 966 0036 62F3DF71 		bfi	r1, r2, #31, #1
 967 003a 5960     		str	r1, [r3, #4]
 548:/home/y/github/EmbeddedSoftwareMCU/Libraries/AT32/drivers/src/at32f403a_407_crm.c **** }
 968              		.loc 1 548 0
 969 003c 10BC     		pop	{r4}
 970              	.LCFI2:
 971              		.cfi_remember_state
 972              		.cfi_restore 4
 973              		.cfi_def_cfa_offset 0
 974 003e 7047     		bx	lr
 975              	.LVL51:
 976              	.L100:
 977              	.LCFI3:
 978              		.cfi_restore_state
 527:/home/y/github/EmbeddedSoftwareMCU/Libraries/AT32/drivers/src/at32f403a_407_crm.c ****   }
 979              		.loc 1 527 0
 980 0040 054B     		ldr	r3, .L102
 981 0042 5868     		ldr	r0, [r3, #4]
 982              	.LVL52:
 983 0044 6FF31040 		bfc	r0, #16, #1
 984 0048 5860     		str	r0, [r3, #4]
 985 004a E8E7     		b	.L97
 986              	.L101:
 534:/home/y/github/EmbeddedSoftwareMCU/Libraries/AT32/drivers/src/at32f403a_407_crm.c ****     }
 987              		.loc 1 534 0
 988 004c 0346     		mov	r3, r0
 989 004e 4068     		ldr	r0, [r0, #4]
 990 0050 6FF35140 		bfc	r0, #17, #1
 991 0054 5860     		str	r0, [r3, #4]
 992 0056 E2E7     		b	.L97
 993              	.L103:
 994              		.align	2
 995              	.L102:
 996 0058 00100240 		.word	1073876992
 997              		.cfi_endproc
 998              	.LFE154:
 1000              		.section	.text.crm_sysclk_switch,"ax",%progbits
 1001              		.align	1
 1002              		.global	crm_sysclk_switch
 1003              		.syntax unified
 1004              		.thumb
 1005              		.thumb_func
 1006              		.fpu softvfp
 1008              	crm_sysclk_switch:
 1009              	.LFB155:
 549:/home/y/github/EmbeddedSoftwareMCU/Libraries/AT32/drivers/src/at32f403a_407_crm.c **** 
 550:/home/y/github/EmbeddedSoftwareMCU/Libraries/AT32/drivers/src/at32f403a_407_crm.c **** /**
 551:/home/y/github/EmbeddedSoftwareMCU/Libraries/AT32/drivers/src/at32f403a_407_crm.c ****   * @brief  select system clock source
 552:/home/y/github/EmbeddedSoftwareMCU/Libraries/AT32/drivers/src/at32f403a_407_crm.c ****   * @param  value
 553:/home/y/github/EmbeddedSoftwareMCU/Libraries/AT32/drivers/src/at32f403a_407_crm.c ****   *         this parameter can be one of the following values:
 554:/home/y/github/EmbeddedSoftwareMCU/Libraries/AT32/drivers/src/at32f403a_407_crm.c ****   *         - CRM_SCLK_HICK
 555:/home/y/github/EmbeddedSoftwareMCU/Libraries/AT32/drivers/src/at32f403a_407_crm.c ****   *         - CRM_SCLK_HEXT
ARM GAS  /tmp/ccn3b2SJ.s 			page 28


 556:/home/y/github/EmbeddedSoftwareMCU/Libraries/AT32/drivers/src/at32f403a_407_crm.c ****   *         - CRM_SCLK_PLL
 557:/home/y/github/EmbeddedSoftwareMCU/Libraries/AT32/drivers/src/at32f403a_407_crm.c ****   * @retval none
 558:/home/y/github/EmbeddedSoftwareMCU/Libraries/AT32/drivers/src/at32f403a_407_crm.c ****   */
 559:/home/y/github/EmbeddedSoftwareMCU/Libraries/AT32/drivers/src/at32f403a_407_crm.c **** void crm_sysclk_switch(crm_sclk_type value)
 560:/home/y/github/EmbeddedSoftwareMCU/Libraries/AT32/drivers/src/at32f403a_407_crm.c **** {
 1010              		.loc 1 560 0
 1011              		.cfi_startproc
 1012              		@ args = 0, pretend = 0, frame = 0
 1013              		@ frame_needed = 0, uses_anonymous_args = 0
 1014              		@ link register save eliminated.
 1015              	.LVL53:
 561:/home/y/github/EmbeddedSoftwareMCU/Libraries/AT32/drivers/src/at32f403a_407_crm.c ****   CRM->cfg_bit.sclksel = value;
 1016              		.loc 1 561 0
 1017 0000 024B     		ldr	r3, .L105
 1018 0002 5A68     		ldr	r2, [r3, #4]
 1019 0004 60F30102 		bfi	r2, r0, #0, #2
 1020 0008 5A60     		str	r2, [r3, #4]
 1021 000a 7047     		bx	lr
 1022              	.L106:
 1023              		.align	2
 1024              	.L105:
 1025 000c 00100240 		.word	1073876992
 1026              		.cfi_endproc
 1027              	.LFE155:
 1029              		.section	.text.crm_sysclk_switch_status_get,"ax",%progbits
 1030              		.align	1
 1031              		.global	crm_sysclk_switch_status_get
 1032              		.syntax unified
 1033              		.thumb
 1034              		.thumb_func
 1035              		.fpu softvfp
 1037              	crm_sysclk_switch_status_get:
 1038              	.LFB156:
 562:/home/y/github/EmbeddedSoftwareMCU/Libraries/AT32/drivers/src/at32f403a_407_crm.c **** }
 563:/home/y/github/EmbeddedSoftwareMCU/Libraries/AT32/drivers/src/at32f403a_407_crm.c **** 
 564:/home/y/github/EmbeddedSoftwareMCU/Libraries/AT32/drivers/src/at32f403a_407_crm.c **** /**
 565:/home/y/github/EmbeddedSoftwareMCU/Libraries/AT32/drivers/src/at32f403a_407_crm.c ****   * @brief  indicate which clock source is used as system clock
 566:/home/y/github/EmbeddedSoftwareMCU/Libraries/AT32/drivers/src/at32f403a_407_crm.c ****   * @param  none
 567:/home/y/github/EmbeddedSoftwareMCU/Libraries/AT32/drivers/src/at32f403a_407_crm.c ****   * @retval crm_sclk
 568:/home/y/github/EmbeddedSoftwareMCU/Libraries/AT32/drivers/src/at32f403a_407_crm.c ****   *         this return can be one of the following values:
 569:/home/y/github/EmbeddedSoftwareMCU/Libraries/AT32/drivers/src/at32f403a_407_crm.c ****   *         - CRM_SCLK_HICK
 570:/home/y/github/EmbeddedSoftwareMCU/Libraries/AT32/drivers/src/at32f403a_407_crm.c ****   *         - CRM_SCLK_HEXT
 571:/home/y/github/EmbeddedSoftwareMCU/Libraries/AT32/drivers/src/at32f403a_407_crm.c ****   *         - CRM_SCLK_PLL
 572:/home/y/github/EmbeddedSoftwareMCU/Libraries/AT32/drivers/src/at32f403a_407_crm.c ****   */
 573:/home/y/github/EmbeddedSoftwareMCU/Libraries/AT32/drivers/src/at32f403a_407_crm.c **** crm_sclk_type crm_sysclk_switch_status_get(void)
 574:/home/y/github/EmbeddedSoftwareMCU/Libraries/AT32/drivers/src/at32f403a_407_crm.c **** {
 1039              		.loc 1 574 0
 1040              		.cfi_startproc
 1041              		@ args = 0, pretend = 0, frame = 0
 1042              		@ frame_needed = 0, uses_anonymous_args = 0
 1043              		@ link register save eliminated.
 575:/home/y/github/EmbeddedSoftwareMCU/Libraries/AT32/drivers/src/at32f403a_407_crm.c ****   return (crm_sclk_type)CRM->cfg_bit.sclksts;
 1044              		.loc 1 575 0
 1045 0000 024B     		ldr	r3, .L108
 1046 0002 5868     		ldr	r0, [r3, #4]
 576:/home/y/github/EmbeddedSoftwareMCU/Libraries/AT32/drivers/src/at32f403a_407_crm.c **** }
 1047              		.loc 1 576 0
ARM GAS  /tmp/ccn3b2SJ.s 			page 29


 1048 0004 C0F38100 		ubfx	r0, r0, #2, #2
 1049 0008 7047     		bx	lr
 1050              	.L109:
 1051 000a 00BF     		.align	2
 1052              	.L108:
 1053 000c 00100240 		.word	1073876992
 1054              		.cfi_endproc
 1055              	.LFE156:
 1057              		.section	.text.crm_clocks_freq_get,"ax",%progbits
 1058              		.align	1
 1059              		.global	crm_clocks_freq_get
 1060              		.syntax unified
 1061              		.thumb
 1062              		.thumb_func
 1063              		.fpu softvfp
 1065              	crm_clocks_freq_get:
 1066              	.LFB157:
 577:/home/y/github/EmbeddedSoftwareMCU/Libraries/AT32/drivers/src/at32f403a_407_crm.c **** 
 578:/home/y/github/EmbeddedSoftwareMCU/Libraries/AT32/drivers/src/at32f403a_407_crm.c **** /**
 579:/home/y/github/EmbeddedSoftwareMCU/Libraries/AT32/drivers/src/at32f403a_407_crm.c ****   * @brief  get crm clocks freqency
 580:/home/y/github/EmbeddedSoftwareMCU/Libraries/AT32/drivers/src/at32f403a_407_crm.c ****   * @param  clocks
 581:/home/y/github/EmbeddedSoftwareMCU/Libraries/AT32/drivers/src/at32f403a_407_crm.c ****   *         - pointer to the crm_clocks_freq structure
 582:/home/y/github/EmbeddedSoftwareMCU/Libraries/AT32/drivers/src/at32f403a_407_crm.c ****   * @retval none
 583:/home/y/github/EmbeddedSoftwareMCU/Libraries/AT32/drivers/src/at32f403a_407_crm.c ****   */
 584:/home/y/github/EmbeddedSoftwareMCU/Libraries/AT32/drivers/src/at32f403a_407_crm.c **** void crm_clocks_freq_get(crm_clocks_freq_type *clocks_struct)
 585:/home/y/github/EmbeddedSoftwareMCU/Libraries/AT32/drivers/src/at32f403a_407_crm.c **** {
 1067              		.loc 1 585 0
 1068              		.cfi_startproc
 1069              		@ args = 0, pretend = 0, frame = 0
 1070              		@ frame_needed = 0, uses_anonymous_args = 0
 1071              	.LVL54:
 1072 0000 10B5     		push	{r4, lr}
 1073              	.LCFI4:
 1074              		.cfi_def_cfa_offset 8
 1075              		.cfi_offset 4, -8
 1076              		.cfi_offset 14, -4
 1077 0002 0446     		mov	r4, r0
 1078              	.LVL55:
 586:/home/y/github/EmbeddedSoftwareMCU/Libraries/AT32/drivers/src/at32f403a_407_crm.c ****   uint32_t hext_prediv = 0, pll_mult = 0, pll_mult_h = 0, pll_clock_source = 0, temp = 0, div_value
 587:/home/y/github/EmbeddedSoftwareMCU/Libraries/AT32/drivers/src/at32f403a_407_crm.c ****   crm_sclk_type sclk_source;
 588:/home/y/github/EmbeddedSoftwareMCU/Libraries/AT32/drivers/src/at32f403a_407_crm.c **** 
 589:/home/y/github/EmbeddedSoftwareMCU/Libraries/AT32/drivers/src/at32f403a_407_crm.c ****   static const uint8_t sclk_ahb_div_table[16] = {0, 0, 0, 0, 0, 0, 0, 0, 1, 2, 3, 4, 6, 7, 8, 9};
 590:/home/y/github/EmbeddedSoftwareMCU/Libraries/AT32/drivers/src/at32f403a_407_crm.c ****   static const uint8_t ahb_apb1_div_table[8] = {0, 0, 0, 0, 1, 2, 3, 4};
 591:/home/y/github/EmbeddedSoftwareMCU/Libraries/AT32/drivers/src/at32f403a_407_crm.c ****   static const uint8_t ahb_apb2_div_table[8] = {0, 0, 0, 0, 1, 2, 3, 4};
 592:/home/y/github/EmbeddedSoftwareMCU/Libraries/AT32/drivers/src/at32f403a_407_crm.c ****   static const uint8_t adc_div_table[8] = {2, 4, 6, 8, 2, 12, 8, 16};
 593:/home/y/github/EmbeddedSoftwareMCU/Libraries/AT32/drivers/src/at32f403a_407_crm.c **** 
 594:/home/y/github/EmbeddedSoftwareMCU/Libraries/AT32/drivers/src/at32f403a_407_crm.c ****   /* get sclk source */
 595:/home/y/github/EmbeddedSoftwareMCU/Libraries/AT32/drivers/src/at32f403a_407_crm.c ****   sclk_source = crm_sysclk_switch_status_get();
 1079              		.loc 1 595 0
 1080 0004 FFF7FEFF 		bl	crm_sysclk_switch_status_get
 1081              	.LVL56:
 596:/home/y/github/EmbeddedSoftwareMCU/Libraries/AT32/drivers/src/at32f403a_407_crm.c **** 
 597:/home/y/github/EmbeddedSoftwareMCU/Libraries/AT32/drivers/src/at32f403a_407_crm.c ****   switch(sclk_source)
 1082              		.loc 1 597 0
 1083 0008 0128     		cmp	r0, #1
 1084 000a 15D0     		beq	.L112
 1085 000c 20B1     		cbz	r0, .L113
ARM GAS  /tmp/ccn3b2SJ.s 			page 30


 1086 000e 0228     		cmp	r0, #2
 1087 0010 3AD0     		beq	.L114
 598:/home/y/github/EmbeddedSoftwareMCU/Libraries/AT32/drivers/src/at32f403a_407_crm.c ****   {
 599:/home/y/github/EmbeddedSoftwareMCU/Libraries/AT32/drivers/src/at32f403a_407_crm.c ****     case CRM_SCLK_HICK:
 600:/home/y/github/EmbeddedSoftwareMCU/Libraries/AT32/drivers/src/at32f403a_407_crm.c ****       if(((CRM->misc3_bit.hick_to_sclk) != RESET) && ((CRM->misc1_bit.hickdiv) != RESET))
 601:/home/y/github/EmbeddedSoftwareMCU/Libraries/AT32/drivers/src/at32f403a_407_crm.c ****         clocks_struct->sclk_freq = HICK_VALUE * 6;
 602:/home/y/github/EmbeddedSoftwareMCU/Libraries/AT32/drivers/src/at32f403a_407_crm.c ****       else
 603:/home/y/github/EmbeddedSoftwareMCU/Libraries/AT32/drivers/src/at32f403a_407_crm.c ****         clocks_struct->sclk_freq = HICK_VALUE;
 604:/home/y/github/EmbeddedSoftwareMCU/Libraries/AT32/drivers/src/at32f403a_407_crm.c ****       break;
 605:/home/y/github/EmbeddedSoftwareMCU/Libraries/AT32/drivers/src/at32f403a_407_crm.c ****     case CRM_SCLK_HEXT:
 606:/home/y/github/EmbeddedSoftwareMCU/Libraries/AT32/drivers/src/at32f403a_407_crm.c ****       clocks_struct->sclk_freq = HEXT_VALUE;
 607:/home/y/github/EmbeddedSoftwareMCU/Libraries/AT32/drivers/src/at32f403a_407_crm.c ****       break;
 608:/home/y/github/EmbeddedSoftwareMCU/Libraries/AT32/drivers/src/at32f403a_407_crm.c ****     case CRM_SCLK_PLL:
 609:/home/y/github/EmbeddedSoftwareMCU/Libraries/AT32/drivers/src/at32f403a_407_crm.c ****       pll_clock_source = CRM->cfg_bit.pllrcs;
 610:/home/y/github/EmbeddedSoftwareMCU/Libraries/AT32/drivers/src/at32f403a_407_crm.c ****       /* get multiplication factor */
 611:/home/y/github/EmbeddedSoftwareMCU/Libraries/AT32/drivers/src/at32f403a_407_crm.c ****       pll_mult = CRM->cfg_bit.pllmult_l;
 612:/home/y/github/EmbeddedSoftwareMCU/Libraries/AT32/drivers/src/at32f403a_407_crm.c ****       pll_mult_h = CRM->cfg_bit.pllmult_h;
 613:/home/y/github/EmbeddedSoftwareMCU/Libraries/AT32/drivers/src/at32f403a_407_crm.c **** 
 614:/home/y/github/EmbeddedSoftwareMCU/Libraries/AT32/drivers/src/at32f403a_407_crm.c ****       /* process high bits */
 615:/home/y/github/EmbeddedSoftwareMCU/Libraries/AT32/drivers/src/at32f403a_407_crm.c ****       if((pll_mult_h != 0U) || (pll_mult == 15U))
 616:/home/y/github/EmbeddedSoftwareMCU/Libraries/AT32/drivers/src/at32f403a_407_crm.c ****       {
 617:/home/y/github/EmbeddedSoftwareMCU/Libraries/AT32/drivers/src/at32f403a_407_crm.c ****           pll_mult += ((16U * pll_mult_h) + 1U);
 618:/home/y/github/EmbeddedSoftwareMCU/Libraries/AT32/drivers/src/at32f403a_407_crm.c ****       }
 619:/home/y/github/EmbeddedSoftwareMCU/Libraries/AT32/drivers/src/at32f403a_407_crm.c ****       else
 620:/home/y/github/EmbeddedSoftwareMCU/Libraries/AT32/drivers/src/at32f403a_407_crm.c ****       {
 621:/home/y/github/EmbeddedSoftwareMCU/Libraries/AT32/drivers/src/at32f403a_407_crm.c ****           pll_mult += 2U;
 622:/home/y/github/EmbeddedSoftwareMCU/Libraries/AT32/drivers/src/at32f403a_407_crm.c ****       }
 623:/home/y/github/EmbeddedSoftwareMCU/Libraries/AT32/drivers/src/at32f403a_407_crm.c **** 
 624:/home/y/github/EmbeddedSoftwareMCU/Libraries/AT32/drivers/src/at32f403a_407_crm.c ****       if (pll_clock_source == 0x00)
 625:/home/y/github/EmbeddedSoftwareMCU/Libraries/AT32/drivers/src/at32f403a_407_crm.c ****       {
 626:/home/y/github/EmbeddedSoftwareMCU/Libraries/AT32/drivers/src/at32f403a_407_crm.c ****         /* hick divided by 2 selected as pll clock entry */
 627:/home/y/github/EmbeddedSoftwareMCU/Libraries/AT32/drivers/src/at32f403a_407_crm.c ****         clocks_struct->sclk_freq = (HICK_VALUE >> 1) * pll_mult;
 628:/home/y/github/EmbeddedSoftwareMCU/Libraries/AT32/drivers/src/at32f403a_407_crm.c ****       }
 629:/home/y/github/EmbeddedSoftwareMCU/Libraries/AT32/drivers/src/at32f403a_407_crm.c ****       else
 630:/home/y/github/EmbeddedSoftwareMCU/Libraries/AT32/drivers/src/at32f403a_407_crm.c ****       {
 631:/home/y/github/EmbeddedSoftwareMCU/Libraries/AT32/drivers/src/at32f403a_407_crm.c ****         /* hext selected as pll clock entry */
 632:/home/y/github/EmbeddedSoftwareMCU/Libraries/AT32/drivers/src/at32f403a_407_crm.c ****         if (CRM->cfg_bit.pllhextdiv != RESET)
 633:/home/y/github/EmbeddedSoftwareMCU/Libraries/AT32/drivers/src/at32f403a_407_crm.c ****         {
 634:/home/y/github/EmbeddedSoftwareMCU/Libraries/AT32/drivers/src/at32f403a_407_crm.c ****           hext_prediv = CRM->misc3_bit.hextdiv;
 635:/home/y/github/EmbeddedSoftwareMCU/Libraries/AT32/drivers/src/at32f403a_407_crm.c ****           /* hext clock divided by 2 */
 636:/home/y/github/EmbeddedSoftwareMCU/Libraries/AT32/drivers/src/at32f403a_407_crm.c ****           clocks_struct->sclk_freq = (HEXT_VALUE / (hext_prediv + 2)) * pll_mult;
 637:/home/y/github/EmbeddedSoftwareMCU/Libraries/AT32/drivers/src/at32f403a_407_crm.c ****         }
 638:/home/y/github/EmbeddedSoftwareMCU/Libraries/AT32/drivers/src/at32f403a_407_crm.c ****         else
 639:/home/y/github/EmbeddedSoftwareMCU/Libraries/AT32/drivers/src/at32f403a_407_crm.c ****         {
 640:/home/y/github/EmbeddedSoftwareMCU/Libraries/AT32/drivers/src/at32f403a_407_crm.c ****           clocks_struct->sclk_freq = HEXT_VALUE * pll_mult;
 641:/home/y/github/EmbeddedSoftwareMCU/Libraries/AT32/drivers/src/at32f403a_407_crm.c ****         }
 642:/home/y/github/EmbeddedSoftwareMCU/Libraries/AT32/drivers/src/at32f403a_407_crm.c ****       }
 643:/home/y/github/EmbeddedSoftwareMCU/Libraries/AT32/drivers/src/at32f403a_407_crm.c ****       break;
 644:/home/y/github/EmbeddedSoftwareMCU/Libraries/AT32/drivers/src/at32f403a_407_crm.c ****     default:
 645:/home/y/github/EmbeddedSoftwareMCU/Libraries/AT32/drivers/src/at32f403a_407_crm.c ****       clocks_struct->sclk_freq = HICK_VALUE;
 1088              		.loc 1 645 0
 1089 0012 344B     		ldr	r3, .L125
 1090 0014 2360     		str	r3, [r4]
 646:/home/y/github/EmbeddedSoftwareMCU/Libraries/AT32/drivers/src/at32f403a_407_crm.c ****       break;
 1091              		.loc 1 646 0
 1092 0016 11E0     		b	.L116
 1093              	.L113:
ARM GAS  /tmp/ccn3b2SJ.s 			page 31


 600:/home/y/github/EmbeddedSoftwareMCU/Libraries/AT32/drivers/src/at32f403a_407_crm.c ****         clocks_struct->sclk_freq = HICK_VALUE * 6;
 1094              		.loc 1 600 0
 1095 0018 334B     		ldr	r3, .L125+4
 1096 001a 5B6D     		ldr	r3, [r3, #84]
 1097 001c 13F4007F 		tst	r3, #512
 1098 0020 07D0     		beq	.L115
 600:/home/y/github/EmbeddedSoftwareMCU/Libraries/AT32/drivers/src/at32f403a_407_crm.c ****         clocks_struct->sclk_freq = HICK_VALUE * 6;
 1099              		.loc 1 600 0 is_stmt 0 discriminator 1
 1100 0022 314B     		ldr	r3, .L125+4
 1101 0024 1B6B     		ldr	r3, [r3, #48]
 1102 0026 13F0007F 		tst	r3, #33554432
 1103 002a 02D0     		beq	.L115
 601:/home/y/github/EmbeddedSoftwareMCU/Libraries/AT32/drivers/src/at32f403a_407_crm.c ****       else
 1104              		.loc 1 601 0 is_stmt 1
 1105 002c 2F4B     		ldr	r3, .L125+8
 1106 002e 2360     		str	r3, [r4]
 1107 0030 04E0     		b	.L116
 1108              	.L115:
 603:/home/y/github/EmbeddedSoftwareMCU/Libraries/AT32/drivers/src/at32f403a_407_crm.c ****       break;
 1109              		.loc 1 603 0
 1110 0032 2C4B     		ldr	r3, .L125
 1111 0034 2360     		str	r3, [r4]
 1112 0036 01E0     		b	.L116
 1113              	.L112:
 606:/home/y/github/EmbeddedSoftwareMCU/Libraries/AT32/drivers/src/at32f403a_407_crm.c ****       break;
 1114              		.loc 1 606 0
 1115 0038 2A4B     		ldr	r3, .L125
 1116 003a 2360     		str	r3, [r4]
 1117              	.LVL57:
 1118              	.L116:
 647:/home/y/github/EmbeddedSoftwareMCU/Libraries/AT32/drivers/src/at32f403a_407_crm.c ****   }
 648:/home/y/github/EmbeddedSoftwareMCU/Libraries/AT32/drivers/src/at32f403a_407_crm.c **** 
 649:/home/y/github/EmbeddedSoftwareMCU/Libraries/AT32/drivers/src/at32f403a_407_crm.c ****   /* compute sclk, ahbclk, abp1clk apb2clk and adcclk frequencies */
 650:/home/y/github/EmbeddedSoftwareMCU/Libraries/AT32/drivers/src/at32f403a_407_crm.c ****   /* get ahb division */
 651:/home/y/github/EmbeddedSoftwareMCU/Libraries/AT32/drivers/src/at32f403a_407_crm.c ****   temp = CRM->cfg_bit.ahbdiv;
 1119              		.loc 1 651 0
 1120 003c 2A49     		ldr	r1, .L125+4
 1121 003e 4B68     		ldr	r3, [r1, #4]
 1122 0040 C3F30313 		ubfx	r3, r3, #4, #4
 1123              	.LVL58:
 652:/home/y/github/EmbeddedSoftwareMCU/Libraries/AT32/drivers/src/at32f403a_407_crm.c ****   div_value = sclk_ahb_div_table[temp];
 1124              		.loc 1 652 0
 1125 0044 2A4A     		ldr	r2, .L125+12
 1126 0046 D25C     		ldrb	r2, [r2, r3]	@ zero_extendqisi2
 1127              	.LVL59:
 653:/home/y/github/EmbeddedSoftwareMCU/Libraries/AT32/drivers/src/at32f403a_407_crm.c ****   /* ahbclk frequency */
 654:/home/y/github/EmbeddedSoftwareMCU/Libraries/AT32/drivers/src/at32f403a_407_crm.c ****   clocks_struct->ahb_freq = clocks_struct->sclk_freq >> div_value;
 1128              		.loc 1 654 0
 1129 0048 2368     		ldr	r3, [r4]
 1130              	.LVL60:
 1131 004a D340     		lsrs	r3, r3, r2
 1132 004c 6360     		str	r3, [r4, #4]
 655:/home/y/github/EmbeddedSoftwareMCU/Libraries/AT32/drivers/src/at32f403a_407_crm.c **** 
 656:/home/y/github/EmbeddedSoftwareMCU/Libraries/AT32/drivers/src/at32f403a_407_crm.c ****   /* get apb1 division */
 657:/home/y/github/EmbeddedSoftwareMCU/Libraries/AT32/drivers/src/at32f403a_407_crm.c ****   temp = CRM->cfg_bit.apb1div;
 1133              		.loc 1 657 0
 1134 004e 4A68     		ldr	r2, [r1, #4]
ARM GAS  /tmp/ccn3b2SJ.s 			page 32


 1135              	.LVL61:
 1136 0050 C2F30222 		ubfx	r2, r2, #8, #3
 1137              	.LVL62:
 658:/home/y/github/EmbeddedSoftwareMCU/Libraries/AT32/drivers/src/at32f403a_407_crm.c ****   div_value = ahb_apb1_div_table[temp];
 1138              		.loc 1 658 0
 1139 0054 2748     		ldr	r0, .L125+16
 1140              	.LVL63:
 1141 0056 825C     		ldrb	r2, [r0, r2]	@ zero_extendqisi2
 1142              	.LVL64:
 659:/home/y/github/EmbeddedSoftwareMCU/Libraries/AT32/drivers/src/at32f403a_407_crm.c ****   /* apb1clk frequency */
 660:/home/y/github/EmbeddedSoftwareMCU/Libraries/AT32/drivers/src/at32f403a_407_crm.c ****   clocks_struct->apb1_freq = clocks_struct->ahb_freq >> div_value;
 1143              		.loc 1 660 0
 1144 0058 23FA02F2 		lsr	r2, r3, r2
 1145              	.LVL65:
 1146 005c E260     		str	r2, [r4, #12]
 661:/home/y/github/EmbeddedSoftwareMCU/Libraries/AT32/drivers/src/at32f403a_407_crm.c **** 
 662:/home/y/github/EmbeddedSoftwareMCU/Libraries/AT32/drivers/src/at32f403a_407_crm.c ****   /* get apb2 division */
 663:/home/y/github/EmbeddedSoftwareMCU/Libraries/AT32/drivers/src/at32f403a_407_crm.c ****   temp = CRM->cfg_bit.apb2div;
 1147              		.loc 1 663 0
 1148 005e 4A68     		ldr	r2, [r1, #4]
 1149 0060 C2F3C222 		ubfx	r2, r2, #11, #3
 1150              	.LVL66:
 664:/home/y/github/EmbeddedSoftwareMCU/Libraries/AT32/drivers/src/at32f403a_407_crm.c ****   div_value = ahb_apb2_div_table[temp];
 1151              		.loc 1 664 0
 1152 0064 2448     		ldr	r0, .L125+20
 1153 0066 825C     		ldrb	r2, [r0, r2]	@ zero_extendqisi2
 1154              	.LVL67:
 665:/home/y/github/EmbeddedSoftwareMCU/Libraries/AT32/drivers/src/at32f403a_407_crm.c ****   /* apb2clk frequency */
 666:/home/y/github/EmbeddedSoftwareMCU/Libraries/AT32/drivers/src/at32f403a_407_crm.c ****   clocks_struct->apb2_freq = clocks_struct->ahb_freq >> div_value;
 1155              		.loc 1 666 0
 1156 0068 D340     		lsrs	r3, r3, r2
 1157 006a A360     		str	r3, [r4, #8]
 667:/home/y/github/EmbeddedSoftwareMCU/Libraries/AT32/drivers/src/at32f403a_407_crm.c **** 
 668:/home/y/github/EmbeddedSoftwareMCU/Libraries/AT32/drivers/src/at32f403a_407_crm.c ****   /* get adc division */
 669:/home/y/github/EmbeddedSoftwareMCU/Libraries/AT32/drivers/src/at32f403a_407_crm.c ****   temp = CRM->cfg_bit.adcdiv_h;
 1158              		.loc 1 669 0
 1159 006c 4868     		ldr	r0, [r1, #4]
 1160 006e C0F30070 		ubfx	r0, r0, #28, #1
 1161              	.LVL68:
 670:/home/y/github/EmbeddedSoftwareMCU/Libraries/AT32/drivers/src/at32f403a_407_crm.c ****   temp = ((temp << 2) | (CRM->cfg_bit.adcdiv_l));
 1162              		.loc 1 670 0
 1163 0072 4A68     		ldr	r2, [r1, #4]
 1164              	.LVL69:
 1165 0074 C2F38132 		ubfx	r2, r2, #14, #2
 1166 0078 42EA8002 		orr	r2, r2, r0, lsl #2
 1167              	.LVL70:
 671:/home/y/github/EmbeddedSoftwareMCU/Libraries/AT32/drivers/src/at32f403a_407_crm.c ****   div_value = adc_div_table[temp];
 1168              		.loc 1 671 0
 1169 007c 1F49     		ldr	r1, .L125+24
 1170 007e 8A5C     		ldrb	r2, [r1, r2]	@ zero_extendqisi2
 1171              	.LVL71:
 672:/home/y/github/EmbeddedSoftwareMCU/Libraries/AT32/drivers/src/at32f403a_407_crm.c ****   /* adcclk clock frequency */
 673:/home/y/github/EmbeddedSoftwareMCU/Libraries/AT32/drivers/src/at32f403a_407_crm.c ****   clocks_struct->adc_freq = clocks_struct->apb2_freq / div_value;
 1172              		.loc 1 673 0
 1173 0080 B3FBF2F3 		udiv	r3, r3, r2
 1174 0084 2361     		str	r3, [r4, #16]
 1175 0086 10BD     		pop	{r4, pc}
ARM GAS  /tmp/ccn3b2SJ.s 			page 33


 1176              	.LVL72:
 1177              	.L114:
 609:/home/y/github/EmbeddedSoftwareMCU/Libraries/AT32/drivers/src/at32f403a_407_crm.c ****       /* get multiplication factor */
 1178              		.loc 1 609 0
 1179 0088 174A     		ldr	r2, .L125+4
 1180 008a 5168     		ldr	r1, [r2, #4]
 1181 008c C1F30041 		ubfx	r1, r1, #16, #1
 1182              	.LVL73:
 611:/home/y/github/EmbeddedSoftwareMCU/Libraries/AT32/drivers/src/at32f403a_407_crm.c ****       pll_mult_h = CRM->cfg_bit.pllmult_h;
 1183              		.loc 1 611 0
 1184 0090 5368     		ldr	r3, [r2, #4]
 1185 0092 C3F38343 		ubfx	r3, r3, #18, #4
 1186              	.LVL74:
 612:/home/y/github/EmbeddedSoftwareMCU/Libraries/AT32/drivers/src/at32f403a_407_crm.c **** 
 1187              		.loc 1 612 0
 1188 0096 5268     		ldr	r2, [r2, #4]
 1189 0098 C2F34172 		ubfx	r2, r2, #29, #2
 1190              	.LVL75:
 615:/home/y/github/EmbeddedSoftwareMCU/Libraries/AT32/drivers/src/at32f403a_407_crm.c ****       {
 1191              		.loc 1 615 0
 1192 009c 1AB9     		cbnz	r2, .L117
 615:/home/y/github/EmbeddedSoftwareMCU/Libraries/AT32/drivers/src/at32f403a_407_crm.c ****       {
 1193              		.loc 1 615 0 is_stmt 0 discriminator 1
 1194 009e 0F2B     		cmp	r3, #15
 1195 00a0 01D0     		beq	.L117
 621:/home/y/github/EmbeddedSoftwareMCU/Libraries/AT32/drivers/src/at32f403a_407_crm.c ****       }
 1196              		.loc 1 621 0 is_stmt 1
 1197 00a2 0233     		adds	r3, r3, #2
 1198              	.LVL76:
 1199 00a4 02E0     		b	.L119
 1200              	.L117:
 617:/home/y/github/EmbeddedSoftwareMCU/Libraries/AT32/drivers/src/at32f403a_407_crm.c ****       }
 1201              		.loc 1 617 0
 1202 00a6 03EB0213 		add	r3, r3, r2, lsl #4
 1203              	.LVL77:
 1204 00aa 0133     		adds	r3, r3, #1
 1205              	.LVL78:
 1206              	.L119:
 624:/home/y/github/EmbeddedSoftwareMCU/Libraries/AT32/drivers/src/at32f403a_407_crm.c ****       {
 1207              		.loc 1 624 0
 1208 00ac 81B1     		cbz	r1, .L124
 632:/home/y/github/EmbeddedSoftwareMCU/Libraries/AT32/drivers/src/at32f403a_407_crm.c ****         {
 1209              		.loc 1 632 0
 1210 00ae 0E4A     		ldr	r2, .L125+4
 1211              	.LVL79:
 1212 00b0 5268     		ldr	r2, [r2, #4]
 1213 00b2 12F4003F 		tst	r2, #131072
 1214 00b6 10D0     		beq	.L121
 634:/home/y/github/EmbeddedSoftwareMCU/Libraries/AT32/drivers/src/at32f403a_407_crm.c ****           /* hext clock divided by 2 */
 1215              		.loc 1 634 0
 1216 00b8 0B4A     		ldr	r2, .L125+4
 1217 00ba 526D     		ldr	r2, [r2, #84]
 1218 00bc C2F30132 		ubfx	r2, r2, #12, #2
 1219              	.LVL80:
 636:/home/y/github/EmbeddedSoftwareMCU/Libraries/AT32/drivers/src/at32f403a_407_crm.c ****         }
 1220              		.loc 1 636 0
 1221 00c0 911C     		adds	r1, r2, #2
ARM GAS  /tmp/ccn3b2SJ.s 			page 34


 1222 00c2 084A     		ldr	r2, .L125
 1223              	.LVL81:
 1224 00c4 B2FBF1F2 		udiv	r2, r2, r1
 1225 00c8 02FB03F3 		mul	r3, r2, r3
 1226              	.LVL82:
 1227 00cc 2360     		str	r3, [r4]
 1228 00ce B5E7     		b	.L116
 1229              	.LVL83:
 1230              	.L124:
 627:/home/y/github/EmbeddedSoftwareMCU/Libraries/AT32/drivers/src/at32f403a_407_crm.c ****       }
 1231              		.loc 1 627 0
 1232 00d0 0B4A     		ldr	r2, .L125+28
 1233              	.LVL84:
 1234 00d2 02FB03F3 		mul	r3, r2, r3
 1235              	.LVL85:
 1236 00d6 2360     		str	r3, [r4]
 1237 00d8 B0E7     		b	.L116
 1238              	.LVL86:
 1239              	.L121:
 640:/home/y/github/EmbeddedSoftwareMCU/Libraries/AT32/drivers/src/at32f403a_407_crm.c ****         }
 1240              		.loc 1 640 0
 1241 00da 024A     		ldr	r2, .L125
 1242 00dc 02FB03F3 		mul	r3, r2, r3
 1243              	.LVL87:
 1244 00e0 2360     		str	r3, [r4]
 1245 00e2 ABE7     		b	.L116
 1246              	.L126:
 1247              		.align	2
 1248              	.L125:
 1249 00e4 00127A00 		.word	8000000
 1250 00e8 00100240 		.word	1073876992
 1251 00ec 006CDC02 		.word	48000000
 1252 00f0 00000000 		.word	.LANCHOR0
 1253 00f4 00000000 		.word	.LANCHOR1
 1254 00f8 00000000 		.word	.LANCHOR2
 1255 00fc 00000000 		.word	.LANCHOR3
 1256 0100 00093D00 		.word	4000000
 1257              		.cfi_endproc
 1258              	.LFE157:
 1260              		.section	.text.crm_clock_out_set,"ax",%progbits
 1261              		.align	1
 1262              		.global	crm_clock_out_set
 1263              		.syntax unified
 1264              		.thumb
 1265              		.thumb_func
 1266              		.fpu softvfp
 1268              	crm_clock_out_set:
 1269              	.LFB158:
 674:/home/y/github/EmbeddedSoftwareMCU/Libraries/AT32/drivers/src/at32f403a_407_crm.c **** }
 675:/home/y/github/EmbeddedSoftwareMCU/Libraries/AT32/drivers/src/at32f403a_407_crm.c **** 
 676:/home/y/github/EmbeddedSoftwareMCU/Libraries/AT32/drivers/src/at32f403a_407_crm.c **** /**
 677:/home/y/github/EmbeddedSoftwareMCU/Libraries/AT32/drivers/src/at32f403a_407_crm.c ****   * @brief  set crm clkout
 678:/home/y/github/EmbeddedSoftwareMCU/Libraries/AT32/drivers/src/at32f403a_407_crm.c ****   * @param  clkout
 679:/home/y/github/EmbeddedSoftwareMCU/Libraries/AT32/drivers/src/at32f403a_407_crm.c ****   *         this parameter can be one of the following values:
 680:/home/y/github/EmbeddedSoftwareMCU/Libraries/AT32/drivers/src/at32f403a_407_crm.c ****   *         - CRM_CLKOUT_NOCLK
 681:/home/y/github/EmbeddedSoftwareMCU/Libraries/AT32/drivers/src/at32f403a_407_crm.c ****   *         - CRM_CLKOUT_LICK
 682:/home/y/github/EmbeddedSoftwareMCU/Libraries/AT32/drivers/src/at32f403a_407_crm.c ****   *         - CRM_CLKOUT_LEXT
ARM GAS  /tmp/ccn3b2SJ.s 			page 35


 683:/home/y/github/EmbeddedSoftwareMCU/Libraries/AT32/drivers/src/at32f403a_407_crm.c ****   *         - CRM_CLKOUT_SCLK
 684:/home/y/github/EmbeddedSoftwareMCU/Libraries/AT32/drivers/src/at32f403a_407_crm.c ****   *         - CRM_CLKOUT_HICK
 685:/home/y/github/EmbeddedSoftwareMCU/Libraries/AT32/drivers/src/at32f403a_407_crm.c ****   *         - CRM_CLKOUT_HEXT
 686:/home/y/github/EmbeddedSoftwareMCU/Libraries/AT32/drivers/src/at32f403a_407_crm.c ****   *         - CRM_CLKOUT_PLL_DIV_2
 687:/home/y/github/EmbeddedSoftwareMCU/Libraries/AT32/drivers/src/at32f403a_407_crm.c ****   *         - CRM_CLKOUT_PLL_DIV_4
 688:/home/y/github/EmbeddedSoftwareMCU/Libraries/AT32/drivers/src/at32f403a_407_crm.c ****   *         - CRM_CLKOUT_USB
 689:/home/y/github/EmbeddedSoftwareMCU/Libraries/AT32/drivers/src/at32f403a_407_crm.c ****   *         - CRM_CLKOUT_ADC
 690:/home/y/github/EmbeddedSoftwareMCU/Libraries/AT32/drivers/src/at32f403a_407_crm.c ****   * @retval none
 691:/home/y/github/EmbeddedSoftwareMCU/Libraries/AT32/drivers/src/at32f403a_407_crm.c ****   */
 692:/home/y/github/EmbeddedSoftwareMCU/Libraries/AT32/drivers/src/at32f403a_407_crm.c **** void crm_clock_out_set(crm_clkout_select_type clkout)
 693:/home/y/github/EmbeddedSoftwareMCU/Libraries/AT32/drivers/src/at32f403a_407_crm.c **** {
 1270              		.loc 1 693 0
 1271              		.cfi_startproc
 1272              		@ args = 0, pretend = 0, frame = 0
 1273              		@ frame_needed = 0, uses_anonymous_args = 0
 1274              		@ link register save eliminated.
 1275              	.LVL88:
 694:/home/y/github/EmbeddedSoftwareMCU/Libraries/AT32/drivers/src/at32f403a_407_crm.c ****   CRM->cfg_bit.clkout_sel = clkout & 0x7;
 1276              		.loc 1 694 0
 1277 0000 054B     		ldr	r3, .L128
 1278 0002 5A68     		ldr	r2, [r3, #4]
 1279 0004 60F31A62 		bfi	r2, r0, #24, #3
 1280 0008 5A60     		str	r2, [r3, #4]
 695:/home/y/github/EmbeddedSoftwareMCU/Libraries/AT32/drivers/src/at32f403a_407_crm.c ****   CRM->misc1_bit.clkout_sel = (clkout >> 3) & 0x1;
 1281              		.loc 1 695 0
 1282 000a C0F3C000 		ubfx	r0, r0, #3, #1
 1283              	.LVL89:
 1284 000e 1A6B     		ldr	r2, [r3, #48]
 1285 0010 60F31042 		bfi	r2, r0, #16, #1
 1286 0014 1A63     		str	r2, [r3, #48]
 1287 0016 7047     		bx	lr
 1288              	.L129:
 1289              		.align	2
 1290              	.L128:
 1291 0018 00100240 		.word	1073876992
 1292              		.cfi_endproc
 1293              	.LFE158:
 1295              		.section	.text.crm_interrupt_enable,"ax",%progbits
 1296              		.align	1
 1297              		.global	crm_interrupt_enable
 1298              		.syntax unified
 1299              		.thumb
 1300              		.thumb_func
 1301              		.fpu softvfp
 1303              	crm_interrupt_enable:
 1304              	.LFB159:
 696:/home/y/github/EmbeddedSoftwareMCU/Libraries/AT32/drivers/src/at32f403a_407_crm.c **** }
 697:/home/y/github/EmbeddedSoftwareMCU/Libraries/AT32/drivers/src/at32f403a_407_crm.c **** 
 698:/home/y/github/EmbeddedSoftwareMCU/Libraries/AT32/drivers/src/at32f403a_407_crm.c **** /**
 699:/home/y/github/EmbeddedSoftwareMCU/Libraries/AT32/drivers/src/at32f403a_407_crm.c ****   * @brief  config crm interrupt
 700:/home/y/github/EmbeddedSoftwareMCU/Libraries/AT32/drivers/src/at32f403a_407_crm.c ****   * @param  int
 701:/home/y/github/EmbeddedSoftwareMCU/Libraries/AT32/drivers/src/at32f403a_407_crm.c ****   *         this parameter can be any combination of the following values:
 702:/home/y/github/EmbeddedSoftwareMCU/Libraries/AT32/drivers/src/at32f403a_407_crm.c ****   *         - CRM_LICK_STABLE_INT
 703:/home/y/github/EmbeddedSoftwareMCU/Libraries/AT32/drivers/src/at32f403a_407_crm.c ****   *         - CRM_LEXT_STABLE_INT
 704:/home/y/github/EmbeddedSoftwareMCU/Libraries/AT32/drivers/src/at32f403a_407_crm.c ****   *         - CRM_HICK_STABLE_INT
 705:/home/y/github/EmbeddedSoftwareMCU/Libraries/AT32/drivers/src/at32f403a_407_crm.c ****   *         - CRM_HEXT_STABLE_INT
 706:/home/y/github/EmbeddedSoftwareMCU/Libraries/AT32/drivers/src/at32f403a_407_crm.c ****   *         - CRM_PLL_STABLE_INT
ARM GAS  /tmp/ccn3b2SJ.s 			page 36


 707:/home/y/github/EmbeddedSoftwareMCU/Libraries/AT32/drivers/src/at32f403a_407_crm.c ****   * @param  new_state (TRUE or FALSE)
 708:/home/y/github/EmbeddedSoftwareMCU/Libraries/AT32/drivers/src/at32f403a_407_crm.c ****   * @retval none
 709:/home/y/github/EmbeddedSoftwareMCU/Libraries/AT32/drivers/src/at32f403a_407_crm.c ****   */
 710:/home/y/github/EmbeddedSoftwareMCU/Libraries/AT32/drivers/src/at32f403a_407_crm.c **** void crm_interrupt_enable(uint32_t crm_int, confirm_state new_state)
 711:/home/y/github/EmbeddedSoftwareMCU/Libraries/AT32/drivers/src/at32f403a_407_crm.c **** {
 1305              		.loc 1 711 0
 1306              		.cfi_startproc
 1307              		@ args = 0, pretend = 0, frame = 0
 1308              		@ frame_needed = 0, uses_anonymous_args = 0
 1309              		@ link register save eliminated.
 1310              	.LVL90:
 712:/home/y/github/EmbeddedSoftwareMCU/Libraries/AT32/drivers/src/at32f403a_407_crm.c ****   if(new_state == TRUE)
 1311              		.loc 1 712 0
 1312 0000 0129     		cmp	r1, #1
 1313 0002 05D0     		beq	.L133
 713:/home/y/github/EmbeddedSoftwareMCU/Libraries/AT32/drivers/src/at32f403a_407_crm.c ****     CRM->clkint |= crm_int;
 714:/home/y/github/EmbeddedSoftwareMCU/Libraries/AT32/drivers/src/at32f403a_407_crm.c ****   else
 715:/home/y/github/EmbeddedSoftwareMCU/Libraries/AT32/drivers/src/at32f403a_407_crm.c ****     CRM->clkint &= ~crm_int;
 1314              		.loc 1 715 0
 1315 0004 054A     		ldr	r2, .L134
 1316 0006 9368     		ldr	r3, [r2, #8]
 1317 0008 23EA0000 		bic	r0, r3, r0
 1318              	.LVL91:
 1319 000c 9060     		str	r0, [r2, #8]
 1320 000e 7047     		bx	lr
 1321              	.LVL92:
 1322              	.L133:
 713:/home/y/github/EmbeddedSoftwareMCU/Libraries/AT32/drivers/src/at32f403a_407_crm.c ****     CRM->clkint |= crm_int;
 1323              		.loc 1 713 0
 1324 0010 024A     		ldr	r2, .L134
 1325 0012 9368     		ldr	r3, [r2, #8]
 1326 0014 1843     		orrs	r0, r0, r3
 1327              	.LVL93:
 1328 0016 9060     		str	r0, [r2, #8]
 1329 0018 7047     		bx	lr
 1330              	.L135:
 1331 001a 00BF     		.align	2
 1332              	.L134:
 1333 001c 00100240 		.word	1073876992
 1334              		.cfi_endproc
 1335              	.LFE159:
 1337              		.section	.text.crm_auto_step_mode_enable,"ax",%progbits
 1338              		.align	1
 1339              		.global	crm_auto_step_mode_enable
 1340              		.syntax unified
 1341              		.thumb
 1342              		.thumb_func
 1343              		.fpu softvfp
 1345              	crm_auto_step_mode_enable:
 1346              	.LFB160:
 716:/home/y/github/EmbeddedSoftwareMCU/Libraries/AT32/drivers/src/at32f403a_407_crm.c **** }
 717:/home/y/github/EmbeddedSoftwareMCU/Libraries/AT32/drivers/src/at32f403a_407_crm.c **** 
 718:/home/y/github/EmbeddedSoftwareMCU/Libraries/AT32/drivers/src/at32f403a_407_crm.c **** /**
 719:/home/y/github/EmbeddedSoftwareMCU/Libraries/AT32/drivers/src/at32f403a_407_crm.c ****   * @brief  auto step clock switch enable
 720:/home/y/github/EmbeddedSoftwareMCU/Libraries/AT32/drivers/src/at32f403a_407_crm.c ****   * @param  new_state (TRUE or FALSE)
 721:/home/y/github/EmbeddedSoftwareMCU/Libraries/AT32/drivers/src/at32f403a_407_crm.c ****   * @retval none
 722:/home/y/github/EmbeddedSoftwareMCU/Libraries/AT32/drivers/src/at32f403a_407_crm.c ****   */
ARM GAS  /tmp/ccn3b2SJ.s 			page 37


 723:/home/y/github/EmbeddedSoftwareMCU/Libraries/AT32/drivers/src/at32f403a_407_crm.c **** void crm_auto_step_mode_enable(confirm_state new_state)
 724:/home/y/github/EmbeddedSoftwareMCU/Libraries/AT32/drivers/src/at32f403a_407_crm.c **** {
 1347              		.loc 1 724 0
 1348              		.cfi_startproc
 1349              		@ args = 0, pretend = 0, frame = 0
 1350              		@ frame_needed = 0, uses_anonymous_args = 0
 1351              		@ link register save eliminated.
 1352              	.LVL94:
 725:/home/y/github/EmbeddedSoftwareMCU/Libraries/AT32/drivers/src/at32f403a_407_crm.c ****   if(new_state == TRUE)
 1353              		.loc 1 725 0
 1354 0000 0128     		cmp	r0, #1
 1355 0002 05D0     		beq	.L139
 726:/home/y/github/EmbeddedSoftwareMCU/Libraries/AT32/drivers/src/at32f403a_407_crm.c ****     CRM->misc3_bit.auto_step_en = CRM_AUTO_STEP_MODE_ENABLE;
 727:/home/y/github/EmbeddedSoftwareMCU/Libraries/AT32/drivers/src/at32f403a_407_crm.c ****   else
 728:/home/y/github/EmbeddedSoftwareMCU/Libraries/AT32/drivers/src/at32f403a_407_crm.c ****     CRM->misc3_bit.auto_step_en = CRM_AUTO_STEP_MODE_DISABLE;
 1356              		.loc 1 728 0
 1357 0004 054B     		ldr	r3, .L140
 1358 0006 5A6D     		ldr	r2, [r3, #84]
 1359 0008 6FF30512 		bfc	r2, #4, #2
 1360 000c 5A65     		str	r2, [r3, #84]
 1361 000e 7047     		bx	lr
 1362              	.L139:
 726:/home/y/github/EmbeddedSoftwareMCU/Libraries/AT32/drivers/src/at32f403a_407_crm.c ****     CRM->misc3_bit.auto_step_en = CRM_AUTO_STEP_MODE_ENABLE;
 1363              		.loc 1 726 0
 1364 0010 024A     		ldr	r2, .L140
 1365 0012 536D     		ldr	r3, [r2, #84]
 1366 0014 43F03003 		orr	r3, r3, #48
 1367 0018 5365     		str	r3, [r2, #84]
 1368 001a 7047     		bx	lr
 1369              	.L141:
 1370              		.align	2
 1371              	.L140:
 1372 001c 00100240 		.word	1073876992
 1373              		.cfi_endproc
 1374              	.LFE160:
 1376              		.section	.text.crm_usb_interrupt_remapping_set,"ax",%progbits
 1377              		.align	1
 1378              		.global	crm_usb_interrupt_remapping_set
 1379              		.syntax unified
 1380              		.thumb
 1381              		.thumb_func
 1382              		.fpu softvfp
 1384              	crm_usb_interrupt_remapping_set:
 1385              	.LFB161:
 729:/home/y/github/EmbeddedSoftwareMCU/Libraries/AT32/drivers/src/at32f403a_407_crm.c **** }
 730:/home/y/github/EmbeddedSoftwareMCU/Libraries/AT32/drivers/src/at32f403a_407_crm.c **** 
 731:/home/y/github/EmbeddedSoftwareMCU/Libraries/AT32/drivers/src/at32f403a_407_crm.c **** /**
 732:/home/y/github/EmbeddedSoftwareMCU/Libraries/AT32/drivers/src/at32f403a_407_crm.c ****   * @brief  usbdev interrupt remapping control
 733:/home/y/github/EmbeddedSoftwareMCU/Libraries/AT32/drivers/src/at32f403a_407_crm.c ****   * @param  int_remap
 734:/home/y/github/EmbeddedSoftwareMCU/Libraries/AT32/drivers/src/at32f403a_407_crm.c ****   *         this parameter can be one of the following values:
 735:/home/y/github/EmbeddedSoftwareMCU/Libraries/AT32/drivers/src/at32f403a_407_crm.c ****   *         - CRM_USB_INT19_INT20
 736:/home/y/github/EmbeddedSoftwareMCU/Libraries/AT32/drivers/src/at32f403a_407_crm.c ****   *         - CRM_USB_INT73_INT74
 737:/home/y/github/EmbeddedSoftwareMCU/Libraries/AT32/drivers/src/at32f403a_407_crm.c ****   * @retval none
 738:/home/y/github/EmbeddedSoftwareMCU/Libraries/AT32/drivers/src/at32f403a_407_crm.c ****   */
 739:/home/y/github/EmbeddedSoftwareMCU/Libraries/AT32/drivers/src/at32f403a_407_crm.c **** void crm_usb_interrupt_remapping_set(crm_usb_int_map_type int_remap)
 740:/home/y/github/EmbeddedSoftwareMCU/Libraries/AT32/drivers/src/at32f403a_407_crm.c **** {
 1386              		.loc 1 740 0
ARM GAS  /tmp/ccn3b2SJ.s 			page 38


 1387              		.cfi_startproc
 1388              		@ args = 0, pretend = 0, frame = 0
 1389              		@ frame_needed = 0, uses_anonymous_args = 0
 1390              		@ link register save eliminated.
 1391              	.LVL95:
 741:/home/y/github/EmbeddedSoftwareMCU/Libraries/AT32/drivers/src/at32f403a_407_crm.c ****   CRM->intmap_bit.usbintmap = int_remap;
 1392              		.loc 1 741 0
 1393 0000 024B     		ldr	r3, .L143
 1394 0002 DA6D     		ldr	r2, [r3, #92]
 1395 0004 60F30002 		bfi	r2, r0, #0, #1
 1396 0008 DA65     		str	r2, [r3, #92]
 1397 000a 7047     		bx	lr
 1398              	.L144:
 1399              		.align	2
 1400              	.L143:
 1401 000c 00100240 		.word	1073876992
 1402              		.cfi_endproc
 1403              	.LFE161:
 1405              		.section	.text.crm_hick_divider_select,"ax",%progbits
 1406              		.align	1
 1407              		.global	crm_hick_divider_select
 1408              		.syntax unified
 1409              		.thumb
 1410              		.thumb_func
 1411              		.fpu softvfp
 1413              	crm_hick_divider_select:
 1414              	.LFB162:
 742:/home/y/github/EmbeddedSoftwareMCU/Libraries/AT32/drivers/src/at32f403a_407_crm.c **** }
 743:/home/y/github/EmbeddedSoftwareMCU/Libraries/AT32/drivers/src/at32f403a_407_crm.c **** 
 744:/home/y/github/EmbeddedSoftwareMCU/Libraries/AT32/drivers/src/at32f403a_407_crm.c **** /**
 745:/home/y/github/EmbeddedSoftwareMCU/Libraries/AT32/drivers/src/at32f403a_407_crm.c ****   * @brief  config hick divider select
 746:/home/y/github/EmbeddedSoftwareMCU/Libraries/AT32/drivers/src/at32f403a_407_crm.c ****   * @param  value
 747:/home/y/github/EmbeddedSoftwareMCU/Libraries/AT32/drivers/src/at32f403a_407_crm.c ****   *         this parameter can be one of the following values:
 748:/home/y/github/EmbeddedSoftwareMCU/Libraries/AT32/drivers/src/at32f403a_407_crm.c ****   *         - CRM_HICK48_DIV6
 749:/home/y/github/EmbeddedSoftwareMCU/Libraries/AT32/drivers/src/at32f403a_407_crm.c ****   *         - CRM_HICK48_NODIV
 750:/home/y/github/EmbeddedSoftwareMCU/Libraries/AT32/drivers/src/at32f403a_407_crm.c ****   * @retval none
 751:/home/y/github/EmbeddedSoftwareMCU/Libraries/AT32/drivers/src/at32f403a_407_crm.c ****   */
 752:/home/y/github/EmbeddedSoftwareMCU/Libraries/AT32/drivers/src/at32f403a_407_crm.c **** void crm_hick_divider_select(crm_hick_div_6_type value)
 753:/home/y/github/EmbeddedSoftwareMCU/Libraries/AT32/drivers/src/at32f403a_407_crm.c **** {
 1415              		.loc 1 753 0
 1416              		.cfi_startproc
 1417              		@ args = 0, pretend = 0, frame = 0
 1418              		@ frame_needed = 0, uses_anonymous_args = 0
 1419              		@ link register save eliminated.
 1420              	.LVL96:
 754:/home/y/github/EmbeddedSoftwareMCU/Libraries/AT32/drivers/src/at32f403a_407_crm.c ****   CRM->misc1_bit.hickdiv = value;
 1421              		.loc 1 754 0
 1422 0000 024B     		ldr	r3, .L146
 1423 0002 1A6B     		ldr	r2, [r3, #48]
 1424 0004 60F35962 		bfi	r2, r0, #25, #1
 1425 0008 1A63     		str	r2, [r3, #48]
 1426 000a 7047     		bx	lr
 1427              	.L147:
 1428              		.align	2
 1429              	.L146:
 1430 000c 00100240 		.word	1073876992
 1431              		.cfi_endproc
ARM GAS  /tmp/ccn3b2SJ.s 			page 39


 1432              	.LFE162:
 1434              		.section	.text.crm_hick_sclk_frequency_select,"ax",%progbits
 1435              		.align	1
 1436              		.global	crm_hick_sclk_frequency_select
 1437              		.syntax unified
 1438              		.thumb
 1439              		.thumb_func
 1440              		.fpu softvfp
 1442              	crm_hick_sclk_frequency_select:
 1443              	.LFB163:
 755:/home/y/github/EmbeddedSoftwareMCU/Libraries/AT32/drivers/src/at32f403a_407_crm.c **** }
 756:/home/y/github/EmbeddedSoftwareMCU/Libraries/AT32/drivers/src/at32f403a_407_crm.c **** 
 757:/home/y/github/EmbeddedSoftwareMCU/Libraries/AT32/drivers/src/at32f403a_407_crm.c **** /**
 758:/home/y/github/EmbeddedSoftwareMCU/Libraries/AT32/drivers/src/at32f403a_407_crm.c ****   * @brief  hick as system clock frequency select
 759:/home/y/github/EmbeddedSoftwareMCU/Libraries/AT32/drivers/src/at32f403a_407_crm.c ****   * @param  value
 760:/home/y/github/EmbeddedSoftwareMCU/Libraries/AT32/drivers/src/at32f403a_407_crm.c ****   *         this parameter can be one of the following values:
 761:/home/y/github/EmbeddedSoftwareMCU/Libraries/AT32/drivers/src/at32f403a_407_crm.c ****   *         - CRM_HICK_SCLK_8MHZ
 762:/home/y/github/EmbeddedSoftwareMCU/Libraries/AT32/drivers/src/at32f403a_407_crm.c ****   *         - CRM_HICK_SCLK_48MHZ
 763:/home/y/github/EmbeddedSoftwareMCU/Libraries/AT32/drivers/src/at32f403a_407_crm.c ****   * @retval none
 764:/home/y/github/EmbeddedSoftwareMCU/Libraries/AT32/drivers/src/at32f403a_407_crm.c ****   */
 765:/home/y/github/EmbeddedSoftwareMCU/Libraries/AT32/drivers/src/at32f403a_407_crm.c **** void crm_hick_sclk_frequency_select(crm_hick_sclk_frequency_type value)
 766:/home/y/github/EmbeddedSoftwareMCU/Libraries/AT32/drivers/src/at32f403a_407_crm.c **** {
 1444              		.loc 1 766 0
 1445              		.cfi_startproc
 1446              		@ args = 0, pretend = 0, frame = 0
 1447              		@ frame_needed = 0, uses_anonymous_args = 0
 1448              	.LVL97:
 1449 0000 10B5     		push	{r4, lr}
 1450              	.LCFI5:
 1451              		.cfi_def_cfa_offset 8
 1452              		.cfi_offset 4, -8
 1453              		.cfi_offset 14, -4
 1454 0002 0446     		mov	r4, r0
 767:/home/y/github/EmbeddedSoftwareMCU/Libraries/AT32/drivers/src/at32f403a_407_crm.c ****   crm_hick_divider_select(CRM_HICK48_NODIV);
 1455              		.loc 1 767 0
 1456 0004 0120     		movs	r0, #1
 1457              	.LVL98:
 1458 0006 FFF7FEFF 		bl	crm_hick_divider_select
 1459              	.LVL99:
 768:/home/y/github/EmbeddedSoftwareMCU/Libraries/AT32/drivers/src/at32f403a_407_crm.c ****   CRM->misc3_bit.hick_to_sclk = value;
 1460              		.loc 1 768 0
 1461 000a 034B     		ldr	r3, .L150
 1462 000c 5A6D     		ldr	r2, [r3, #84]
 1463 000e 64F34922 		bfi	r2, r4, #9, #1
 1464 0012 5A65     		str	r2, [r3, #84]
 1465 0014 10BD     		pop	{r4, pc}
 1466              	.L151:
 1467 0016 00BF     		.align	2
 1468              	.L150:
 1469 0018 00100240 		.word	1073876992
 1470              		.cfi_endproc
 1471              	.LFE163:
 1473              		.section	.text.crm_usb_clock_source_select,"ax",%progbits
 1474              		.align	1
 1475              		.global	crm_usb_clock_source_select
 1476              		.syntax unified
 1477              		.thumb
ARM GAS  /tmp/ccn3b2SJ.s 			page 40


 1478              		.thumb_func
 1479              		.fpu softvfp
 1481              	crm_usb_clock_source_select:
 1482              	.LFB164:
 769:/home/y/github/EmbeddedSoftwareMCU/Libraries/AT32/drivers/src/at32f403a_407_crm.c **** }
 770:/home/y/github/EmbeddedSoftwareMCU/Libraries/AT32/drivers/src/at32f403a_407_crm.c **** 
 771:/home/y/github/EmbeddedSoftwareMCU/Libraries/AT32/drivers/src/at32f403a_407_crm.c **** /**
 772:/home/y/github/EmbeddedSoftwareMCU/Libraries/AT32/drivers/src/at32f403a_407_crm.c ****   * @brief  usb 48 mhz clock source select
 773:/home/y/github/EmbeddedSoftwareMCU/Libraries/AT32/drivers/src/at32f403a_407_crm.c ****   * @param  value
 774:/home/y/github/EmbeddedSoftwareMCU/Libraries/AT32/drivers/src/at32f403a_407_crm.c ****   *         this parameter can be one of the following values:
 775:/home/y/github/EmbeddedSoftwareMCU/Libraries/AT32/drivers/src/at32f403a_407_crm.c ****   *         - CRM_USB_CLOCK_SOURCE_PLL
 776:/home/y/github/EmbeddedSoftwareMCU/Libraries/AT32/drivers/src/at32f403a_407_crm.c ****   *         - CRM_USB_CLOCK_SOURCE_HICK
 777:/home/y/github/EmbeddedSoftwareMCU/Libraries/AT32/drivers/src/at32f403a_407_crm.c ****   * @retval none
 778:/home/y/github/EmbeddedSoftwareMCU/Libraries/AT32/drivers/src/at32f403a_407_crm.c ****   */
 779:/home/y/github/EmbeddedSoftwareMCU/Libraries/AT32/drivers/src/at32f403a_407_crm.c **** void crm_usb_clock_source_select(crm_usb_clock_source_type value)
 780:/home/y/github/EmbeddedSoftwareMCU/Libraries/AT32/drivers/src/at32f403a_407_crm.c **** {
 1483              		.loc 1 780 0
 1484              		.cfi_startproc
 1485              		@ args = 0, pretend = 0, frame = 0
 1486              		@ frame_needed = 0, uses_anonymous_args = 0
 1487              	.LVL100:
 1488 0000 10B5     		push	{r4, lr}
 1489              	.LCFI6:
 1490              		.cfi_def_cfa_offset 8
 1491              		.cfi_offset 4, -8
 1492              		.cfi_offset 14, -4
 1493 0002 0446     		mov	r4, r0
 781:/home/y/github/EmbeddedSoftwareMCU/Libraries/AT32/drivers/src/at32f403a_407_crm.c ****   if(value == CRM_USB_CLOCK_SOURCE_HICK)
 1494              		.loc 1 781 0
 1495 0004 0128     		cmp	r0, #1
 1496 0006 05D0     		beq	.L155
 1497              	.LVL101:
 1498              	.L153:
 782:/home/y/github/EmbeddedSoftwareMCU/Libraries/AT32/drivers/src/at32f403a_407_crm.c ****   {
 783:/home/y/github/EmbeddedSoftwareMCU/Libraries/AT32/drivers/src/at32f403a_407_crm.c ****     crm_hick_sclk_frequency_select(CRM_HICK_SCLK_48MHZ);
 784:/home/y/github/EmbeddedSoftwareMCU/Libraries/AT32/drivers/src/at32f403a_407_crm.c ****   }
 785:/home/y/github/EmbeddedSoftwareMCU/Libraries/AT32/drivers/src/at32f403a_407_crm.c ****   CRM->misc3_bit.hick_to_usb = value;
 1499              		.loc 1 785 0
 1500 0008 044B     		ldr	r3, .L156
 1501 000a 5A6D     		ldr	r2, [r3, #84]
 1502 000c 64F30822 		bfi	r2, r4, #8, #1
 1503 0010 5A65     		str	r2, [r3, #84]
 1504 0012 10BD     		pop	{r4, pc}
 1505              	.LVL102:
 1506              	.L155:
 783:/home/y/github/EmbeddedSoftwareMCU/Libraries/AT32/drivers/src/at32f403a_407_crm.c ****   }
 1507              		.loc 1 783 0
 1508 0014 0120     		movs	r0, #1
 1509              	.LVL103:
 1510 0016 FFF7FEFF 		bl	crm_hick_sclk_frequency_select
 1511              	.LVL104:
 1512 001a F5E7     		b	.L153
 1513              	.L157:
 1514              		.align	2
 1515              	.L156:
 1516 001c 00100240 		.word	1073876992
 1517              		.cfi_endproc
ARM GAS  /tmp/ccn3b2SJ.s 			page 41


 1518              	.LFE164:
 1520              		.section	.text.crm_clkout_to_tmr10_enable,"ax",%progbits
 1521              		.align	1
 1522              		.global	crm_clkout_to_tmr10_enable
 1523              		.syntax unified
 1524              		.thumb
 1525              		.thumb_func
 1526              		.fpu softvfp
 1528              	crm_clkout_to_tmr10_enable:
 1529              	.LFB165:
 786:/home/y/github/EmbeddedSoftwareMCU/Libraries/AT32/drivers/src/at32f403a_407_crm.c **** }
 787:/home/y/github/EmbeddedSoftwareMCU/Libraries/AT32/drivers/src/at32f403a_407_crm.c **** 
 788:/home/y/github/EmbeddedSoftwareMCU/Libraries/AT32/drivers/src/at32f403a_407_crm.c **** /**
 789:/home/y/github/EmbeddedSoftwareMCU/Libraries/AT32/drivers/src/at32f403a_407_crm.c ****   * @brief  enable or disable clkout direct to tmr10 channel 1
 790:/home/y/github/EmbeddedSoftwareMCU/Libraries/AT32/drivers/src/at32f403a_407_crm.c ****   * @param  new_state (TRUE or FALSE)
 791:/home/y/github/EmbeddedSoftwareMCU/Libraries/AT32/drivers/src/at32f403a_407_crm.c ****   * @retval none
 792:/home/y/github/EmbeddedSoftwareMCU/Libraries/AT32/drivers/src/at32f403a_407_crm.c ****   */
 793:/home/y/github/EmbeddedSoftwareMCU/Libraries/AT32/drivers/src/at32f403a_407_crm.c **** void crm_clkout_to_tmr10_enable(confirm_state new_state)
 794:/home/y/github/EmbeddedSoftwareMCU/Libraries/AT32/drivers/src/at32f403a_407_crm.c **** {
 1530              		.loc 1 794 0
 1531              		.cfi_startproc
 1532              		@ args = 0, pretend = 0, frame = 0
 1533              		@ frame_needed = 0, uses_anonymous_args = 0
 1534              		@ link register save eliminated.
 1535              	.LVL105:
 795:/home/y/github/EmbeddedSoftwareMCU/Libraries/AT32/drivers/src/at32f403a_407_crm.c ****   CRM->misc2_bit.clk_to_tmr = new_state;
 1536              		.loc 1 795 0
 1537 0000 024B     		ldr	r3, .L159
 1538 0002 1A6D     		ldr	r2, [r3, #80]
 1539 0004 60F31042 		bfi	r2, r0, #16, #1
 1540 0008 1A65     		str	r2, [r3, #80]
 1541 000a 7047     		bx	lr
 1542              	.L160:
 1543              		.align	2
 1544              	.L159:
 1545 000c 00100240 		.word	1073876992
 1546              		.cfi_endproc
 1547              	.LFE165:
 1549              		.section	.text.crm_hext_clock_div_set,"ax",%progbits
 1550              		.align	1
 1551              		.global	crm_hext_clock_div_set
 1552              		.syntax unified
 1553              		.thumb
 1554              		.thumb_func
 1555              		.fpu softvfp
 1557              	crm_hext_clock_div_set:
 1558              	.LFB166:
 796:/home/y/github/EmbeddedSoftwareMCU/Libraries/AT32/drivers/src/at32f403a_407_crm.c **** }
 797:/home/y/github/EmbeddedSoftwareMCU/Libraries/AT32/drivers/src/at32f403a_407_crm.c **** 
 798:/home/y/github/EmbeddedSoftwareMCU/Libraries/AT32/drivers/src/at32f403a_407_crm.c **** /**
 799:/home/y/github/EmbeddedSoftwareMCU/Libraries/AT32/drivers/src/at32f403a_407_crm.c ****   * @brief  set hext clock division
 800:/home/y/github/EmbeddedSoftwareMCU/Libraries/AT32/drivers/src/at32f403a_407_crm.c ****   * @param  value
 801:/home/y/github/EmbeddedSoftwareMCU/Libraries/AT32/drivers/src/at32f403a_407_crm.c ****   *         this parameter can be one of the following values:
 802:/home/y/github/EmbeddedSoftwareMCU/Libraries/AT32/drivers/src/at32f403a_407_crm.c ****   *         - CRM_HEXT_DIV_2
 803:/home/y/github/EmbeddedSoftwareMCU/Libraries/AT32/drivers/src/at32f403a_407_crm.c ****   *         - CRM_HEXT_DIV_3
 804:/home/y/github/EmbeddedSoftwareMCU/Libraries/AT32/drivers/src/at32f403a_407_crm.c ****   *         - CRM_HEXT_DIV_4
 805:/home/y/github/EmbeddedSoftwareMCU/Libraries/AT32/drivers/src/at32f403a_407_crm.c ****   *         - CRM_HEXT_DIV_5
ARM GAS  /tmp/ccn3b2SJ.s 			page 42


 806:/home/y/github/EmbeddedSoftwareMCU/Libraries/AT32/drivers/src/at32f403a_407_crm.c ****   * @retval none
 807:/home/y/github/EmbeddedSoftwareMCU/Libraries/AT32/drivers/src/at32f403a_407_crm.c ****   */
 808:/home/y/github/EmbeddedSoftwareMCU/Libraries/AT32/drivers/src/at32f403a_407_crm.c **** void crm_hext_clock_div_set(crm_hext_div_type value)
 809:/home/y/github/EmbeddedSoftwareMCU/Libraries/AT32/drivers/src/at32f403a_407_crm.c **** {
 1559              		.loc 1 809 0
 1560              		.cfi_startproc
 1561              		@ args = 0, pretend = 0, frame = 0
 1562              		@ frame_needed = 0, uses_anonymous_args = 0
 1563              		@ link register save eliminated.
 1564              	.LVL106:
 810:/home/y/github/EmbeddedSoftwareMCU/Libraries/AT32/drivers/src/at32f403a_407_crm.c ****   CRM->misc3_bit.hextdiv = value;
 1565              		.loc 1 810 0
 1566 0000 024B     		ldr	r3, .L162
 1567 0002 5A6D     		ldr	r2, [r3, #84]
 1568 0004 60F30D32 		bfi	r2, r0, #12, #2
 1569 0008 5A65     		str	r2, [r3, #84]
 1570 000a 7047     		bx	lr
 1571              	.L163:
 1572              		.align	2
 1573              	.L162:
 1574 000c 00100240 		.word	1073876992
 1575              		.cfi_endproc
 1576              	.LFE166:
 1578              		.section	.text.crm_clkout_div_set,"ax",%progbits
 1579              		.align	1
 1580              		.global	crm_clkout_div_set
 1581              		.syntax unified
 1582              		.thumb
 1583              		.thumb_func
 1584              		.fpu softvfp
 1586              	crm_clkout_div_set:
 1587              	.LFB167:
 811:/home/y/github/EmbeddedSoftwareMCU/Libraries/AT32/drivers/src/at32f403a_407_crm.c **** }
 812:/home/y/github/EmbeddedSoftwareMCU/Libraries/AT32/drivers/src/at32f403a_407_crm.c **** 
 813:/home/y/github/EmbeddedSoftwareMCU/Libraries/AT32/drivers/src/at32f403a_407_crm.c **** /**
 814:/home/y/github/EmbeddedSoftwareMCU/Libraries/AT32/drivers/src/at32f403a_407_crm.c ****   * @brief  set crm clkout division
 815:/home/y/github/EmbeddedSoftwareMCU/Libraries/AT32/drivers/src/at32f403a_407_crm.c ****   * @param  clkout_div
 816:/home/y/github/EmbeddedSoftwareMCU/Libraries/AT32/drivers/src/at32f403a_407_crm.c ****   *         this parameter can be one of the following values:
 817:/home/y/github/EmbeddedSoftwareMCU/Libraries/AT32/drivers/src/at32f403a_407_crm.c ****   *         - CRM_CLKOUT_DIV_1
 818:/home/y/github/EmbeddedSoftwareMCU/Libraries/AT32/drivers/src/at32f403a_407_crm.c ****   *         - CRM_CLKOUT_DIV_2
 819:/home/y/github/EmbeddedSoftwareMCU/Libraries/AT32/drivers/src/at32f403a_407_crm.c ****   *         - CRM_CLKOUT_DIV_4
 820:/home/y/github/EmbeddedSoftwareMCU/Libraries/AT32/drivers/src/at32f403a_407_crm.c ****   *         - CRM_CLKOUT_DIV_8
 821:/home/y/github/EmbeddedSoftwareMCU/Libraries/AT32/drivers/src/at32f403a_407_crm.c ****   *         - CRM_CLKOUT_DIV_16
 822:/home/y/github/EmbeddedSoftwareMCU/Libraries/AT32/drivers/src/at32f403a_407_crm.c ****   *         - CRM_CLKOUT_DIV_64
 823:/home/y/github/EmbeddedSoftwareMCU/Libraries/AT32/drivers/src/at32f403a_407_crm.c ****   *         - CRM_CLKOUT_DIV_128
 824:/home/y/github/EmbeddedSoftwareMCU/Libraries/AT32/drivers/src/at32f403a_407_crm.c ****   *         - CRM_CLKOUT_DIV_256
 825:/home/y/github/EmbeddedSoftwareMCU/Libraries/AT32/drivers/src/at32f403a_407_crm.c ****   *         - CRM_CLKOUT_DIV_512
 826:/home/y/github/EmbeddedSoftwareMCU/Libraries/AT32/drivers/src/at32f403a_407_crm.c ****   * @retval none
 827:/home/y/github/EmbeddedSoftwareMCU/Libraries/AT32/drivers/src/at32f403a_407_crm.c ****   */
 828:/home/y/github/EmbeddedSoftwareMCU/Libraries/AT32/drivers/src/at32f403a_407_crm.c **** void crm_clkout_div_set(crm_clkout_div_type clkout_div)
 829:/home/y/github/EmbeddedSoftwareMCU/Libraries/AT32/drivers/src/at32f403a_407_crm.c **** {
 1588              		.loc 1 829 0
 1589              		.cfi_startproc
 1590              		@ args = 0, pretend = 0, frame = 0
 1591              		@ frame_needed = 0, uses_anonymous_args = 0
 1592              		@ link register save eliminated.
 1593              	.LVL107:
ARM GAS  /tmp/ccn3b2SJ.s 			page 43


 830:/home/y/github/EmbeddedSoftwareMCU/Libraries/AT32/drivers/src/at32f403a_407_crm.c ****   CRM->misc1_bit.clkoutdiv = clkout_div;
 1594              		.loc 1 830 0
 1595 0000 024B     		ldr	r3, .L165
 1596 0002 1A6B     		ldr	r2, [r3, #48]
 1597 0004 60F31F72 		bfi	r2, r0, #28, #4
 1598 0008 1A63     		str	r2, [r3, #48]
 1599 000a 7047     		bx	lr
 1600              	.L166:
 1601              		.align	2
 1602              	.L165:
 1603 000c 00100240 		.word	1073876992
 1604              		.cfi_endproc
 1605              	.LFE167:
 1607              		.section	.rodata.adc_div_table.12798,"a",%progbits
 1608              		.align	2
 1609              		.set	.LANCHOR3,. + 0
 1612              	adc_div_table.12798:
 1613 0000 02       		.byte	2
 1614 0001 04       		.byte	4
 1615 0002 06       		.byte	6
 1616 0003 08       		.byte	8
 1617 0004 02       		.byte	2
 1618 0005 0C       		.byte	12
 1619 0006 08       		.byte	8
 1620 0007 10       		.byte	16
 1621              		.section	.rodata.ahb_apb1_div_table.12796,"a",%progbits
 1622              		.align	2
 1623              		.set	.LANCHOR1,. + 0
 1626              	ahb_apb1_div_table.12796:
 1627 0000 00       		.byte	0
 1628 0001 00       		.byte	0
 1629 0002 00       		.byte	0
 1630 0003 00       		.byte	0
 1631 0004 01       		.byte	1
 1632 0005 02       		.byte	2
 1633 0006 03       		.byte	3
 1634 0007 04       		.byte	4
 1635              		.section	.rodata.ahb_apb2_div_table.12797,"a",%progbits
 1636              		.align	2
 1637              		.set	.LANCHOR2,. + 0
 1640              	ahb_apb2_div_table.12797:
 1641 0000 00       		.byte	0
 1642 0001 00       		.byte	0
 1643 0002 00       		.byte	0
 1644 0003 00       		.byte	0
 1645 0004 01       		.byte	1
 1646 0005 02       		.byte	2
 1647 0006 03       		.byte	3
 1648 0007 04       		.byte	4
 1649              		.section	.rodata.sclk_ahb_div_table.12795,"a",%progbits
 1650              		.align	2
 1651              		.set	.LANCHOR0,. + 0
 1654              	sclk_ahb_div_table.12795:
 1655 0000 00       		.byte	0
 1656 0001 00       		.byte	0
 1657 0002 00       		.byte	0
 1658 0003 00       		.byte	0
ARM GAS  /tmp/ccn3b2SJ.s 			page 44


 1659 0004 00       		.byte	0
 1660 0005 00       		.byte	0
 1661 0006 00       		.byte	0
 1662 0007 00       		.byte	0
 1663 0008 01       		.byte	1
 1664 0009 02       		.byte	2
 1665 000a 03       		.byte	3
 1666 000b 04       		.byte	4
 1667 000c 06       		.byte	6
 1668 000d 07       		.byte	7
 1669 000e 08       		.byte	8
 1670 000f 09       		.byte	9
 1671              		.text
 1672              	.Letext0:
 1673              		.file 2 "/home/y/github/EmbeddedSoftwareMCU/Tools/gcc-arm-none-eabi-unix/arm-none-eabi/include/mac
 1674              		.file 3 "/home/y/github/EmbeddedSoftwareMCU/Tools/gcc-arm-none-eabi-unix/arm-none-eabi/include/sys
 1675              		.file 4 "/home/y/github/EmbeddedSoftwareMCU/Libraries/AT32/cmsis/cm4/core_support/core_cm4.h"
 1676              		.file 5 "/home/y/github/EmbeddedSoftwareMCU/Libraries/AT32/cmsis/cm4/device_support/system_at32f40
 1677              		.file 6 "/home/y/github/EmbeddedSoftwareMCU/Libraries/AT32/cmsis/cm4/device_support/at32f403a_407.
 1678              		.file 7 "/home/y/github/EmbeddedSoftwareMCU/Libraries/AT32/drivers/inc/at32f403a_407_crm.h"
 1679              		.file 8 "/home/y/github/EmbeddedSoftwareMCU/Libraries/AT32/drivers/inc/at32f403a_407_usb.h"
ARM GAS  /tmp/ccn3b2SJ.s 			page 45

