ARM GAS  /tmp/ccp73zUm.s 			page 1


   1              		.cpu cortex-m4
   2              		.eabi_attribute 20, 1
   3              		.eabi_attribute 21, 1
   4              		.eabi_attribute 23, 3
   5              		.eabi_attribute 24, 1
   6              		.eabi_attribute 25, 1
   7              		.eabi_attribute 26, 1
   8              		.eabi_attribute 30, 1
   9              		.eabi_attribute 34, 1
  10              		.eabi_attribute 18, 4
  11              		.file	"common.c"
  12              		.text
  13              	.Ltext0:
  14              		.cfi_sections	.debug_frame
  15              		.section	.text.log_put,"ax",%progbits
  16              		.align	1
  17              		.global	log_put
  18              		.syntax unified
  19              		.thumb
  20              		.thumb_func
  21              		.fpu softvfp
  23              	log_put:
  24              	.LFB134:
  25              		.file 1 "/home/y/github/EmbeddedSoftwareMCU/Common/common.c"
   1:/home/y/github/EmbeddedSoftwareMCU/Common/common.c **** #include "common.h"
   2:/home/y/github/EmbeddedSoftwareMCU/Common/common.c **** #include <stdarg.h>
   3:/home/y/github/EmbeddedSoftwareMCU/Common/common.c **** #include <stdio.h>
   4:/home/y/github/EmbeddedSoftwareMCU/Common/common.c **** #ifdef USING_USB
   5:/home/y/github/EmbeddedSoftwareMCU/Common/common.c **** #include "usbd_cdc_if.h"
   6:/home/y/github/EmbeddedSoftwareMCU/Common/common.c **** #endif
   7:/home/y/github/EmbeddedSoftwareMCU/Common/common.c **** 
   8:/home/y/github/EmbeddedSoftwareMCU/Common/common.c **** void log_put(const char * fmt,...) {
  26              		.loc 1 8 0
  27              		.cfi_startproc
  28              		@ args = 4, pretend = 16, frame = 8
  29              		@ frame_needed = 0, uses_anonymous_args = 1
  30              	.LVL0:
  31 0000 0FB4     		push	{r0, r1, r2, r3}
  32              	.LCFI0:
  33              		.cfi_def_cfa_offset 16
  34              		.cfi_offset 0, -16
  35              		.cfi_offset 1, -12
  36              		.cfi_offset 2, -8
  37              		.cfi_offset 3, -4
  38 0002 F0B5     		push	{r4, r5, r6, r7, lr}
  39              	.LCFI1:
  40              		.cfi_def_cfa_offset 36
  41              		.cfi_offset 4, -36
  42              		.cfi_offset 5, -32
  43              		.cfi_offset 6, -28
  44              		.cfi_offset 7, -24
  45              		.cfi_offset 14, -20
  46 0004 83B0     		sub	sp, sp, #12
  47              	.LCFI2:
  48              		.cfi_def_cfa_offset 48
  49 0006 08AB     		add	r3, sp, #32
  50 0008 53F8042B 		ldr	r2, [r3], #4
ARM GAS  /tmp/ccp73zUm.s 			page 2


   9:/home/y/github/EmbeddedSoftwareMCU/Common/common.c ****     va_list args;
  10:/home/y/github/EmbeddedSoftwareMCU/Common/common.c ****     size_t length;
  11:/home/y/github/EmbeddedSoftwareMCU/Common/common.c ****     static char log_buf[CONSOLEBUF_SIZE];
  12:/home/y/github/EmbeddedSoftwareMCU/Common/common.c ****     va_start(args, fmt);
  51              		.loc 1 12 0
  52 000c 0193     		str	r3, [sp, #4]
  13:/home/y/github/EmbeddedSoftwareMCU/Common/common.c ****     length = vsnprintf(log_buf, sizeof(log_buf) - 1, fmt, args);
  53              		.loc 1 13 0
  54 000e FF21     		movs	r1, #255
  55 0010 0D48     		ldr	r0, .L5
  56 0012 FFF7FEFF 		bl	vsnprintf
  57              	.LVL1:
  58 0016 0746     		mov	r7, r0
  59              	.LVL2:
  60              	.LBB2:
  14:/home/y/github/EmbeddedSoftwareMCU/Common/common.c ****     va_end(args);
  15:/home/y/github/EmbeddedSoftwareMCU/Common/common.c **** #ifdef USING_USB
  16:/home/y/github/EmbeddedSoftwareMCU/Common/common.c ****     CDC_Transmit_FS(log_buf, length);
  17:/home/y/github/EmbeddedSoftwareMCU/Common/common.c **** #endif
  18:/home/y/github/EmbeddedSoftwareMCU/Common/common.c **** #ifdef AT32
  19:/home/y/github/EmbeddedSoftwareMCU/Common/common.c ****     size_t usart2_tx_counter = 0;
  20:/home/y/github/EmbeddedSoftwareMCU/Common/common.c ****     for (int i = 0; i< length ; i++){
  61              		.loc 1 20 0
  62 0018 0024     		movs	r4, #0
  63              	.LBE2:
  19:/home/y/github/EmbeddedSoftwareMCU/Common/common.c ****     for (int i = 0; i< length ; i++){
  64              		.loc 1 19 0
  65 001a 2546     		mov	r5, r4
  66              	.LBB3:
  67              		.loc 1 20 0
  68 001c 0DE0     		b	.L2
  69              	.LVL3:
  70              	.L3:
  21:/home/y/github/EmbeddedSoftwareMCU/Common/common.c ****       while(usart_flag_get(USART1, USART_TDBE_FLAG) == RESET);
  71              		.loc 1 21 0 discriminator 1
  72 001e 8021     		movs	r1, #128
  73 0020 0A48     		ldr	r0, .L5+4
  74 0022 FFF7FEFF 		bl	usart_flag_get
  75              	.LVL4:
  76 0026 0028     		cmp	r0, #0
  77 0028 F9D0     		beq	.L3
  22:/home/y/github/EmbeddedSoftwareMCU/Common/common.c ****       usart_data_transmit(USART1, log_buf[usart2_tx_counter++]);
  78              		.loc 1 22 0 discriminator 2
  79 002a 6E1C     		adds	r6, r5, #1
  80              	.LVL5:
  81 002c 064B     		ldr	r3, .L5
  82 002e 595D     		ldrb	r1, [r3, r5]	@ zero_extendqisi2
  83 0030 0648     		ldr	r0, .L5+4
  84 0032 FFF7FEFF 		bl	usart_data_transmit
  85              	.LVL6:
  20:/home/y/github/EmbeddedSoftwareMCU/Common/common.c ****       while(usart_flag_get(USART1, USART_TDBE_FLAG) == RESET);
  86              		.loc 1 20 0 discriminator 2
  87 0036 0134     		adds	r4, r4, #1
  88              	.LVL7:
  89              		.loc 1 22 0 discriminator 2
  90 0038 3546     		mov	r5, r6
  91              	.LVL8:
ARM GAS  /tmp/ccp73zUm.s 			page 3


  92              	.L2:
  20:/home/y/github/EmbeddedSoftwareMCU/Common/common.c ****       while(usart_flag_get(USART1, USART_TDBE_FLAG) == RESET);
  93              		.loc 1 20 0 discriminator 1
  94 003a A742     		cmp	r7, r4
  95 003c EFD8     		bhi	.L3
  96              	.LBE3:
  23:/home/y/github/EmbeddedSoftwareMCU/Common/common.c ****     }
  24:/home/y/github/EmbeddedSoftwareMCU/Common/common.c **** #else
  25:/home/y/github/EmbeddedSoftwareMCU/Common/common.c ****     HAL_UART_Transmit(&huart1, (uint8_t*)log_buf, length, 0xFFFF);
  26:/home/y/github/EmbeddedSoftwareMCU/Common/common.c **** #endif
  27:/home/y/github/EmbeddedSoftwareMCU/Common/common.c **** }
  97              		.loc 1 27 0
  98 003e 03B0     		add	sp, sp, #12
  99              	.LCFI3:
 100              		.cfi_def_cfa_offset 36
 101              		@ sp needed
 102 0040 BDE8F040 		pop	{r4, r5, r6, r7, lr}
 103              	.LCFI4:
 104              		.cfi_restore 14
 105              		.cfi_restore 7
 106              		.cfi_restore 6
 107              		.cfi_restore 5
 108              		.cfi_restore 4
 109              		.cfi_def_cfa_offset 16
 110              	.LVL9:
 111 0044 04B0     		add	sp, sp, #16
 112              	.LCFI5:
 113              		.cfi_restore 3
 114              		.cfi_restore 2
 115              		.cfi_restore 1
 116              		.cfi_restore 0
 117              		.cfi_def_cfa_offset 0
 118 0046 7047     		bx	lr
 119              	.L6:
 120              		.align	2
 121              	.L5:
 122 0048 00000000 		.word	.LANCHOR0
 123 004c 00380140 		.word	1073821696
 124              		.cfi_endproc
 125              	.LFE134:
 127              		.section	.text._micros,"ax",%progbits
 128              		.align	1
 129              		.global	_micros
 130              		.syntax unified
 131              		.thumb
 132              		.thumb_func
 133              		.fpu softvfp
 135              	_micros:
 136              	.LFB136:
  28:/home/y/github/EmbeddedSoftwareMCU/Common/common.c **** 
  29:/home/y/github/EmbeddedSoftwareMCU/Common/common.c **** __STATIC_INLINE uint32_t LL_SYSTICK_IsActiveCounterFlag(void) {
  30:/home/y/github/EmbeddedSoftwareMCU/Common/common.c ****     return ((SysTick->CTRL & SysTick_CTRL_COUNTFLAG_Msk) == (SysTick_CTRL_COUNTFLAG_Msk));
  31:/home/y/github/EmbeddedSoftwareMCU/Common/common.c **** }
  32:/home/y/github/EmbeddedSoftwareMCU/Common/common.c **** 
  33:/home/y/github/EmbeddedSoftwareMCU/Common/common.c **** 
  34:/home/y/github/EmbeddedSoftwareMCU/Common/common.c **** uint64_t _micros() {
 137              		.loc 1 34 0
ARM GAS  /tmp/ccp73zUm.s 			page 4


 138              		.cfi_startproc
 139              		@ args = 0, pretend = 0, frame = 0
 140              		@ frame_needed = 0, uses_anonymous_args = 0
 141              		@ link register save eliminated.
  35:/home/y/github/EmbeddedSoftwareMCU/Common/common.c ****   // LL_SYSTICK_IsActiveCounterFlag();
  36:/home/y/github/EmbeddedSoftwareMCU/Common/common.c ****   // uint32_t m = HAL_GetTick();
  37:/home/y/github/EmbeddedSoftwareMCU/Common/common.c ****   // const uint32_t tms = SysTick->LOAD + 1;
  38:/home/y/github/EmbeddedSoftwareMCU/Common/common.c ****   // __IO uint32_t u = tms - SysTick->VAL;
  39:/home/y/github/EmbeddedSoftwareMCU/Common/common.c ****   // if (LL_SYSTICK_IsActiveCounterFlag()) {
  40:/home/y/github/EmbeddedSoftwareMCU/Common/common.c ****   //   m = HAL_GetTick();
  41:/home/y/github/EmbeddedSoftwareMCU/Common/common.c ****   //   u = tms - SysTick->VAL;
  42:/home/y/github/EmbeddedSoftwareMCU/Common/common.c ****   // }
  43:/home/y/github/EmbeddedSoftwareMCU/Common/common.c ****   // return (m * 1000 + (u * 1000) / tms);
  44:/home/y/github/EmbeddedSoftwareMCU/Common/common.c ****   return 0;
  45:/home/y/github/EmbeddedSoftwareMCU/Common/common.c **** }
 142              		.loc 1 45 0
 143 0000 0020     		movs	r0, #0
 144 0002 0021     		movs	r1, #0
 145 0004 7047     		bx	lr
 146              		.cfi_endproc
 147              	.LFE136:
 149              		.section	.bss.log_buf.13647,"aw",%nobits
 150              		.align	2
 151              		.set	.LANCHOR0,. + 0
 154              	log_buf.13647:
 155 0000 00000000 		.space	256
 155      00000000 
 155      00000000 
 155      00000000 
 155      00000000 
 156              		.text
 157              	.Letext0:
 158              		.file 2 "/home/y/github/EmbeddedSoftwareMCU/Tools/gcc-arm-none-eabi-unix/arm-none-eabi/include/mac
 159              		.file 3 "/home/y/github/EmbeddedSoftwareMCU/Tools/gcc-arm-none-eabi-unix/arm-none-eabi/include/sys
 160              		.file 4 "/home/y/github/EmbeddedSoftwareMCU/Libraries/AT32/cmsis/cm4/core_support/core_cm4.h"
 161              		.file 5 "/home/y/github/EmbeddedSoftwareMCU/Libraries/AT32/cmsis/cm4/device_support/system_at32f40
 162              		.file 6 "/home/y/github/EmbeddedSoftwareMCU/Libraries/AT32/drivers/inc/at32f403a_407_usb.h"
 163              		.file 7 "/home/y/github/EmbeddedSoftwareMCU/Libraries/AT32/drivers/inc/at32f403a_407_usart.h"
 164              		.file 8 "/home/y/github/EmbeddedSoftwareMCU/Tools/gcc-arm-none-eabi-unix/lib/gcc/arm-none-eabi/6.2
 165              		.file 9 "/home/y/github/EmbeddedSoftwareMCU/Tools/gcc-arm-none-eabi-unix/lib/gcc/arm-none-eabi/6.2
 166              		.file 10 "/home/y/github/EmbeddedSoftwareMCU/Tools/gcc-arm-none-eabi-unix/arm-none-eabi/include/sy
 167              		.file 11 "/home/y/github/EmbeddedSoftwareMCU/Tools/gcc-arm-none-eabi-unix/arm-none-eabi/include/sy
 168              		.file 12 "/home/y/github/EmbeddedSoftwareMCU/Tools/gcc-arm-none-eabi-unix/arm-none-eabi/include/sy
 169              		.file 13 "<built-in>"
 170              		.file 14 "/home/y/github/EmbeddedSoftwareMCU/Tools/gcc-arm-none-eabi-unix/arm-none-eabi/include/st
 171              		.file 15 "/home/y/github/EmbeddedSoftwareMCU/Libraries/AT32/cmsis/cm4/device_support/at32f403a_407
ARM GAS  /tmp/ccp73zUm.s 			page 5

