ARM GAS  /tmp/cc6hreG3.s 			page 1


   1              		.cpu cortex-m4
   2              		.eabi_attribute 20, 1
   3              		.eabi_attribute 21, 1
   4              		.eabi_attribute 23, 3
   5              		.eabi_attribute 24, 1
   6              		.eabi_attribute 25, 1
   7              		.eabi_attribute 26, 1
   8              		.eabi_attribute 30, 1
   9              		.eabi_attribute 34, 1
  10              		.eabi_attribute 18, 4
  11              		.file	"system_at32f403a_407.c"
  12              		.text
  13              	.Ltext0:
  14              		.cfi_sections	.debug_frame
  15              		.section	.text.SystemInit,"ax",%progbits
  16              		.align	1
  17              		.global	SystemInit
  18              		.syntax unified
  19              		.thumb
  20              		.thumb_func
  21              		.fpu softvfp
  23              	SystemInit:
  24              	.LFB133:
  25              		.file 1 "/home/y/github/EmbeddedSoftwareMCU/Libraries/AT32/cmsis/cm4/device_support/system_at32f40
   1:/home/y/github/EmbeddedSoftwareMCU/Libraries/AT32/cmsis/cm4/device_support/system_at32f403a_407.c **** /**
   2:/home/y/github/EmbeddedSoftwareMCU/Libraries/AT32/cmsis/cm4/device_support/system_at32f403a_407.c ****   **************************************************************************
   3:/home/y/github/EmbeddedSoftwareMCU/Libraries/AT32/cmsis/cm4/device_support/system_at32f403a_407.c ****   * @file     system_at32f403a_407.c
   4:/home/y/github/EmbeddedSoftwareMCU/Libraries/AT32/cmsis/cm4/device_support/system_at32f403a_407.c ****   * @version  v2.0.8
   5:/home/y/github/EmbeddedSoftwareMCU/Libraries/AT32/cmsis/cm4/device_support/system_at32f403a_407.c ****   * @date     2022-04-02
   6:/home/y/github/EmbeddedSoftwareMCU/Libraries/AT32/cmsis/cm4/device_support/system_at32f403a_407.c ****   * @brief    contains all the functions for cmsis cortex-m4 system source file
   7:/home/y/github/EmbeddedSoftwareMCU/Libraries/AT32/cmsis/cm4/device_support/system_at32f403a_407.c ****   **************************************************************************
   8:/home/y/github/EmbeddedSoftwareMCU/Libraries/AT32/cmsis/cm4/device_support/system_at32f403a_407.c ****   *                       Copyright notice & Disclaimer
   9:/home/y/github/EmbeddedSoftwareMCU/Libraries/AT32/cmsis/cm4/device_support/system_at32f403a_407.c ****   *
  10:/home/y/github/EmbeddedSoftwareMCU/Libraries/AT32/cmsis/cm4/device_support/system_at32f403a_407.c ****   * The software Board Support Package (BSP) that is made available to
  11:/home/y/github/EmbeddedSoftwareMCU/Libraries/AT32/cmsis/cm4/device_support/system_at32f403a_407.c ****   * download from Artery official website is the copyrighted work of Artery.
  12:/home/y/github/EmbeddedSoftwareMCU/Libraries/AT32/cmsis/cm4/device_support/system_at32f403a_407.c ****   * Artery authorizes customers to use, copy, and distribute the BSP
  13:/home/y/github/EmbeddedSoftwareMCU/Libraries/AT32/cmsis/cm4/device_support/system_at32f403a_407.c ****   * software and its related documentation for the purpose of design and
  14:/home/y/github/EmbeddedSoftwareMCU/Libraries/AT32/cmsis/cm4/device_support/system_at32f403a_407.c ****   * development in conjunction with Artery microcontrollers. Use of the
  15:/home/y/github/EmbeddedSoftwareMCU/Libraries/AT32/cmsis/cm4/device_support/system_at32f403a_407.c ****   * software is governed by this copyright notice and the following disclaimer.
  16:/home/y/github/EmbeddedSoftwareMCU/Libraries/AT32/cmsis/cm4/device_support/system_at32f403a_407.c ****   *
  17:/home/y/github/EmbeddedSoftwareMCU/Libraries/AT32/cmsis/cm4/device_support/system_at32f403a_407.c ****   * THIS SOFTWARE IS PROVIDED ON "AS IS" BASIS WITHOUT WARRANTIES,
  18:/home/y/github/EmbeddedSoftwareMCU/Libraries/AT32/cmsis/cm4/device_support/system_at32f403a_407.c ****   * GUARANTEES OR REPRESENTATIONS OF ANY KIND. ARTERY EXPRESSLY DISCLAIMS,
  19:/home/y/github/EmbeddedSoftwareMCU/Libraries/AT32/cmsis/cm4/device_support/system_at32f403a_407.c ****   * TO THE FULLEST EXTENT PERMITTED BY LAW, ALL EXPRESS, IMPLIED OR
  20:/home/y/github/EmbeddedSoftwareMCU/Libraries/AT32/cmsis/cm4/device_support/system_at32f403a_407.c ****   * STATUTORY OR OTHER WARRANTIES, GUARANTEES OR REPRESENTATIONS,
  21:/home/y/github/EmbeddedSoftwareMCU/Libraries/AT32/cmsis/cm4/device_support/system_at32f403a_407.c ****   * INCLUDING BUT NOT LIMITED TO, THE IMPLIED WARRANTIES OF MERCHANTABILITY,
  22:/home/y/github/EmbeddedSoftwareMCU/Libraries/AT32/cmsis/cm4/device_support/system_at32f403a_407.c ****   * FITNESS FOR A PARTICULAR PURPOSE, OR NON-INFRINGEMENT.
  23:/home/y/github/EmbeddedSoftwareMCU/Libraries/AT32/cmsis/cm4/device_support/system_at32f403a_407.c ****   *
  24:/home/y/github/EmbeddedSoftwareMCU/Libraries/AT32/cmsis/cm4/device_support/system_at32f403a_407.c ****   **************************************************************************
  25:/home/y/github/EmbeddedSoftwareMCU/Libraries/AT32/cmsis/cm4/device_support/system_at32f403a_407.c ****   */
  26:/home/y/github/EmbeddedSoftwareMCU/Libraries/AT32/cmsis/cm4/device_support/system_at32f403a_407.c **** 
  27:/home/y/github/EmbeddedSoftwareMCU/Libraries/AT32/cmsis/cm4/device_support/system_at32f403a_407.c **** /** @addtogroup CMSIS
  28:/home/y/github/EmbeddedSoftwareMCU/Libraries/AT32/cmsis/cm4/device_support/system_at32f403a_407.c ****   * @{
  29:/home/y/github/EmbeddedSoftwareMCU/Libraries/AT32/cmsis/cm4/device_support/system_at32f403a_407.c ****   */
  30:/home/y/github/EmbeddedSoftwareMCU/Libraries/AT32/cmsis/cm4/device_support/system_at32f403a_407.c **** 
  31:/home/y/github/EmbeddedSoftwareMCU/Libraries/AT32/cmsis/cm4/device_support/system_at32f403a_407.c **** /** @addtogroup AT32F403A_407_system
  32:/home/y/github/EmbeddedSoftwareMCU/Libraries/AT32/cmsis/cm4/device_support/system_at32f403a_407.c ****   * @{
  33:/home/y/github/EmbeddedSoftwareMCU/Libraries/AT32/cmsis/cm4/device_support/system_at32f403a_407.c ****   */
ARM GAS  /tmp/cc6hreG3.s 			page 2


  34:/home/y/github/EmbeddedSoftwareMCU/Libraries/AT32/cmsis/cm4/device_support/system_at32f403a_407.c **** 
  35:/home/y/github/EmbeddedSoftwareMCU/Libraries/AT32/cmsis/cm4/device_support/system_at32f403a_407.c **** #include "at32f403a_407.h"
  36:/home/y/github/EmbeddedSoftwareMCU/Libraries/AT32/cmsis/cm4/device_support/system_at32f403a_407.c **** 
  37:/home/y/github/EmbeddedSoftwareMCU/Libraries/AT32/cmsis/cm4/device_support/system_at32f403a_407.c **** /** @addtogroup AT32F403A_407_system_private_defines
  38:/home/y/github/EmbeddedSoftwareMCU/Libraries/AT32/cmsis/cm4/device_support/system_at32f403a_407.c ****   * @{
  39:/home/y/github/EmbeddedSoftwareMCU/Libraries/AT32/cmsis/cm4/device_support/system_at32f403a_407.c ****   */
  40:/home/y/github/EmbeddedSoftwareMCU/Libraries/AT32/cmsis/cm4/device_support/system_at32f403a_407.c **** #define VECT_TAB_OFFSET                  0x0 /*!< vector table base offset field. this value must b
  41:/home/y/github/EmbeddedSoftwareMCU/Libraries/AT32/cmsis/cm4/device_support/system_at32f403a_407.c **** /**
  42:/home/y/github/EmbeddedSoftwareMCU/Libraries/AT32/cmsis/cm4/device_support/system_at32f403a_407.c ****   * @}
  43:/home/y/github/EmbeddedSoftwareMCU/Libraries/AT32/cmsis/cm4/device_support/system_at32f403a_407.c ****   */
  44:/home/y/github/EmbeddedSoftwareMCU/Libraries/AT32/cmsis/cm4/device_support/system_at32f403a_407.c **** 
  45:/home/y/github/EmbeddedSoftwareMCU/Libraries/AT32/cmsis/cm4/device_support/system_at32f403a_407.c **** /** @addtogroup AT32F403A_407_system_private_variables
  46:/home/y/github/EmbeddedSoftwareMCU/Libraries/AT32/cmsis/cm4/device_support/system_at32f403a_407.c ****   * @{
  47:/home/y/github/EmbeddedSoftwareMCU/Libraries/AT32/cmsis/cm4/device_support/system_at32f403a_407.c ****   */
  48:/home/y/github/EmbeddedSoftwareMCU/Libraries/AT32/cmsis/cm4/device_support/system_at32f403a_407.c **** unsigned int system_core_clock           = HICK_VALUE; /*!< system clock frequency (core clock) */
  49:/home/y/github/EmbeddedSoftwareMCU/Libraries/AT32/cmsis/cm4/device_support/system_at32f403a_407.c **** /**
  50:/home/y/github/EmbeddedSoftwareMCU/Libraries/AT32/cmsis/cm4/device_support/system_at32f403a_407.c ****   * @}
  51:/home/y/github/EmbeddedSoftwareMCU/Libraries/AT32/cmsis/cm4/device_support/system_at32f403a_407.c ****   */
  52:/home/y/github/EmbeddedSoftwareMCU/Libraries/AT32/cmsis/cm4/device_support/system_at32f403a_407.c **** 
  53:/home/y/github/EmbeddedSoftwareMCU/Libraries/AT32/cmsis/cm4/device_support/system_at32f403a_407.c **** /** @addtogroup AT32F403A_407_system_private_functions
  54:/home/y/github/EmbeddedSoftwareMCU/Libraries/AT32/cmsis/cm4/device_support/system_at32f403a_407.c ****   * @{
  55:/home/y/github/EmbeddedSoftwareMCU/Libraries/AT32/cmsis/cm4/device_support/system_at32f403a_407.c ****   */
  56:/home/y/github/EmbeddedSoftwareMCU/Libraries/AT32/cmsis/cm4/device_support/system_at32f403a_407.c **** 
  57:/home/y/github/EmbeddedSoftwareMCU/Libraries/AT32/cmsis/cm4/device_support/system_at32f403a_407.c **** /**
  58:/home/y/github/EmbeddedSoftwareMCU/Libraries/AT32/cmsis/cm4/device_support/system_at32f403a_407.c ****   * @brief  setup the microcontroller system
  59:/home/y/github/EmbeddedSoftwareMCU/Libraries/AT32/cmsis/cm4/device_support/system_at32f403a_407.c ****   *         initialize the flash interface.
  60:/home/y/github/EmbeddedSoftwareMCU/Libraries/AT32/cmsis/cm4/device_support/system_at32f403a_407.c ****   * @note   this function should be used only after reset.
  61:/home/y/github/EmbeddedSoftwareMCU/Libraries/AT32/cmsis/cm4/device_support/system_at32f403a_407.c ****   * @param  none
  62:/home/y/github/EmbeddedSoftwareMCU/Libraries/AT32/cmsis/cm4/device_support/system_at32f403a_407.c ****   * @retval none
  63:/home/y/github/EmbeddedSoftwareMCU/Libraries/AT32/cmsis/cm4/device_support/system_at32f403a_407.c ****   */
  64:/home/y/github/EmbeddedSoftwareMCU/Libraries/AT32/cmsis/cm4/device_support/system_at32f403a_407.c **** void SystemInit (void)
  65:/home/y/github/EmbeddedSoftwareMCU/Libraries/AT32/cmsis/cm4/device_support/system_at32f403a_407.c **** {
  26              		.loc 1 65 0
  27              		.cfi_startproc
  28              		@ args = 0, pretend = 0, frame = 0
  29              		@ frame_needed = 0, uses_anonymous_args = 0
  30              		@ link register save eliminated.
  66:/home/y/github/EmbeddedSoftwareMCU/Libraries/AT32/cmsis/cm4/device_support/system_at32f403a_407.c **** #if defined (__FPU_USED) && (__FPU_USED == 1U)
  67:/home/y/github/EmbeddedSoftwareMCU/Libraries/AT32/cmsis/cm4/device_support/system_at32f403a_407.c ****   SCB->CPACR |= ((3U << 10U * 2U) |         /* set cp10 full access */
  68:/home/y/github/EmbeddedSoftwareMCU/Libraries/AT32/cmsis/cm4/device_support/system_at32f403a_407.c ****                  (3U << 11U * 2U)  );       /* set cp11 full access */
  69:/home/y/github/EmbeddedSoftwareMCU/Libraries/AT32/cmsis/cm4/device_support/system_at32f403a_407.c **** #endif
  70:/home/y/github/EmbeddedSoftwareMCU/Libraries/AT32/cmsis/cm4/device_support/system_at32f403a_407.c **** 
  71:/home/y/github/EmbeddedSoftwareMCU/Libraries/AT32/cmsis/cm4/device_support/system_at32f403a_407.c ****   /* reset the crm clock configuration to the default reset state(for debug purpose) */
  72:/home/y/github/EmbeddedSoftwareMCU/Libraries/AT32/cmsis/cm4/device_support/system_at32f403a_407.c ****   /* set hicken bit */
  73:/home/y/github/EmbeddedSoftwareMCU/Libraries/AT32/cmsis/cm4/device_support/system_at32f403a_407.c ****   CRM->ctrl_bit.hicken = TRUE;
  31              		.loc 1 73 0
  32 0000 124A     		ldr	r2, .L4
  33 0002 1368     		ldr	r3, [r2]
  34 0004 43F00103 		orr	r3, r3, #1
  35 0008 1360     		str	r3, [r2]
  36              	.L2:
  74:/home/y/github/EmbeddedSoftwareMCU/Libraries/AT32/cmsis/cm4/device_support/system_at32f403a_407.c **** 
  75:/home/y/github/EmbeddedSoftwareMCU/Libraries/AT32/cmsis/cm4/device_support/system_at32f403a_407.c ****   /* wait hick stable */
  76:/home/y/github/EmbeddedSoftwareMCU/Libraries/AT32/cmsis/cm4/device_support/system_at32f403a_407.c ****   while(CRM->ctrl_bit.hickstbl != SET);
  37              		.loc 1 76 0 discriminator 1
  38 000a 104B     		ldr	r3, .L4
  39 000c 1B68     		ldr	r3, [r3]
ARM GAS  /tmp/cc6hreG3.s 			page 3


  40 000e 13F0020F 		tst	r3, #2
  41 0012 FAD0     		beq	.L2
  77:/home/y/github/EmbeddedSoftwareMCU/Libraries/AT32/cmsis/cm4/device_support/system_at32f403a_407.c **** 
  78:/home/y/github/EmbeddedSoftwareMCU/Libraries/AT32/cmsis/cm4/device_support/system_at32f403a_407.c ****   /* hick used as system clock */
  79:/home/y/github/EmbeddedSoftwareMCU/Libraries/AT32/cmsis/cm4/device_support/system_at32f403a_407.c ****   CRM->cfg_bit.sclksel = CRM_SCLK_HICK;
  42              		.loc 1 79 0
  43 0014 0D4B     		ldr	r3, .L4
  44 0016 5A68     		ldr	r2, [r3, #4]
  45 0018 6FF30102 		bfc	r2, #0, #2
  46 001c 5A60     		str	r2, [r3, #4]
  47              	.L3:
  80:/home/y/github/EmbeddedSoftwareMCU/Libraries/AT32/cmsis/cm4/device_support/system_at32f403a_407.c **** 
  81:/home/y/github/EmbeddedSoftwareMCU/Libraries/AT32/cmsis/cm4/device_support/system_at32f403a_407.c ****   /* wait sclk switch status */
  82:/home/y/github/EmbeddedSoftwareMCU/Libraries/AT32/cmsis/cm4/device_support/system_at32f403a_407.c ****   while(CRM->cfg_bit.sclksts != CRM_SCLK_HICK);
  48              		.loc 1 82 0 discriminator 1
  49 001e 0B4B     		ldr	r3, .L4
  50 0020 5B68     		ldr	r3, [r3, #4]
  51 0022 13F00C0F 		tst	r3, #12
  52 0026 FAD1     		bne	.L3
  83:/home/y/github/EmbeddedSoftwareMCU/Libraries/AT32/cmsis/cm4/device_support/system_at32f403a_407.c **** 
  84:/home/y/github/EmbeddedSoftwareMCU/Libraries/AT32/cmsis/cm4/device_support/system_at32f403a_407.c ****   /* reset cfg register, include sclk switch, ahbdiv, apb1div, apb2div, adcdiv,
  85:/home/y/github/EmbeddedSoftwareMCU/Libraries/AT32/cmsis/cm4/device_support/system_at32f403a_407.c ****      clkout pllrcs, pllhextdiv, pllmult, usbdiv and pllrange bits */
  86:/home/y/github/EmbeddedSoftwareMCU/Libraries/AT32/cmsis/cm4/device_support/system_at32f403a_407.c ****   CRM->cfg = 0;
  53              		.loc 1 86 0
  54 0028 084B     		ldr	r3, .L4
  55 002a 0021     		movs	r1, #0
  56 002c 5960     		str	r1, [r3, #4]
  87:/home/y/github/EmbeddedSoftwareMCU/Libraries/AT32/cmsis/cm4/device_support/system_at32f403a_407.c **** 
  88:/home/y/github/EmbeddedSoftwareMCU/Libraries/AT32/cmsis/cm4/device_support/system_at32f403a_407.c ****   /* reset hexten, hextbyps, cfden and pllen bits */
  89:/home/y/github/EmbeddedSoftwareMCU/Libraries/AT32/cmsis/cm4/device_support/system_at32f403a_407.c ****   CRM->ctrl &= ~(0x010D0000U);
  57              		.loc 1 89 0
  58 002e 1A68     		ldr	r2, [r3]
  59 0030 22F08672 		bic	r2, r2, #17563648
  60 0034 22F48032 		bic	r2, r2, #65536
  61 0038 1A60     		str	r2, [r3]
  90:/home/y/github/EmbeddedSoftwareMCU/Libraries/AT32/cmsis/cm4/device_support/system_at32f403a_407.c **** 
  91:/home/y/github/EmbeddedSoftwareMCU/Libraries/AT32/cmsis/cm4/device_support/system_at32f403a_407.c ****   /* reset clkout[3], usbbufs, hickdiv, clkoutdiv */
  92:/home/y/github/EmbeddedSoftwareMCU/Libraries/AT32/cmsis/cm4/device_support/system_at32f403a_407.c ****   CRM->misc1 = 0;
  62              		.loc 1 92 0
  63 003a 1963     		str	r1, [r3, #48]
  93:/home/y/github/EmbeddedSoftwareMCU/Libraries/AT32/cmsis/cm4/device_support/system_at32f403a_407.c **** 
  94:/home/y/github/EmbeddedSoftwareMCU/Libraries/AT32/cmsis/cm4/device_support/system_at32f403a_407.c ****   /* disable all interrupts enable and clear pending bits  */
  95:/home/y/github/EmbeddedSoftwareMCU/Libraries/AT32/cmsis/cm4/device_support/system_at32f403a_407.c ****   CRM->clkint = 0x009F0000;
  64              		.loc 1 95 0
  65 003c 4FF41F02 		mov	r2, #10420224
  66 0040 9A60     		str	r2, [r3, #8]
  96:/home/y/github/EmbeddedSoftwareMCU/Libraries/AT32/cmsis/cm4/device_support/system_at32f403a_407.c **** 
  97:/home/y/github/EmbeddedSoftwareMCU/Libraries/AT32/cmsis/cm4/device_support/system_at32f403a_407.c **** #ifdef VECT_TAB_SRAM
  98:/home/y/github/EmbeddedSoftwareMCU/Libraries/AT32/cmsis/cm4/device_support/system_at32f403a_407.c ****   SCB->VTOR = SRAM_BASE  | VECT_TAB_OFFSET;  /* vector table relocation in internal sram. */
  99:/home/y/github/EmbeddedSoftwareMCU/Libraries/AT32/cmsis/cm4/device_support/system_at32f403a_407.c **** #else
 100:/home/y/github/EmbeddedSoftwareMCU/Libraries/AT32/cmsis/cm4/device_support/system_at32f403a_407.c ****   SCB->VTOR = FLASH_BASE | VECT_TAB_OFFSET;  /* vector table relocation in internal flash. */
  67              		.loc 1 100 0
  68 0042 4FF00062 		mov	r2, #134217728
  69 0046 024B     		ldr	r3, .L4+4
  70 0048 9A60     		str	r2, [r3, #8]
  71 004a 7047     		bx	lr
  72              	.L5:
ARM GAS  /tmp/cc6hreG3.s 			page 4


  73              		.align	2
  74              	.L4:
  75 004c 00100240 		.word	1073876992
  76 0050 00ED00E0 		.word	-536810240
  77              		.cfi_endproc
  78              	.LFE133:
  80              		.section	.text.system_core_clock_update,"ax",%progbits
  81              		.align	1
  82              		.global	system_core_clock_update
  83              		.syntax unified
  84              		.thumb
  85              		.thumb_func
  86              		.fpu softvfp
  88              	system_core_clock_update:
  89              	.LFB134:
 101:/home/y/github/EmbeddedSoftwareMCU/Libraries/AT32/cmsis/cm4/device_support/system_at32f403a_407.c **** #endif
 102:/home/y/github/EmbeddedSoftwareMCU/Libraries/AT32/cmsis/cm4/device_support/system_at32f403a_407.c **** }
 103:/home/y/github/EmbeddedSoftwareMCU/Libraries/AT32/cmsis/cm4/device_support/system_at32f403a_407.c **** 
 104:/home/y/github/EmbeddedSoftwareMCU/Libraries/AT32/cmsis/cm4/device_support/system_at32f403a_407.c **** /**
 105:/home/y/github/EmbeddedSoftwareMCU/Libraries/AT32/cmsis/cm4/device_support/system_at32f403a_407.c ****   * @brief  update system_core_clock variable according to clock register values.
 106:/home/y/github/EmbeddedSoftwareMCU/Libraries/AT32/cmsis/cm4/device_support/system_at32f403a_407.c ****   *         the system_core_clock variable contains the core clock (hclk), it can
 107:/home/y/github/EmbeddedSoftwareMCU/Libraries/AT32/cmsis/cm4/device_support/system_at32f403a_407.c ****   *         be used by the user application to setup the systick timer or configure
 108:/home/y/github/EmbeddedSoftwareMCU/Libraries/AT32/cmsis/cm4/device_support/system_at32f403a_407.c ****   *         other parameters.
 109:/home/y/github/EmbeddedSoftwareMCU/Libraries/AT32/cmsis/cm4/device_support/system_at32f403a_407.c ****   * @param  none
 110:/home/y/github/EmbeddedSoftwareMCU/Libraries/AT32/cmsis/cm4/device_support/system_at32f403a_407.c ****   * @retval none
 111:/home/y/github/EmbeddedSoftwareMCU/Libraries/AT32/cmsis/cm4/device_support/system_at32f403a_407.c ****   */
 112:/home/y/github/EmbeddedSoftwareMCU/Libraries/AT32/cmsis/cm4/device_support/system_at32f403a_407.c **** void system_core_clock_update(void)
 113:/home/y/github/EmbeddedSoftwareMCU/Libraries/AT32/cmsis/cm4/device_support/system_at32f403a_407.c **** {
  90              		.loc 1 113 0
  91              		.cfi_startproc
  92              		@ args = 0, pretend = 0, frame = 0
  93              		@ frame_needed = 0, uses_anonymous_args = 0
  94 0000 08B5     		push	{r3, lr}
  95              	.LCFI0:
  96              		.cfi_def_cfa_offset 8
  97              		.cfi_offset 3, -8
  98              		.cfi_offset 14, -4
  99              	.LVL0:
 114:/home/y/github/EmbeddedSoftwareMCU/Libraries/AT32/cmsis/cm4/device_support/system_at32f403a_407.c ****   uint32_t hext_prediv = 0, pll_mult = 0, pll_mult_h = 0, pll_clock_source = 0, temp = 0, div_value
 115:/home/y/github/EmbeddedSoftwareMCU/Libraries/AT32/cmsis/cm4/device_support/system_at32f403a_407.c ****   crm_sclk_type sclk_source;
 116:/home/y/github/EmbeddedSoftwareMCU/Libraries/AT32/cmsis/cm4/device_support/system_at32f403a_407.c **** 
 117:/home/y/github/EmbeddedSoftwareMCU/Libraries/AT32/cmsis/cm4/device_support/system_at32f403a_407.c ****   static const uint8_t sys_ahb_div_table[16] = {0, 0, 0, 0, 0, 0, 0, 0, 1, 2, 3, 4, 6, 7, 8, 9};
 118:/home/y/github/EmbeddedSoftwareMCU/Libraries/AT32/cmsis/cm4/device_support/system_at32f403a_407.c **** 
 119:/home/y/github/EmbeddedSoftwareMCU/Libraries/AT32/cmsis/cm4/device_support/system_at32f403a_407.c ****   /* get sclk source */
 120:/home/y/github/EmbeddedSoftwareMCU/Libraries/AT32/cmsis/cm4/device_support/system_at32f403a_407.c ****   sclk_source = crm_sysclk_switch_status_get();
 100              		.loc 1 120 0
 101 0002 FFF7FEFF 		bl	crm_sysclk_switch_status_get
 102              	.LVL1:
 121:/home/y/github/EmbeddedSoftwareMCU/Libraries/AT32/cmsis/cm4/device_support/system_at32f403a_407.c **** 
 122:/home/y/github/EmbeddedSoftwareMCU/Libraries/AT32/cmsis/cm4/device_support/system_at32f403a_407.c ****   switch(sclk_source)
 103              		.loc 1 122 0
 104 0006 0128     		cmp	r0, #1
 105 0008 18D0     		beq	.L8
 106 000a 28B1     		cbz	r0, .L9
 107 000c 0228     		cmp	r0, #2
 108 000e 23D0     		beq	.L10
 123:/home/y/github/EmbeddedSoftwareMCU/Libraries/AT32/cmsis/cm4/device_support/system_at32f403a_407.c ****   {
ARM GAS  /tmp/cc6hreG3.s 			page 5


 124:/home/y/github/EmbeddedSoftwareMCU/Libraries/AT32/cmsis/cm4/device_support/system_at32f403a_407.c ****     case CRM_SCLK_HICK:
 125:/home/y/github/EmbeddedSoftwareMCU/Libraries/AT32/cmsis/cm4/device_support/system_at32f403a_407.c ****       if(((CRM->misc3_bit.hick_to_sclk) != RESET) && ((CRM->misc1_bit.hickdiv) != RESET))
 126:/home/y/github/EmbeddedSoftwareMCU/Libraries/AT32/cmsis/cm4/device_support/system_at32f403a_407.c ****         system_core_clock = HICK_VALUE * 6;
 127:/home/y/github/EmbeddedSoftwareMCU/Libraries/AT32/cmsis/cm4/device_support/system_at32f403a_407.c ****       else
 128:/home/y/github/EmbeddedSoftwareMCU/Libraries/AT32/cmsis/cm4/device_support/system_at32f403a_407.c ****         system_core_clock = HICK_VALUE;
 129:/home/y/github/EmbeddedSoftwareMCU/Libraries/AT32/cmsis/cm4/device_support/system_at32f403a_407.c ****       break;
 130:/home/y/github/EmbeddedSoftwareMCU/Libraries/AT32/cmsis/cm4/device_support/system_at32f403a_407.c ****     case CRM_SCLK_HEXT:
 131:/home/y/github/EmbeddedSoftwareMCU/Libraries/AT32/cmsis/cm4/device_support/system_at32f403a_407.c ****       system_core_clock = HEXT_VALUE;
 132:/home/y/github/EmbeddedSoftwareMCU/Libraries/AT32/cmsis/cm4/device_support/system_at32f403a_407.c ****       break;
 133:/home/y/github/EmbeddedSoftwareMCU/Libraries/AT32/cmsis/cm4/device_support/system_at32f403a_407.c ****     case CRM_SCLK_PLL:
 134:/home/y/github/EmbeddedSoftwareMCU/Libraries/AT32/cmsis/cm4/device_support/system_at32f403a_407.c ****       pll_clock_source = CRM->cfg_bit.pllrcs;
 135:/home/y/github/EmbeddedSoftwareMCU/Libraries/AT32/cmsis/cm4/device_support/system_at32f403a_407.c ****       {
 136:/home/y/github/EmbeddedSoftwareMCU/Libraries/AT32/cmsis/cm4/device_support/system_at32f403a_407.c ****         /* get multiplication factor */
 137:/home/y/github/EmbeddedSoftwareMCU/Libraries/AT32/cmsis/cm4/device_support/system_at32f403a_407.c ****         pll_mult = CRM->cfg_bit.pllmult_l;
 138:/home/y/github/EmbeddedSoftwareMCU/Libraries/AT32/cmsis/cm4/device_support/system_at32f403a_407.c ****         pll_mult_h = CRM->cfg_bit.pllmult_h;
 139:/home/y/github/EmbeddedSoftwareMCU/Libraries/AT32/cmsis/cm4/device_support/system_at32f403a_407.c ****         /* process high bits */
 140:/home/y/github/EmbeddedSoftwareMCU/Libraries/AT32/cmsis/cm4/device_support/system_at32f403a_407.c ****         if((pll_mult_h != 0U) || (pll_mult == 15U)){
 141:/home/y/github/EmbeddedSoftwareMCU/Libraries/AT32/cmsis/cm4/device_support/system_at32f403a_407.c ****             pll_mult += ((16U * pll_mult_h) + 1U);
 142:/home/y/github/EmbeddedSoftwareMCU/Libraries/AT32/cmsis/cm4/device_support/system_at32f403a_407.c ****         }
 143:/home/y/github/EmbeddedSoftwareMCU/Libraries/AT32/cmsis/cm4/device_support/system_at32f403a_407.c ****         else
 144:/home/y/github/EmbeddedSoftwareMCU/Libraries/AT32/cmsis/cm4/device_support/system_at32f403a_407.c ****         {
 145:/home/y/github/EmbeddedSoftwareMCU/Libraries/AT32/cmsis/cm4/device_support/system_at32f403a_407.c ****             pll_mult += 2U;
 146:/home/y/github/EmbeddedSoftwareMCU/Libraries/AT32/cmsis/cm4/device_support/system_at32f403a_407.c ****         }
 147:/home/y/github/EmbeddedSoftwareMCU/Libraries/AT32/cmsis/cm4/device_support/system_at32f403a_407.c **** 
 148:/home/y/github/EmbeddedSoftwareMCU/Libraries/AT32/cmsis/cm4/device_support/system_at32f403a_407.c ****         if (pll_clock_source == 0x00)
 149:/home/y/github/EmbeddedSoftwareMCU/Libraries/AT32/cmsis/cm4/device_support/system_at32f403a_407.c ****         {
 150:/home/y/github/EmbeddedSoftwareMCU/Libraries/AT32/cmsis/cm4/device_support/system_at32f403a_407.c ****           /* hick divided by 2 selected as pll clock entry */
 151:/home/y/github/EmbeddedSoftwareMCU/Libraries/AT32/cmsis/cm4/device_support/system_at32f403a_407.c ****           system_core_clock = (HICK_VALUE >> 1) * pll_mult;
 152:/home/y/github/EmbeddedSoftwareMCU/Libraries/AT32/cmsis/cm4/device_support/system_at32f403a_407.c ****         }
 153:/home/y/github/EmbeddedSoftwareMCU/Libraries/AT32/cmsis/cm4/device_support/system_at32f403a_407.c ****         else
 154:/home/y/github/EmbeddedSoftwareMCU/Libraries/AT32/cmsis/cm4/device_support/system_at32f403a_407.c ****         {
 155:/home/y/github/EmbeddedSoftwareMCU/Libraries/AT32/cmsis/cm4/device_support/system_at32f403a_407.c ****           /* hext selected as pll clock entry */
 156:/home/y/github/EmbeddedSoftwareMCU/Libraries/AT32/cmsis/cm4/device_support/system_at32f403a_407.c ****           if (CRM->cfg_bit.pllhextdiv != RESET)
 157:/home/y/github/EmbeddedSoftwareMCU/Libraries/AT32/cmsis/cm4/device_support/system_at32f403a_407.c ****           {
 158:/home/y/github/EmbeddedSoftwareMCU/Libraries/AT32/cmsis/cm4/device_support/system_at32f403a_407.c ****             hext_prediv = CRM->misc3_bit.hextdiv;
 159:/home/y/github/EmbeddedSoftwareMCU/Libraries/AT32/cmsis/cm4/device_support/system_at32f403a_407.c **** 
 160:/home/y/github/EmbeddedSoftwareMCU/Libraries/AT32/cmsis/cm4/device_support/system_at32f403a_407.c ****             /* hext clock divided by 2 */
 161:/home/y/github/EmbeddedSoftwareMCU/Libraries/AT32/cmsis/cm4/device_support/system_at32f403a_407.c ****             system_core_clock = (HEXT_VALUE / (hext_prediv + 2)) * pll_mult;
 162:/home/y/github/EmbeddedSoftwareMCU/Libraries/AT32/cmsis/cm4/device_support/system_at32f403a_407.c ****           }
 163:/home/y/github/EmbeddedSoftwareMCU/Libraries/AT32/cmsis/cm4/device_support/system_at32f403a_407.c ****           else
 164:/home/y/github/EmbeddedSoftwareMCU/Libraries/AT32/cmsis/cm4/device_support/system_at32f403a_407.c ****           {
 165:/home/y/github/EmbeddedSoftwareMCU/Libraries/AT32/cmsis/cm4/device_support/system_at32f403a_407.c ****             system_core_clock = HEXT_VALUE * pll_mult;
 166:/home/y/github/EmbeddedSoftwareMCU/Libraries/AT32/cmsis/cm4/device_support/system_at32f403a_407.c ****           }
 167:/home/y/github/EmbeddedSoftwareMCU/Libraries/AT32/cmsis/cm4/device_support/system_at32f403a_407.c ****         }
 168:/home/y/github/EmbeddedSoftwareMCU/Libraries/AT32/cmsis/cm4/device_support/system_at32f403a_407.c ****       }
 169:/home/y/github/EmbeddedSoftwareMCU/Libraries/AT32/cmsis/cm4/device_support/system_at32f403a_407.c ****       break;
 170:/home/y/github/EmbeddedSoftwareMCU/Libraries/AT32/cmsis/cm4/device_support/system_at32f403a_407.c ****     default:
 171:/home/y/github/EmbeddedSoftwareMCU/Libraries/AT32/cmsis/cm4/device_support/system_at32f403a_407.c ****       system_core_clock = HICK_VALUE;
 109              		.loc 1 171 0
 110 0010 2A4A     		ldr	r2, .L21
 111 0012 2B4B     		ldr	r3, .L21+4
 112 0014 1A60     		str	r2, [r3]
 172:/home/y/github/EmbeddedSoftwareMCU/Libraries/AT32/cmsis/cm4/device_support/system_at32f403a_407.c ****       break;
 113              		.loc 1 172 0
 114 0016 14E0     		b	.L12
 115              	.L9:
 125:/home/y/github/EmbeddedSoftwareMCU/Libraries/AT32/cmsis/cm4/device_support/system_at32f403a_407.c ****         system_core_clock = HICK_VALUE * 6;
ARM GAS  /tmp/cc6hreG3.s 			page 6


 116              		.loc 1 125 0
 117 0018 2A4B     		ldr	r3, .L21+8
 118 001a 5B6D     		ldr	r3, [r3, #84]
 119 001c 13F4007F 		tst	r3, #512
 120 0020 08D0     		beq	.L11
 125:/home/y/github/EmbeddedSoftwareMCU/Libraries/AT32/cmsis/cm4/device_support/system_at32f403a_407.c ****         system_core_clock = HICK_VALUE * 6;
 121              		.loc 1 125 0 is_stmt 0 discriminator 1
 122 0022 284B     		ldr	r3, .L21+8
 123 0024 1B6B     		ldr	r3, [r3, #48]
 124 0026 13F0007F 		tst	r3, #33554432
 125 002a 03D0     		beq	.L11
 126:/home/y/github/EmbeddedSoftwareMCU/Libraries/AT32/cmsis/cm4/device_support/system_at32f403a_407.c ****       else
 126              		.loc 1 126 0 is_stmt 1
 127 002c 264A     		ldr	r2, .L21+12
 128 002e 244B     		ldr	r3, .L21+4
 129 0030 1A60     		str	r2, [r3]
 130 0032 06E0     		b	.L12
 131              	.L11:
 128:/home/y/github/EmbeddedSoftwareMCU/Libraries/AT32/cmsis/cm4/device_support/system_at32f403a_407.c ****       break;
 132              		.loc 1 128 0
 133 0034 214A     		ldr	r2, .L21
 134 0036 224B     		ldr	r3, .L21+4
 135 0038 1A60     		str	r2, [r3]
 136 003a 02E0     		b	.L12
 137              	.L8:
 131:/home/y/github/EmbeddedSoftwareMCU/Libraries/AT32/cmsis/cm4/device_support/system_at32f403a_407.c ****       break;
 138              		.loc 1 131 0
 139 003c 1F4A     		ldr	r2, .L21
 140 003e 204B     		ldr	r3, .L21+4
 141 0040 1A60     		str	r2, [r3]
 142              	.LVL2:
 143              	.L12:
 173:/home/y/github/EmbeddedSoftwareMCU/Libraries/AT32/cmsis/cm4/device_support/system_at32f403a_407.c ****   }
 174:/home/y/github/EmbeddedSoftwareMCU/Libraries/AT32/cmsis/cm4/device_support/system_at32f403a_407.c **** 
 175:/home/y/github/EmbeddedSoftwareMCU/Libraries/AT32/cmsis/cm4/device_support/system_at32f403a_407.c ****   /* compute sclk, ahbclk frequency */
 176:/home/y/github/EmbeddedSoftwareMCU/Libraries/AT32/cmsis/cm4/device_support/system_at32f403a_407.c ****   /* get ahb division */
 177:/home/y/github/EmbeddedSoftwareMCU/Libraries/AT32/cmsis/cm4/device_support/system_at32f403a_407.c ****   temp = CRM->cfg_bit.ahbdiv;
 144              		.loc 1 177 0
 145 0042 204B     		ldr	r3, .L21+8
 146 0044 5B68     		ldr	r3, [r3, #4]
 147 0046 C3F30313 		ubfx	r3, r3, #4, #4
 148              	.LVL3:
 178:/home/y/github/EmbeddedSoftwareMCU/Libraries/AT32/cmsis/cm4/device_support/system_at32f403a_407.c ****   div_value = sys_ahb_div_table[temp];
 149              		.loc 1 178 0
 150 004a 204A     		ldr	r2, .L21+16
 151 004c D15C     		ldrb	r1, [r2, r3]	@ zero_extendqisi2
 152              	.LVL4:
 179:/home/y/github/EmbeddedSoftwareMCU/Libraries/AT32/cmsis/cm4/device_support/system_at32f403a_407.c ****   /* ahbclk frequency */
 180:/home/y/github/EmbeddedSoftwareMCU/Libraries/AT32/cmsis/cm4/device_support/system_at32f403a_407.c ****   system_core_clock = system_core_clock >> div_value;
 153              		.loc 1 180 0
 154 004e 1C4A     		ldr	r2, .L21+4
 155 0050 1368     		ldr	r3, [r2]
 156              	.LVL5:
 157 0052 CB40     		lsrs	r3, r3, r1
 158 0054 1360     		str	r3, [r2]
 159 0056 08BD     		pop	{r3, pc}
 160              	.LVL6:
ARM GAS  /tmp/cc6hreG3.s 			page 7


 161              	.L10:
 134:/home/y/github/EmbeddedSoftwareMCU/Libraries/AT32/cmsis/cm4/device_support/system_at32f403a_407.c ****       {
 162              		.loc 1 134 0
 163 0058 1A4A     		ldr	r2, .L21+8
 164 005a 5168     		ldr	r1, [r2, #4]
 165 005c C1F30041 		ubfx	r1, r1, #16, #1
 166              	.LVL7:
 137:/home/y/github/EmbeddedSoftwareMCU/Libraries/AT32/cmsis/cm4/device_support/system_at32f403a_407.c ****         pll_mult_h = CRM->cfg_bit.pllmult_h;
 167              		.loc 1 137 0
 168 0060 5368     		ldr	r3, [r2, #4]
 169 0062 C3F38343 		ubfx	r3, r3, #18, #4
 170              	.LVL8:
 138:/home/y/github/EmbeddedSoftwareMCU/Libraries/AT32/cmsis/cm4/device_support/system_at32f403a_407.c ****         /* process high bits */
 171              		.loc 1 138 0
 172 0066 5268     		ldr	r2, [r2, #4]
 173 0068 C2F34172 		ubfx	r2, r2, #29, #2
 174              	.LVL9:
 140:/home/y/github/EmbeddedSoftwareMCU/Libraries/AT32/cmsis/cm4/device_support/system_at32f403a_407.c ****             pll_mult += ((16U * pll_mult_h) + 1U);
 175              		.loc 1 140 0
 176 006c 1AB9     		cbnz	r2, .L13
 140:/home/y/github/EmbeddedSoftwareMCU/Libraries/AT32/cmsis/cm4/device_support/system_at32f403a_407.c ****             pll_mult += ((16U * pll_mult_h) + 1U);
 177              		.loc 1 140 0 is_stmt 0 discriminator 1
 178 006e 0F2B     		cmp	r3, #15
 179 0070 01D0     		beq	.L13
 145:/home/y/github/EmbeddedSoftwareMCU/Libraries/AT32/cmsis/cm4/device_support/system_at32f403a_407.c ****         }
 180              		.loc 1 145 0 is_stmt 1
 181 0072 0233     		adds	r3, r3, #2
 182              	.LVL10:
 183 0074 02E0     		b	.L15
 184              	.L13:
 141:/home/y/github/EmbeddedSoftwareMCU/Libraries/AT32/cmsis/cm4/device_support/system_at32f403a_407.c ****         }
 185              		.loc 1 141 0
 186 0076 03EB0213 		add	r3, r3, r2, lsl #4
 187              	.LVL11:
 188 007a 0133     		adds	r3, r3, #1
 189              	.LVL12:
 190              	.L15:
 148:/home/y/github/EmbeddedSoftwareMCU/Libraries/AT32/cmsis/cm4/device_support/system_at32f403a_407.c ****         {
 191              		.loc 1 148 0
 192 007c 89B1     		cbz	r1, .L20
 156:/home/y/github/EmbeddedSoftwareMCU/Libraries/AT32/cmsis/cm4/device_support/system_at32f403a_407.c ****           {
 193              		.loc 1 156 0
 194 007e 114A     		ldr	r2, .L21+8
 195              	.LVL13:
 196 0080 5268     		ldr	r2, [r2, #4]
 197 0082 12F4003F 		tst	r2, #131072
 198 0086 12D0     		beq	.L17
 158:/home/y/github/EmbeddedSoftwareMCU/Libraries/AT32/cmsis/cm4/device_support/system_at32f403a_407.c **** 
 199              		.loc 1 158 0
 200 0088 0E4A     		ldr	r2, .L21+8
 201 008a 526D     		ldr	r2, [r2, #84]
 202 008c C2F30132 		ubfx	r2, r2, #12, #2
 203              	.LVL14:
 161:/home/y/github/EmbeddedSoftwareMCU/Libraries/AT32/cmsis/cm4/device_support/system_at32f403a_407.c ****           }
 204              		.loc 1 161 0
 205 0090 911C     		adds	r1, r2, #2
 206 0092 0A4A     		ldr	r2, .L21
ARM GAS  /tmp/cc6hreG3.s 			page 8


 207              	.LVL15:
 208 0094 B2FBF1F2 		udiv	r2, r2, r1
 209 0098 02FB03F3 		mul	r3, r2, r3
 210              	.LVL16:
 211 009c 084A     		ldr	r2, .L21+4
 212 009e 1360     		str	r3, [r2]
 213 00a0 CFE7     		b	.L12
 214              	.LVL17:
 215              	.L20:
 151:/home/y/github/EmbeddedSoftwareMCU/Libraries/AT32/cmsis/cm4/device_support/system_at32f403a_407.c ****         }
 216              		.loc 1 151 0
 217 00a2 0B4A     		ldr	r2, .L21+20
 218              	.LVL18:
 219 00a4 02FB03F3 		mul	r3, r2, r3
 220              	.LVL19:
 221 00a8 054A     		ldr	r2, .L21+4
 222 00aa 1360     		str	r3, [r2]
 223 00ac C9E7     		b	.L12
 224              	.LVL20:
 225              	.L17:
 165:/home/y/github/EmbeddedSoftwareMCU/Libraries/AT32/cmsis/cm4/device_support/system_at32f403a_407.c ****           }
 226              		.loc 1 165 0
 227 00ae 034A     		ldr	r2, .L21
 228 00b0 02FB03F3 		mul	r3, r2, r3
 229              	.LVL21:
 230 00b4 024A     		ldr	r2, .L21+4
 231 00b6 1360     		str	r3, [r2]
 232 00b8 C3E7     		b	.L12
 233              	.L22:
 234 00ba 00BF     		.align	2
 235              	.L21:
 236 00bc 00127A00 		.word	8000000
 237 00c0 00000000 		.word	.LANCHOR0
 238 00c4 00100240 		.word	1073876992
 239 00c8 006CDC02 		.word	48000000
 240 00cc 00000000 		.word	.LANCHOR1
 241 00d0 00093D00 		.word	4000000
 242              		.cfi_endproc
 243              	.LFE134:
 245              		.global	system_core_clock
 246              		.section	.data.system_core_clock,"aw",%progbits
 247              		.align	2
 248              		.set	.LANCHOR0,. + 0
 251              	system_core_clock:
 252 0000 00127A00 		.word	8000000
 253              		.section	.rodata.sys_ahb_div_table.12693,"a",%progbits
 254              		.align	2
 255              		.set	.LANCHOR1,. + 0
 258              	sys_ahb_div_table.12693:
 259 0000 00       		.byte	0
 260 0001 00       		.byte	0
 261 0002 00       		.byte	0
 262 0003 00       		.byte	0
 263 0004 00       		.byte	0
 264 0005 00       		.byte	0
 265 0006 00       		.byte	0
 266 0007 00       		.byte	0
ARM GAS  /tmp/cc6hreG3.s 			page 9


 267 0008 01       		.byte	1
 268 0009 02       		.byte	2
 269 000a 03       		.byte	3
 270 000b 04       		.byte	4
 271 000c 06       		.byte	6
 272 000d 07       		.byte	7
 273 000e 08       		.byte	8
 274 000f 09       		.byte	9
 275              		.text
 276              	.Letext0:
 277              		.file 2 "/home/y/github/EmbeddedSoftwareMCU/Tools/gcc-arm-none-eabi-unix/arm-none-eabi/include/mac
 278              		.file 3 "/home/y/github/EmbeddedSoftwareMCU/Tools/gcc-arm-none-eabi-unix/arm-none-eabi/include/sys
 279              		.file 4 "/home/y/github/EmbeddedSoftwareMCU/Libraries/AT32/cmsis/cm4/core_support/core_cm4.h"
 280              		.file 5 "/home/y/github/EmbeddedSoftwareMCU/Libraries/AT32/cmsis/cm4/device_support/system_at32f40
 281              		.file 6 "/home/y/github/EmbeddedSoftwareMCU/Libraries/AT32/cmsis/cm4/device_support/at32f403a_407.
 282              		.file 7 "/home/y/github/EmbeddedSoftwareMCU/Libraries/AT32/drivers/inc/at32f403a_407_crm.h"
 283              		.file 8 "/home/y/github/EmbeddedSoftwareMCU/Libraries/AT32/drivers/inc/at32f403a_407_tmr.h"
 284              		.file 9 "/home/y/github/EmbeddedSoftwareMCU/Libraries/AT32/drivers/inc/at32f403a_407_usb.h"
ARM GAS  /tmp/cc6hreG3.s 			page 10


DEFINED SYMBOLS
                            *ABS*:0000000000000000 system_at32f403a_407.c
     /tmp/cc6hreG3.s:16     .text.SystemInit:0000000000000000 $t
     /tmp/cc6hreG3.s:23     .text.SystemInit:0000000000000000 SystemInit
     /tmp/cc6hreG3.s:75     .text.SystemInit:000000000000004c $d
     /tmp/cc6hreG3.s:81     .text.system_core_clock_update:0000000000000000 $t
     /tmp/cc6hreG3.s:88     .text.system_core_clock_update:0000000000000000 system_core_clock_update
     /tmp/cc6hreG3.s:236    .text.system_core_clock_update:00000000000000bc $d
     /tmp/cc6hreG3.s:251    .data.system_core_clock:0000000000000000 system_core_clock
     /tmp/cc6hreG3.s:247    .data.system_core_clock:0000000000000000 $d
     /tmp/cc6hreG3.s:254    .rodata.sys_ahb_div_table.12693:0000000000000000 $d
     /tmp/cc6hreG3.s:258    .rodata.sys_ahb_div_table.12693:0000000000000000 sys_ahb_div_table.12693
                     .debug_frame:0000000000000010 $d

UNDEFINED SYMBOLS
crm_sysclk_switch_status_get
